ARM GAS  /tmp/ccmzGtNJ.s 			page 1


   1              		.cpu cortex-m4
   2              		.eabi_attribute 27, 1
   3              		.eabi_attribute 28, 1
   4              		.eabi_attribute 20, 1
   5              		.eabi_attribute 21, 1
   6              		.eabi_attribute 23, 3
   7              		.eabi_attribute 24, 1
   8              		.eabi_attribute 25, 1
   9              		.eabi_attribute 26, 1
  10              		.eabi_attribute 30, 1
  11              		.eabi_attribute 34, 1
  12              		.eabi_attribute 18, 4
  13              		.file	"i2c.c"
  14              		.text
  15              	.Ltext0:
  16              		.cfi_sections	.debug_frame
  17              		.section	.text.MX_I2C1_Init,"ax",%progbits
  18              		.align	1
  19              		.global	MX_I2C1_Init
  20              		.arch armv7e-m
  21              		.syntax unified
  22              		.thumb
  23              		.thumb_func
  24              		.fpu fpv4-sp-d16
  26              	MX_I2C1_Init:
  27              	.LFB134:
  28              		.file 1 "Core/Src/i2c.c"
   1:Core/Src/i2c.c **** /* USER CODE BEGIN Header */
   2:Core/Src/i2c.c **** /**
   3:Core/Src/i2c.c ****   ******************************************************************************
   4:Core/Src/i2c.c ****   * @file    i2c.c
   5:Core/Src/i2c.c ****   * @brief   This file provides code for the configuration
   6:Core/Src/i2c.c ****   *          of the I2C instances.
   7:Core/Src/i2c.c ****   ******************************************************************************
   8:Core/Src/i2c.c ****   * @attention
   9:Core/Src/i2c.c ****   *
  10:Core/Src/i2c.c ****   * Copyright (c) 2025 STMicroelectronics.
  11:Core/Src/i2c.c ****   * All rights reserved.
  12:Core/Src/i2c.c ****   *
  13:Core/Src/i2c.c ****   * This software is licensed under terms that can be found in the LICENSE file
  14:Core/Src/i2c.c ****   * in the root directory of this software component.
  15:Core/Src/i2c.c ****   * If no LICENSE file comes with this software, it is provided AS-IS.
  16:Core/Src/i2c.c ****   *
  17:Core/Src/i2c.c ****   ******************************************************************************
  18:Core/Src/i2c.c ****   */
  19:Core/Src/i2c.c **** /* USER CODE END Header */
  20:Core/Src/i2c.c **** /* Includes ------------------------------------------------------------------*/
  21:Core/Src/i2c.c **** #include "i2c.h"
  22:Core/Src/i2c.c **** 
  23:Core/Src/i2c.c **** /* USER CODE BEGIN 0 */
  24:Core/Src/i2c.c **** 
  25:Core/Src/i2c.c **** /* USER CODE END 0 */
  26:Core/Src/i2c.c **** 
  27:Core/Src/i2c.c **** I2C_HandleTypeDef hi2c1;
  28:Core/Src/i2c.c **** DMA_HandleTypeDef hdma_i2c1_rx;
  29:Core/Src/i2c.c **** DMA_HandleTypeDef hdma_i2c1_tx;
  30:Core/Src/i2c.c **** 
ARM GAS  /tmp/ccmzGtNJ.s 			page 2


  31:Core/Src/i2c.c **** /* I2C1 init function */
  32:Core/Src/i2c.c **** void MX_I2C1_Init(void)
  33:Core/Src/i2c.c **** {
  29              		.loc 1 33 1 view -0
  30              		.cfi_startproc
  31              		@ args = 0, pretend = 0, frame = 0
  32              		@ frame_needed = 0, uses_anonymous_args = 0
  33 0000 08B5     		push	{r3, lr}
  34              	.LCFI0:
  35              		.cfi_def_cfa_offset 8
  36              		.cfi_offset 3, -8
  37              		.cfi_offset 14, -4
  34:Core/Src/i2c.c **** 
  35:Core/Src/i2c.c ****   /* USER CODE BEGIN I2C1_Init 0 */
  36:Core/Src/i2c.c **** 
  37:Core/Src/i2c.c ****   /* USER CODE END I2C1_Init 0 */
  38:Core/Src/i2c.c **** 
  39:Core/Src/i2c.c ****   /* USER CODE BEGIN I2C1_Init 1 */
  40:Core/Src/i2c.c **** 
  41:Core/Src/i2c.c ****   /* USER CODE END I2C1_Init 1 */
  42:Core/Src/i2c.c ****   hi2c1.Instance = I2C1;
  38              		.loc 1 42 3 view .LVU1
  39              		.loc 1 42 18 is_stmt 0 view .LVU2
  40 0002 0B48     		ldr	r0, .L5
  41 0004 0B4B     		ldr	r3, .L5+4
  42 0006 0360     		str	r3, [r0]
  43:Core/Src/i2c.c ****   hi2c1.Init.ClockSpeed = 400000;
  43              		.loc 1 43 3 is_stmt 1 view .LVU3
  44              		.loc 1 43 25 is_stmt 0 view .LVU4
  45 0008 0B4B     		ldr	r3, .L5+8
  46 000a 4360     		str	r3, [r0, #4]
  44:Core/Src/i2c.c ****   hi2c1.Init.DutyCycle = I2C_DUTYCYCLE_2;
  47              		.loc 1 44 3 is_stmt 1 view .LVU5
  48              		.loc 1 44 24 is_stmt 0 view .LVU6
  49 000c 0023     		movs	r3, #0
  50 000e 8360     		str	r3, [r0, #8]
  45:Core/Src/i2c.c ****   hi2c1.Init.OwnAddress1 = 0;
  51              		.loc 1 45 3 is_stmt 1 view .LVU7
  52              		.loc 1 45 26 is_stmt 0 view .LVU8
  53 0010 C360     		str	r3, [r0, #12]
  46:Core/Src/i2c.c ****   hi2c1.Init.AddressingMode = I2C_ADDRESSINGMODE_7BIT;
  54              		.loc 1 46 3 is_stmt 1 view .LVU9
  55              		.loc 1 46 29 is_stmt 0 view .LVU10
  56 0012 4FF48042 		mov	r2, #16384
  57 0016 0261     		str	r2, [r0, #16]
  47:Core/Src/i2c.c ****   hi2c1.Init.DualAddressMode = I2C_DUALADDRESS_DISABLE;
  58              		.loc 1 47 3 is_stmt 1 view .LVU11
  59              		.loc 1 47 30 is_stmt 0 view .LVU12
  60 0018 4361     		str	r3, [r0, #20]
  48:Core/Src/i2c.c ****   hi2c1.Init.OwnAddress2 = 0;
  61              		.loc 1 48 3 is_stmt 1 view .LVU13
  62              		.loc 1 48 26 is_stmt 0 view .LVU14
  63 001a 8361     		str	r3, [r0, #24]
  49:Core/Src/i2c.c ****   hi2c1.Init.GeneralCallMode = I2C_GENERALCALL_DISABLE;
  64              		.loc 1 49 3 is_stmt 1 view .LVU15
  65              		.loc 1 49 30 is_stmt 0 view .LVU16
  66 001c C361     		str	r3, [r0, #28]
ARM GAS  /tmp/ccmzGtNJ.s 			page 3


  50:Core/Src/i2c.c ****   hi2c1.Init.NoStretchMode = I2C_NOSTRETCH_DISABLE;
  67              		.loc 1 50 3 is_stmt 1 view .LVU17
  68              		.loc 1 50 28 is_stmt 0 view .LVU18
  69 001e 0362     		str	r3, [r0, #32]
  51:Core/Src/i2c.c ****   if (HAL_I2C_Init(&hi2c1) != HAL_OK)
  70              		.loc 1 51 3 is_stmt 1 view .LVU19
  71              		.loc 1 51 7 is_stmt 0 view .LVU20
  72 0020 FFF7FEFF 		bl	HAL_I2C_Init
  73              	.LVL0:
  74              		.loc 1 51 6 view .LVU21
  75 0024 00B9     		cbnz	r0, .L4
  76              	.L1:
  52:Core/Src/i2c.c ****   {
  53:Core/Src/i2c.c ****     Error_Handler();
  54:Core/Src/i2c.c ****   }
  55:Core/Src/i2c.c ****   /* USER CODE BEGIN I2C1_Init 2 */
  56:Core/Src/i2c.c **** 
  57:Core/Src/i2c.c ****   /* I2C轮询模式 - 400 KHz Fast Mode */
  58:Core/Src/i2c.c ****   // 使用I2C_Protected函数包装，禁用I2S DMA中断期间传输
  59:Core/Src/i2c.c ****   // 避免I2S DMA干扰I2C时序
  60:Core/Src/i2c.c **** 
  61:Core/Src/i2c.c ****   /* USER CODE END I2C1_Init 2 */
  62:Core/Src/i2c.c **** 
  63:Core/Src/i2c.c **** }
  77              		.loc 1 63 1 view .LVU22
  78 0026 08BD     		pop	{r3, pc}
  79              	.L4:
  53:Core/Src/i2c.c ****   }
  80              		.loc 1 53 5 is_stmt 1 view .LVU23
  81 0028 FFF7FEFF 		bl	Error_Handler
  82              	.LVL1:
  83              		.loc 1 63 1 is_stmt 0 view .LVU24
  84 002c FBE7     		b	.L1
  85              	.L6:
  86 002e 00BF     		.align	2
  87              	.L5:
  88 0030 00000000 		.word	hi2c1
  89 0034 00540040 		.word	1073763328
  90 0038 801A0600 		.word	400000
  91              		.cfi_endproc
  92              	.LFE134:
  94              		.section	.text.HAL_I2C_MspInit,"ax",%progbits
  95              		.align	1
  96              		.global	HAL_I2C_MspInit
  97              		.syntax unified
  98              		.thumb
  99              		.thumb_func
 100              		.fpu fpv4-sp-d16
 102              	HAL_I2C_MspInit:
 103              	.LVL2:
 104              	.LFB135:
  64:Core/Src/i2c.c **** 
  65:Core/Src/i2c.c **** void HAL_I2C_MspInit(I2C_HandleTypeDef* i2cHandle)
  66:Core/Src/i2c.c **** {
 105              		.loc 1 66 1 is_stmt 1 view -0
 106              		.cfi_startproc
 107              		@ args = 0, pretend = 0, frame = 32
ARM GAS  /tmp/ccmzGtNJ.s 			page 4


 108              		@ frame_needed = 0, uses_anonymous_args = 0
 109              		.loc 1 66 1 is_stmt 0 view .LVU26
 110 0000 70B5     		push	{r4, r5, r6, lr}
 111              	.LCFI1:
 112              		.cfi_def_cfa_offset 16
 113              		.cfi_offset 4, -16
 114              		.cfi_offset 5, -12
 115              		.cfi_offset 6, -8
 116              		.cfi_offset 14, -4
 117 0002 88B0     		sub	sp, sp, #32
 118              	.LCFI2:
 119              		.cfi_def_cfa_offset 48
  67:Core/Src/i2c.c **** 
  68:Core/Src/i2c.c ****   GPIO_InitTypeDef GPIO_InitStruct = {0};
 120              		.loc 1 68 3 is_stmt 1 view .LVU27
 121              		.loc 1 68 20 is_stmt 0 view .LVU28
 122 0004 0023     		movs	r3, #0
 123 0006 0393     		str	r3, [sp, #12]
 124 0008 0493     		str	r3, [sp, #16]
 125 000a 0593     		str	r3, [sp, #20]
 126 000c 0693     		str	r3, [sp, #24]
 127 000e 0793     		str	r3, [sp, #28]
  69:Core/Src/i2c.c ****   if(i2cHandle->Instance==I2C1)
 128              		.loc 1 69 3 is_stmt 1 view .LVU29
 129              		.loc 1 69 15 is_stmt 0 view .LVU30
 130 0010 0268     		ldr	r2, [r0]
 131              		.loc 1 69 5 view .LVU31
 132 0012 1D4B     		ldr	r3, .L11
 133 0014 9A42     		cmp	r2, r3
 134 0016 01D0     		beq	.L10
 135              	.LVL3:
 136              	.L7:
  70:Core/Src/i2c.c ****   {
  71:Core/Src/i2c.c ****   /* USER CODE BEGIN I2C1_MspInit 0 */
  72:Core/Src/i2c.c **** 
  73:Core/Src/i2c.c ****   /* USER CODE END I2C1_MspInit 0 */
  74:Core/Src/i2c.c **** 
  75:Core/Src/i2c.c ****     __HAL_RCC_GPIOB_CLK_ENABLE();
  76:Core/Src/i2c.c ****     /**I2C1 GPIO Configuration
  77:Core/Src/i2c.c ****     PB6     ------> I2C1_SCL
  78:Core/Src/i2c.c ****     PB9     ------> I2C1_SDA
  79:Core/Src/i2c.c ****     */
  80:Core/Src/i2c.c ****     GPIO_InitStruct.Pin = GPIO_PIN_6|GPIO_PIN_9;
  81:Core/Src/i2c.c ****     GPIO_InitStruct.Mode = GPIO_MODE_AF_OD;
  82:Core/Src/i2c.c ****     GPIO_InitStruct.Pull = GPIO_NOPULL;
  83:Core/Src/i2c.c ****     GPIO_InitStruct.Speed = GPIO_SPEED_FREQ_VERY_HIGH;
  84:Core/Src/i2c.c ****     GPIO_InitStruct.Alternate = GPIO_AF4_I2C1;
  85:Core/Src/i2c.c ****     HAL_GPIO_Init(GPIOB, &GPIO_InitStruct);
  86:Core/Src/i2c.c **** 
  87:Core/Src/i2c.c ****     /* I2C1 clock enable */
  88:Core/Src/i2c.c ****     __HAL_RCC_I2C1_CLK_ENABLE();
  89:Core/Src/i2c.c **** 
  90:Core/Src/i2c.c ****     /* I2C1 interrupt Init - 轮询模式，不使用DMA */
  91:Core/Src/i2c.c ****     HAL_NVIC_SetPriority(I2C1_EV_IRQn, 4, 0);
  92:Core/Src/i2c.c ****     HAL_NVIC_EnableIRQ(I2C1_EV_IRQn);
  93:Core/Src/i2c.c ****     HAL_NVIC_SetPriority(I2C1_ER_IRQn, 4, 0);
  94:Core/Src/i2c.c ****     HAL_NVIC_EnableIRQ(I2C1_ER_IRQn);
ARM GAS  /tmp/ccmzGtNJ.s 			page 5


  95:Core/Src/i2c.c ****   /* USER CODE BEGIN I2C1_MspInit 1 */
  96:Core/Src/i2c.c **** 
  97:Core/Src/i2c.c ****   /* USER CODE END I2C1_MspInit 1 */
  98:Core/Src/i2c.c ****   }
  99:Core/Src/i2c.c **** }
 137              		.loc 1 99 1 view .LVU32
 138 0018 08B0     		add	sp, sp, #32
 139              	.LCFI3:
 140              		.cfi_remember_state
 141              		.cfi_def_cfa_offset 16
 142              		@ sp needed
 143 001a 70BD     		pop	{r4, r5, r6, pc}
 144              	.LVL4:
 145              	.L10:
 146              	.LCFI4:
 147              		.cfi_restore_state
  75:Core/Src/i2c.c ****     /**I2C1 GPIO Configuration
 148              		.loc 1 75 5 is_stmt 1 view .LVU33
 149              	.LBB2:
  75:Core/Src/i2c.c ****     /**I2C1 GPIO Configuration
 150              		.loc 1 75 5 view .LVU34
 151 001c 0025     		movs	r5, #0
 152 001e 0195     		str	r5, [sp, #4]
  75:Core/Src/i2c.c ****     /**I2C1 GPIO Configuration
 153              		.loc 1 75 5 view .LVU35
 154 0020 1A4C     		ldr	r4, .L11+4
 155 0022 236B     		ldr	r3, [r4, #48]
 156 0024 43F00203 		orr	r3, r3, #2
 157 0028 2363     		str	r3, [r4, #48]
  75:Core/Src/i2c.c ****     /**I2C1 GPIO Configuration
 158              		.loc 1 75 5 view .LVU36
 159 002a 236B     		ldr	r3, [r4, #48]
 160 002c 03F00203 		and	r3, r3, #2
 161 0030 0193     		str	r3, [sp, #4]
  75:Core/Src/i2c.c ****     /**I2C1 GPIO Configuration
 162              		.loc 1 75 5 view .LVU37
 163 0032 019B     		ldr	r3, [sp, #4]
 164              	.LBE2:
  75:Core/Src/i2c.c ****     /**I2C1 GPIO Configuration
 165              		.loc 1 75 5 view .LVU38
  80:Core/Src/i2c.c ****     GPIO_InitStruct.Mode = GPIO_MODE_AF_OD;
 166              		.loc 1 80 5 view .LVU39
  80:Core/Src/i2c.c ****     GPIO_InitStruct.Mode = GPIO_MODE_AF_OD;
 167              		.loc 1 80 25 is_stmt 0 view .LVU40
 168 0034 4FF41073 		mov	r3, #576
 169 0038 0393     		str	r3, [sp, #12]
  81:Core/Src/i2c.c ****     GPIO_InitStruct.Pull = GPIO_NOPULL;
 170              		.loc 1 81 5 is_stmt 1 view .LVU41
  81:Core/Src/i2c.c ****     GPIO_InitStruct.Pull = GPIO_NOPULL;
 171              		.loc 1 81 26 is_stmt 0 view .LVU42
 172 003a 1223     		movs	r3, #18
 173 003c 0493     		str	r3, [sp, #16]
  82:Core/Src/i2c.c ****     GPIO_InitStruct.Speed = GPIO_SPEED_FREQ_VERY_HIGH;
 174              		.loc 1 82 5 is_stmt 1 view .LVU43
  82:Core/Src/i2c.c ****     GPIO_InitStruct.Speed = GPIO_SPEED_FREQ_VERY_HIGH;
 175              		.loc 1 82 26 is_stmt 0 view .LVU44
 176 003e 0595     		str	r5, [sp, #20]
ARM GAS  /tmp/ccmzGtNJ.s 			page 6


  83:Core/Src/i2c.c ****     GPIO_InitStruct.Alternate = GPIO_AF4_I2C1;
 177              		.loc 1 83 5 is_stmt 1 view .LVU45
  83:Core/Src/i2c.c ****     GPIO_InitStruct.Alternate = GPIO_AF4_I2C1;
 178              		.loc 1 83 27 is_stmt 0 view .LVU46
 179 0040 0323     		movs	r3, #3
 180 0042 0693     		str	r3, [sp, #24]
  84:Core/Src/i2c.c ****     HAL_GPIO_Init(GPIOB, &GPIO_InitStruct);
 181              		.loc 1 84 5 is_stmt 1 view .LVU47
  84:Core/Src/i2c.c ****     HAL_GPIO_Init(GPIOB, &GPIO_InitStruct);
 182              		.loc 1 84 31 is_stmt 0 view .LVU48
 183 0044 0426     		movs	r6, #4
 184 0046 0796     		str	r6, [sp, #28]
  85:Core/Src/i2c.c **** 
 185              		.loc 1 85 5 is_stmt 1 view .LVU49
 186 0048 03A9     		add	r1, sp, #12
 187 004a 1148     		ldr	r0, .L11+8
 188              	.LVL5:
  85:Core/Src/i2c.c **** 
 189              		.loc 1 85 5 is_stmt 0 view .LVU50
 190 004c FFF7FEFF 		bl	HAL_GPIO_Init
 191              	.LVL6:
  88:Core/Src/i2c.c **** 
 192              		.loc 1 88 5 is_stmt 1 view .LVU51
 193              	.LBB3:
  88:Core/Src/i2c.c **** 
 194              		.loc 1 88 5 view .LVU52
 195 0050 0295     		str	r5, [sp, #8]
  88:Core/Src/i2c.c **** 
 196              		.loc 1 88 5 view .LVU53
 197 0052 236C     		ldr	r3, [r4, #64]
 198 0054 43F40013 		orr	r3, r3, #2097152
 199 0058 2364     		str	r3, [r4, #64]
  88:Core/Src/i2c.c **** 
 200              		.loc 1 88 5 view .LVU54
 201 005a 236C     		ldr	r3, [r4, #64]
 202 005c 03F40013 		and	r3, r3, #2097152
 203 0060 0293     		str	r3, [sp, #8]
  88:Core/Src/i2c.c **** 
 204              		.loc 1 88 5 view .LVU55
 205 0062 029B     		ldr	r3, [sp, #8]
 206              	.LBE3:
  88:Core/Src/i2c.c **** 
 207              		.loc 1 88 5 view .LVU56
  91:Core/Src/i2c.c ****     HAL_NVIC_EnableIRQ(I2C1_EV_IRQn);
 208              		.loc 1 91 5 view .LVU57
 209 0064 2A46     		mov	r2, r5
 210 0066 3146     		mov	r1, r6
 211 0068 1F20     		movs	r0, #31
 212 006a FFF7FEFF 		bl	HAL_NVIC_SetPriority
 213              	.LVL7:
  92:Core/Src/i2c.c ****     HAL_NVIC_SetPriority(I2C1_ER_IRQn, 4, 0);
 214              		.loc 1 92 5 view .LVU58
 215 006e 1F20     		movs	r0, #31
 216 0070 FFF7FEFF 		bl	HAL_NVIC_EnableIRQ
 217              	.LVL8:
  93:Core/Src/i2c.c ****     HAL_NVIC_EnableIRQ(I2C1_ER_IRQn);
 218              		.loc 1 93 5 view .LVU59
ARM GAS  /tmp/ccmzGtNJ.s 			page 7


 219 0074 2A46     		mov	r2, r5
 220 0076 3146     		mov	r1, r6
 221 0078 2020     		movs	r0, #32
 222 007a FFF7FEFF 		bl	HAL_NVIC_SetPriority
 223              	.LVL9:
  94:Core/Src/i2c.c ****   /* USER CODE BEGIN I2C1_MspInit 1 */
 224              		.loc 1 94 5 view .LVU60
 225 007e 2020     		movs	r0, #32
 226 0080 FFF7FEFF 		bl	HAL_NVIC_EnableIRQ
 227              	.LVL10:
 228              		.loc 1 99 1 is_stmt 0 view .LVU61
 229 0084 C8E7     		b	.L7
 230              	.L12:
 231 0086 00BF     		.align	2
 232              	.L11:
 233 0088 00540040 		.word	1073763328
 234 008c 00380240 		.word	1073887232
 235 0090 00040240 		.word	1073873920
 236              		.cfi_endproc
 237              	.LFE135:
 239              		.section	.text.HAL_I2C_MspDeInit,"ax",%progbits
 240              		.align	1
 241              		.global	HAL_I2C_MspDeInit
 242              		.syntax unified
 243              		.thumb
 244              		.thumb_func
 245              		.fpu fpv4-sp-d16
 247              	HAL_I2C_MspDeInit:
 248              	.LVL11:
 249              	.LFB136:
 100:Core/Src/i2c.c **** 
 101:Core/Src/i2c.c **** void HAL_I2C_MspDeInit(I2C_HandleTypeDef* i2cHandle)
 102:Core/Src/i2c.c **** {
 250              		.loc 1 102 1 is_stmt 1 view -0
 251              		.cfi_startproc
 252              		@ args = 0, pretend = 0, frame = 0
 253              		@ frame_needed = 0, uses_anonymous_args = 0
 103:Core/Src/i2c.c **** 
 104:Core/Src/i2c.c ****   if(i2cHandle->Instance==I2C1)
 254              		.loc 1 104 3 view .LVU63
 255              		.loc 1 104 15 is_stmt 0 view .LVU64
 256 0000 0268     		ldr	r2, [r0]
 257              		.loc 1 104 5 view .LVU65
 258 0002 0D4B     		ldr	r3, .L20
 259 0004 9A42     		cmp	r2, r3
 260 0006 00D0     		beq	.L19
 261 0008 7047     		bx	lr
 262              	.L19:
 102:Core/Src/i2c.c **** 
 263              		.loc 1 102 1 view .LVU66
 264 000a 10B5     		push	{r4, lr}
 265              	.LCFI5:
 266              		.cfi_def_cfa_offset 8
 267              		.cfi_offset 4, -8
 268              		.cfi_offset 14, -4
 105:Core/Src/i2c.c ****   {
 106:Core/Src/i2c.c ****   /* USER CODE BEGIN I2C1_MspDeInit 0 */
ARM GAS  /tmp/ccmzGtNJ.s 			page 8


 107:Core/Src/i2c.c **** 
 108:Core/Src/i2c.c ****   /* USER CODE END I2C1_MspDeInit 0 */
 109:Core/Src/i2c.c ****     /* Peripheral clock disable */
 110:Core/Src/i2c.c ****     __HAL_RCC_I2C1_CLK_DISABLE();
 269              		.loc 1 110 5 is_stmt 1 view .LVU67
 270 000c 0B4A     		ldr	r2, .L20+4
 271 000e 136C     		ldr	r3, [r2, #64]
 272 0010 23F40013 		bic	r3, r3, #2097152
 273 0014 1364     		str	r3, [r2, #64]
 111:Core/Src/i2c.c **** 
 112:Core/Src/i2c.c ****     /**I2C1 GPIO Configuration
 113:Core/Src/i2c.c ****     PB6     ------> I2C1_SCL
 114:Core/Src/i2c.c ****     PB9     ------> I2C1_SDA
 115:Core/Src/i2c.c ****     */
 116:Core/Src/i2c.c ****     HAL_GPIO_DeInit(GPIOB, GPIO_PIN_6);
 274              		.loc 1 116 5 view .LVU68
 275 0016 0A4C     		ldr	r4, .L20+8
 276 0018 4021     		movs	r1, #64
 277 001a 2046     		mov	r0, r4
 278              	.LVL12:
 279              		.loc 1 116 5 is_stmt 0 view .LVU69
 280 001c FFF7FEFF 		bl	HAL_GPIO_DeInit
 281              	.LVL13:
 117:Core/Src/i2c.c **** 
 118:Core/Src/i2c.c ****     HAL_GPIO_DeInit(GPIOB, GPIO_PIN_9);
 282              		.loc 1 118 5 is_stmt 1 view .LVU70
 283 0020 4FF40071 		mov	r1, #512
 284 0024 2046     		mov	r0, r4
 285 0026 FFF7FEFF 		bl	HAL_GPIO_DeInit
 286              	.LVL14:
 119:Core/Src/i2c.c **** 
 120:Core/Src/i2c.c ****     /* I2C1 interrupt Deinit */
 121:Core/Src/i2c.c ****     HAL_NVIC_DisableIRQ(I2C1_EV_IRQn);
 287              		.loc 1 121 5 view .LVU71
 288 002a 1F20     		movs	r0, #31
 289 002c FFF7FEFF 		bl	HAL_NVIC_DisableIRQ
 290              	.LVL15:
 122:Core/Src/i2c.c ****     HAL_NVIC_DisableIRQ(I2C1_ER_IRQn);
 291              		.loc 1 122 5 view .LVU72
 292 0030 2020     		movs	r0, #32
 293 0032 FFF7FEFF 		bl	HAL_NVIC_DisableIRQ
 294              	.LVL16:
 123:Core/Src/i2c.c ****   /* USER CODE BEGIN I2C1_MspDeInit 1 */
 124:Core/Src/i2c.c **** 
 125:Core/Src/i2c.c ****   /* USER CODE END I2C1_MspDeInit 1 */
 126:Core/Src/i2c.c ****   }
 127:Core/Src/i2c.c **** }
 295              		.loc 1 127 1 is_stmt 0 view .LVU73
 296 0036 10BD     		pop	{r4, pc}
 297              	.L21:
 298              		.align	2
 299              	.L20:
 300 0038 00540040 		.word	1073763328
 301 003c 00380240 		.word	1073887232
 302 0040 00040240 		.word	1073873920
 303              		.cfi_endproc
 304              	.LFE136:
ARM GAS  /tmp/ccmzGtNJ.s 			page 9


 306              		.section	.text.I2C_BusRecover,"ax",%progbits
 307              		.align	1
 308              		.global	I2C_BusRecover
 309              		.syntax unified
 310              		.thumb
 311              		.thumb_func
 312              		.fpu fpv4-sp-d16
 314              	I2C_BusRecover:
 315              	.LFB137:
 128:Core/Src/i2c.c **** 
 129:Core/Src/i2c.c **** /* USER CODE BEGIN 1 */
 130:Core/Src/i2c.c **** 
 131:Core/Src/i2c.c **** /**
 132:Core/Src/i2c.c ****  * @brief  Recover I2C bus from stuck state
 133:Core/Src/i2c.c ****  * @note   Call this if I2C communication fails repeatedly
 134:Core/Src/i2c.c ****  * @retval None
 135:Core/Src/i2c.c ****  */
 136:Core/Src/i2c.c **** void I2C_BusRecover(void)
 137:Core/Src/i2c.c **** {
 316              		.loc 1 137 1 is_stmt 1 view -0
 317              		.cfi_startproc
 318              		@ args = 0, pretend = 0, frame = 24
 319              		@ frame_needed = 0, uses_anonymous_args = 0
 320 0000 30B5     		push	{r4, r5, lr}
 321              	.LCFI6:
 322              		.cfi_def_cfa_offset 12
 323              		.cfi_offset 4, -12
 324              		.cfi_offset 5, -8
 325              		.cfi_offset 14, -4
 326 0002 87B0     		sub	sp, sp, #28
 327              	.LCFI7:
 328              		.cfi_def_cfa_offset 40
 138:Core/Src/i2c.c ****   GPIO_InitTypeDef GPIO_InitStruct = {0};
 329              		.loc 1 138 3 view .LVU75
 330              		.loc 1 138 20 is_stmt 0 view .LVU76
 331 0004 0024     		movs	r4, #0
 332 0006 0594     		str	r4, [sp, #20]
 139:Core/Src/i2c.c **** 
 140:Core/Src/i2c.c ****   // Disable I2C peripheral
 141:Core/Src/i2c.c ****   __HAL_RCC_I2C1_CLK_DISABLE();
 333              		.loc 1 141 3 is_stmt 1 view .LVU77
 334 0008 2E4A     		ldr	r2, .L26
 335 000a 136C     		ldr	r3, [r2, #64]
 336 000c 23F40013 		bic	r3, r3, #2097152
 337 0010 1364     		str	r3, [r2, #64]
 142:Core/Src/i2c.c **** 
 143:Core/Src/i2c.c ****   // Configure SCL and SDA as GPIO outputs
 144:Core/Src/i2c.c ****   GPIO_InitStruct.Pin = GPIO_PIN_6 | GPIO_PIN_9;
 338              		.loc 1 144 3 view .LVU78
 339              		.loc 1 144 23 is_stmt 0 view .LVU79
 340 0012 4FF41073 		mov	r3, #576
 341 0016 0193     		str	r3, [sp, #4]
 145:Core/Src/i2c.c ****   GPIO_InitStruct.Mode = GPIO_MODE_OUTPUT_OD;
 342              		.loc 1 145 3 is_stmt 1 view .LVU80
 343              		.loc 1 145 24 is_stmt 0 view .LVU81
 344 0018 1123     		movs	r3, #17
 345 001a 0293     		str	r3, [sp, #8]
ARM GAS  /tmp/ccmzGtNJ.s 			page 10


 146:Core/Src/i2c.c ****   GPIO_InitStruct.Pull = GPIO_NOPULL;
 346              		.loc 1 146 3 is_stmt 1 view .LVU82
 347              		.loc 1 146 24 is_stmt 0 view .LVU83
 348 001c 0394     		str	r4, [sp, #12]
 147:Core/Src/i2c.c ****   GPIO_InitStruct.Speed = GPIO_SPEED_FREQ_HIGH;
 349              		.loc 1 147 3 is_stmt 1 view .LVU84
 350              		.loc 1 147 25 is_stmt 0 view .LVU85
 351 001e 0223     		movs	r3, #2
 352 0020 0493     		str	r3, [sp, #16]
 148:Core/Src/i2c.c ****   HAL_GPIO_Init(GPIOB, &GPIO_InitStruct);
 353              		.loc 1 148 3 is_stmt 1 view .LVU86
 354 0022 01A9     		add	r1, sp, #4
 355 0024 2848     		ldr	r0, .L26+4
 356 0026 FFF7FEFF 		bl	HAL_GPIO_Init
 357              	.LVL17:
 149:Core/Src/i2c.c **** 
 150:Core/Src/i2c.c ****   // Generate 9 clock pulses to clear any stuck slave
 151:Core/Src/i2c.c ****   for (int i = 0; i < 9; i++) {
 358              		.loc 1 151 3 view .LVU87
 359              	.LBB4:
 360              		.loc 1 151 8 view .LVU88
 361              		.loc 1 151 3 is_stmt 0 view .LVU89
 362 002a 11E0     		b	.L23
 363              	.LVL18:
 364              	.L24:
 152:Core/Src/i2c.c ****     HAL_GPIO_WritePin(GPIOB, GPIO_PIN_6, GPIO_PIN_RESET);  // SCL low
 365              		.loc 1 152 5 is_stmt 1 discriminator 3 view .LVU90
 366 002c 264D     		ldr	r5, .L26+4
 367 002e 0022     		movs	r2, #0
 368 0030 4021     		movs	r1, #64
 369 0032 2846     		mov	r0, r5
 370 0034 FFF7FEFF 		bl	HAL_GPIO_WritePin
 371              	.LVL19:
 153:Core/Src/i2c.c ****     HAL_Delay(1);
 372              		.loc 1 153 5 discriminator 3 view .LVU91
 373 0038 0120     		movs	r0, #1
 374 003a FFF7FEFF 		bl	HAL_Delay
 375              	.LVL20:
 154:Core/Src/i2c.c ****     HAL_GPIO_WritePin(GPIOB, GPIO_PIN_6, GPIO_PIN_SET);    // SCL high
 376              		.loc 1 154 5 discriminator 3 view .LVU92
 377 003e 0122     		movs	r2, #1
 378 0040 4021     		movs	r1, #64
 379 0042 2846     		mov	r0, r5
 380 0044 FFF7FEFF 		bl	HAL_GPIO_WritePin
 381              	.LVL21:
 155:Core/Src/i2c.c ****     HAL_Delay(1);
 382              		.loc 1 155 5 discriminator 3 view .LVU93
 383 0048 0120     		movs	r0, #1
 384 004a FFF7FEFF 		bl	HAL_Delay
 385              	.LVL22:
 151:Core/Src/i2c.c ****     HAL_GPIO_WritePin(GPIOB, GPIO_PIN_6, GPIO_PIN_RESET);  // SCL low
 386              		.loc 1 151 26 discriminator 3 view .LVU94
 151:Core/Src/i2c.c ****     HAL_GPIO_WritePin(GPIOB, GPIO_PIN_6, GPIO_PIN_RESET);  // SCL low
 387              		.loc 1 151 27 is_stmt 0 discriminator 3 view .LVU95
 388 004e 0134     		adds	r4, r4, #1
 389              	.LVL23:
 390              	.L23:
ARM GAS  /tmp/ccmzGtNJ.s 			page 11


 151:Core/Src/i2c.c ****     HAL_GPIO_WritePin(GPIOB, GPIO_PIN_6, GPIO_PIN_RESET);  // SCL low
 391              		.loc 1 151 19 is_stmt 1 discriminator 1 view .LVU96
 151:Core/Src/i2c.c ****     HAL_GPIO_WritePin(GPIOB, GPIO_PIN_6, GPIO_PIN_RESET);  // SCL low
 392              		.loc 1 151 3 is_stmt 0 discriminator 1 view .LVU97
 393 0050 082C     		cmp	r4, #8
 394 0052 EBDD     		ble	.L24
 395              	.LBE4:
 156:Core/Src/i2c.c ****   }
 157:Core/Src/i2c.c **** 
 158:Core/Src/i2c.c ****   // Send STOP condition
 159:Core/Src/i2c.c ****   HAL_GPIO_WritePin(GPIOB, GPIO_PIN_9, GPIO_PIN_RESET);  // SDA low
 396              		.loc 1 159 3 is_stmt 1 view .LVU98
 397 0054 1C4C     		ldr	r4, .L26+4
 398              	.LVL24:
 399              		.loc 1 159 3 is_stmt 0 view .LVU99
 400 0056 0022     		movs	r2, #0
 401 0058 4FF40071 		mov	r1, #512
 402 005c 2046     		mov	r0, r4
 403 005e FFF7FEFF 		bl	HAL_GPIO_WritePin
 404              	.LVL25:
 160:Core/Src/i2c.c ****   HAL_Delay(1);
 405              		.loc 1 160 3 is_stmt 1 view .LVU100
 406 0062 0120     		movs	r0, #1
 407 0064 FFF7FEFF 		bl	HAL_Delay
 408              	.LVL26:
 161:Core/Src/i2c.c ****   HAL_GPIO_WritePin(GPIOB, GPIO_PIN_6, GPIO_PIN_SET);    // SCL high
 409              		.loc 1 161 3 view .LVU101
 410 0068 0122     		movs	r2, #1
 411 006a 4021     		movs	r1, #64
 412 006c 2046     		mov	r0, r4
 413 006e FFF7FEFF 		bl	HAL_GPIO_WritePin
 414              	.LVL27:
 162:Core/Src/i2c.c ****   HAL_Delay(1);
 415              		.loc 1 162 3 view .LVU102
 416 0072 0120     		movs	r0, #1
 417 0074 FFF7FEFF 		bl	HAL_Delay
 418              	.LVL28:
 163:Core/Src/i2c.c ****   HAL_GPIO_WritePin(GPIOB, GPIO_PIN_9, GPIO_PIN_SET);    // SDA high (STOP)
 419              		.loc 1 163 3 view .LVU103
 420 0078 0122     		movs	r2, #1
 421 007a 4FF40071 		mov	r1, #512
 422 007e 2046     		mov	r0, r4
 423 0080 FFF7FEFF 		bl	HAL_GPIO_WritePin
 424              	.LVL29:
 164:Core/Src/i2c.c ****   HAL_Delay(1);
 425              		.loc 1 164 3 view .LVU104
 426 0084 0120     		movs	r0, #1
 427 0086 FFF7FEFF 		bl	HAL_Delay
 428              	.LVL30:
 165:Core/Src/i2c.c **** 
 166:Core/Src/i2c.c ****   // Reconfigure as I2C
 167:Core/Src/i2c.c ****   GPIO_InitStruct.Pin = GPIO_PIN_6 | GPIO_PIN_9;
 429              		.loc 1 167 3 view .LVU105
 430              		.loc 1 167 23 is_stmt 0 view .LVU106
 431 008a 4FF41073 		mov	r3, #576
 432 008e 0193     		str	r3, [sp, #4]
 168:Core/Src/i2c.c ****   GPIO_InitStruct.Mode = GPIO_MODE_AF_OD;
ARM GAS  /tmp/ccmzGtNJ.s 			page 12


 433              		.loc 1 168 3 is_stmt 1 view .LVU107
 434              		.loc 1 168 24 is_stmt 0 view .LVU108
 435 0090 1223     		movs	r3, #18
 436 0092 0293     		str	r3, [sp, #8]
 169:Core/Src/i2c.c ****   GPIO_InitStruct.Pull = GPIO_NOPULL;
 437              		.loc 1 169 3 is_stmt 1 view .LVU109
 438              		.loc 1 169 24 is_stmt 0 view .LVU110
 439 0094 0025     		movs	r5, #0
 440 0096 0395     		str	r5, [sp, #12]
 170:Core/Src/i2c.c ****   GPIO_InitStruct.Speed = GPIO_SPEED_FREQ_VERY_HIGH;
 441              		.loc 1 170 3 is_stmt 1 view .LVU111
 442              		.loc 1 170 25 is_stmt 0 view .LVU112
 443 0098 0323     		movs	r3, #3
 444 009a 0493     		str	r3, [sp, #16]
 171:Core/Src/i2c.c ****   GPIO_InitStruct.Alternate = GPIO_AF4_I2C1;
 445              		.loc 1 171 3 is_stmt 1 view .LVU113
 446              		.loc 1 171 29 is_stmt 0 view .LVU114
 447 009c 0423     		movs	r3, #4
 448 009e 0593     		str	r3, [sp, #20]
 172:Core/Src/i2c.c ****   HAL_GPIO_Init(GPIOB, &GPIO_InitStruct);
 449              		.loc 1 172 3 is_stmt 1 view .LVU115
 450 00a0 0DEB0301 		add	r1, sp, r3
 451 00a4 2046     		mov	r0, r4
 452 00a6 FFF7FEFF 		bl	HAL_GPIO_Init
 453              	.LVL31:
 173:Core/Src/i2c.c **** 
 174:Core/Src/i2c.c ****   // Re-enable I2C peripheral
 175:Core/Src/i2c.c ****   __HAL_RCC_I2C1_CLK_ENABLE();
 454              		.loc 1 175 3 view .LVU116
 455              	.LBB5:
 456              		.loc 1 175 3 view .LVU117
 457 00aa 0095     		str	r5, [sp]
 458              		.loc 1 175 3 view .LVU118
 459 00ac 054B     		ldr	r3, .L26
 460 00ae 1A6C     		ldr	r2, [r3, #64]
 461 00b0 42F40012 		orr	r2, r2, #2097152
 462 00b4 1A64     		str	r2, [r3, #64]
 463              		.loc 1 175 3 view .LVU119
 464 00b6 1B6C     		ldr	r3, [r3, #64]
 465 00b8 03F40013 		and	r3, r3, #2097152
 466 00bc 0093     		str	r3, [sp]
 467              		.loc 1 175 3 view .LVU120
 468 00be 009B     		ldr	r3, [sp]
 469              	.LBE5:
 470              		.loc 1 175 3 view .LVU121
 176:Core/Src/i2c.c **** }
 471              		.loc 1 176 1 is_stmt 0 view .LVU122
 472 00c0 07B0     		add	sp, sp, #28
 473              	.LCFI8:
 474              		.cfi_def_cfa_offset 12
 475              		@ sp needed
 476 00c2 30BD     		pop	{r4, r5, pc}
 477              	.L27:
 478              		.align	2
 479              	.L26:
 480 00c4 00380240 		.word	1073887232
 481 00c8 00040240 		.word	1073873920
ARM GAS  /tmp/ccmzGtNJ.s 			page 13


 482              		.cfi_endproc
 483              	.LFE137:
 485              		.comm	hdma_i2c1_tx,96,4
 486              		.comm	hdma_i2c1_rx,96,4
 487              		.comm	hi2c1,84,4
 488              		.text
 489              	.Letext0:
 490              		.file 2 "/usr/lib/gcc/arm-none-eabi/9.2.1/include/stdint.h"
 491              		.file 3 "Drivers/CMSIS/Include/core_cm4.h"
 492              		.file 4 "Drivers/CMSIS/Device/ST/STM32F4xx/Include/system_stm32f4xx.h"
 493              		.file 5 "Drivers/CMSIS/Device/ST/STM32F4xx/Include/stm32f446xx.h"
 494              		.file 6 "Drivers/STM32F4xx_HAL_Driver/Inc/stm32f4xx_hal_def.h"
 495              		.file 7 "Drivers/STM32F4xx_HAL_Driver/Inc/stm32f4xx_hal_gpio.h"
 496              		.file 8 "Drivers/STM32F4xx_HAL_Driver/Inc/stm32f4xx_hal_dma.h"
 497              		.file 9 "Drivers/STM32F4xx_HAL_Driver/Inc/stm32f4xx_hal_i2c.h"
 498              		.file 10 "Drivers/STM32F4xx_HAL_Driver/Inc/stm32f4xx_hal.h"
 499              		.file 11 "Core/Inc/i2c.h"
 500              		.file 12 "Drivers/STM32F4xx_HAL_Driver/Inc/stm32f4xx_hal_cortex.h"
 501              		.file 13 "Core/Inc/main.h"
ARM GAS  /tmp/ccmzGtNJ.s 			page 14

