ARM GAS  /tmp/ccn5fWHB.s 			page 1


   1              		.cpu cortex-m4
   2              		.arch armv7e-m
   3              		.fpu fpv4-sp-d16
   4              		.eabi_attribute 27, 1
   5              		.eabi_attribute 28, 1
   6              		.eabi_attribute 20, 1
   7              		.eabi_attribute 21, 1
   8              		.eabi_attribute 23, 3
   9              		.eabi_attribute 24, 1
  10              		.eabi_attribute 25, 1
  11              		.eabi_attribute 26, 1
  12              		.eabi_attribute 30, 1
  13              		.eabi_attribute 34, 1
  14              		.eabi_attribute 18, 4
  15              		.file	"methods.c"
  16              		.text
  17              	.Ltext0:
  18              		.cfi_sections	.debug_frame
  19              		.file 1 "Core/Src/methods.c"
  20              		.section	.text.RGB_LED_Init,"ax",%progbits
  21              		.align	1
  22              		.global	RGB_LED_Init
  23              		.syntax unified
  24              		.thumb
  25              		.thumb_func
  27              	RGB_LED_Init:
  28              	.LFB138:
   1:Core/Src/methods.c **** #include "methods.h"
   2:Core/Src/methods.c **** #include <stdarg.h>
   3:Core/Src/methods.c **** 
   4:Core/Src/methods.c **** 
   5:Core/Src/methods.c **** 
   6:Core/Src/methods.c **** 
   7:Core/Src/methods.c **** void RGB_LED_Init(void)
   8:Core/Src/methods.c **** {
  29              		.loc 1 8 1 view -0
  30              		.cfi_startproc
  31              		@ args = 0, pretend = 0, frame = 24
  32              		@ frame_needed = 0, uses_anonymous_args = 0
  33 0000 70B5     		push	{r4, r5, r6, lr}
  34              	.LCFI0:
  35              		.cfi_def_cfa_offset 16
  36              		.cfi_offset 4, -16
  37              		.cfi_offset 5, -12
  38              		.cfi_offset 6, -8
  39              		.cfi_offset 14, -4
  40 0002 86B0     		sub	sp, sp, #24
  41              	.LCFI1:
  42              		.cfi_def_cfa_offset 40
   9:Core/Src/methods.c ****     GPIO_InitTypeDef GPIO_InitStruct = {0};
  43              		.loc 1 9 5 view .LVU1
  44              		.loc 1 9 22 is_stmt 0 view .LVU2
  45 0004 0024     		movs	r4, #0
  46 0006 0194     		str	r4, [sp, #4]
  47 0008 0294     		str	r4, [sp, #8]
  48 000a 0394     		str	r4, [sp, #12]
  49 000c 0494     		str	r4, [sp, #16]
ARM GAS  /tmp/ccn5fWHB.s 			page 2


  50 000e 0594     		str	r4, [sp, #20]
  10:Core/Src/methods.c **** 
  11:Core/Src/methods.c ****     // Enable GPIOC clock
  12:Core/Src/methods.c ****     __HAL_RCC_GPIOC_CLK_ENABLE();
  51              		.loc 1 12 5 is_stmt 1 view .LVU3
  52              	.LBB2:
  53              		.loc 1 12 5 view .LVU4
  54 0010 0094     		str	r4, [sp]
  55              		.loc 1 12 5 view .LVU5
  56 0012 0D4B     		ldr	r3, .L3
  57 0014 1A6B     		ldr	r2, [r3, #48]
  58 0016 42F00402 		orr	r2, r2, #4
  59 001a 1A63     		str	r2, [r3, #48]
  60              		.loc 1 12 5 view .LVU6
  61 001c 1B6B     		ldr	r3, [r3, #48]
  62 001e 03F00403 		and	r3, r3, #4
  63 0022 0093     		str	r3, [sp]
  64              		.loc 1 12 5 view .LVU7
  65 0024 009B     		ldr	r3, [sp]
  66              	.LBE2:
  67              		.loc 1 12 5 view .LVU8
  13:Core/Src/methods.c **** 
  14:Core/Src/methods.c ****     // Configure PC0, PC1, PC2 as output pins
  15:Core/Src/methods.c ****     GPIO_InitStruct.Pin = GPIO_PIN_0 | GPIO_PIN_1 | GPIO_PIN_2;
  68              		.loc 1 15 5 view .LVU9
  69              		.loc 1 15 25 is_stmt 0 view .LVU10
  70 0026 0726     		movs	r6, #7
  71 0028 0196     		str	r6, [sp, #4]
  16:Core/Src/methods.c ****     GPIO_InitStruct.Mode = GPIO_MODE_OUTPUT_PP;
  72              		.loc 1 16 5 is_stmt 1 view .LVU11
  73              		.loc 1 16 26 is_stmt 0 view .LVU12
  74 002a 0123     		movs	r3, #1
  75 002c 0293     		str	r3, [sp, #8]
  17:Core/Src/methods.c ****     GPIO_InitStruct.Pull = GPIO_NOPULL;
  76              		.loc 1 17 5 is_stmt 1 view .LVU13
  18:Core/Src/methods.c ****     GPIO_InitStruct.Speed = GPIO_SPEED_FREQ_LOW;
  77              		.loc 1 18 5 view .LVU14
  19:Core/Src/methods.c ****     HAL_GPIO_Init(GPIOC, &GPIO_InitStruct);
  78              		.loc 1 19 5 view .LVU15
  79 002e 074D     		ldr	r5, .L3+4
  80 0030 01A9     		add	r1, sp, #4
  81 0032 2846     		mov	r0, r5
  82 0034 FFF7FEFF 		bl	HAL_GPIO_Init
  83              	.LVL0:
  20:Core/Src/methods.c **** 
  21:Core/Src/methods.c ****     // Turn off all LEDs initially
  22:Core/Src/methods.c ****     HAL_GPIO_WritePin(GPIOC, GPIO_PIN_0 | GPIO_PIN_1 | GPIO_PIN_2, GPIO_PIN_RESET);
  84              		.loc 1 22 5 view .LVU16
  85 0038 2246     		mov	r2, r4
  86 003a 3146     		mov	r1, r6
  87 003c 2846     		mov	r0, r5
  88 003e FFF7FEFF 		bl	HAL_GPIO_WritePin
  89              	.LVL1:
  23:Core/Src/methods.c **** }
  90              		.loc 1 23 1 is_stmt 0 view .LVU17
  91 0042 06B0     		add	sp, sp, #24
  92              	.LCFI2:
ARM GAS  /tmp/ccn5fWHB.s 			page 3


  93              		.cfi_def_cfa_offset 16
  94              		@ sp needed
  95 0044 70BD     		pop	{r4, r5, r6, pc}
  96              	.L4:
  97 0046 00BF     		.align	2
  98              	.L3:
  99 0048 00380240 		.word	1073887232
 100 004c 00080240 		.word	1073874944
 101              		.cfi_endproc
 102              	.LFE138:
 104              		.section	.text.RGB_LED_Blink,"ax",%progbits
 105              		.align	1
 106              		.global	RGB_LED_Blink
 107              		.syntax unified
 108              		.thumb
 109              		.thumb_func
 111              	RGB_LED_Blink:
 112              	.LFB139:
  24:Core/Src/methods.c **** void RGB_LED_Blink(void)
  25:Core/Src/methods.c **** {
 113              		.loc 1 25 1 is_stmt 1 view -0
 114              		.cfi_startproc
 115              		@ args = 0, pretend = 0, frame = 0
 116              		@ frame_needed = 0, uses_anonymous_args = 0
 117 0000 10B5     		push	{r4, lr}
 118              	.LCFI3:
 119              		.cfi_def_cfa_offset 8
 120              		.cfi_offset 4, -8
 121              		.cfi_offset 14, -4
  26:Core/Src/methods.c ****     // Red
  27:Core/Src/methods.c ****     HAL_GPIO_WritePin(GPIOC, GPIO_PIN_0, GPIO_PIN_SET);
 122              		.loc 1 27 5 view .LVU19
 123 0002 144C     		ldr	r4, .L7
 124 0004 0122     		movs	r2, #1
 125 0006 1146     		mov	r1, r2
 126 0008 2046     		mov	r0, r4
 127 000a FFF7FEFF 		bl	HAL_GPIO_WritePin
 128              	.LVL2:
  28:Core/Src/methods.c ****     HAL_GPIO_WritePin(GPIOC, GPIO_PIN_1 | GPIO_PIN_2, GPIO_PIN_RESET);
 129              		.loc 1 28 5 view .LVU20
 130 000e 0022     		movs	r2, #0
 131 0010 0621     		movs	r1, #6
 132 0012 2046     		mov	r0, r4
 133 0014 FFF7FEFF 		bl	HAL_GPIO_WritePin
 134              	.LVL3:
  29:Core/Src/methods.c ****     HAL_Delay(100);
 135              		.loc 1 29 5 view .LVU21
 136 0018 6420     		movs	r0, #100
 137 001a FFF7FEFF 		bl	HAL_Delay
 138              	.LVL4:
  30:Core/Src/methods.c **** 
  31:Core/Src/methods.c ****     // Green
  32:Core/Src/methods.c ****     HAL_GPIO_WritePin(GPIOC, GPIO_PIN_1, GPIO_PIN_SET);
 139              		.loc 1 32 5 view .LVU22
 140 001e 0122     		movs	r2, #1
 141 0020 0221     		movs	r1, #2
 142 0022 2046     		mov	r0, r4
ARM GAS  /tmp/ccn5fWHB.s 			page 4


 143 0024 FFF7FEFF 		bl	HAL_GPIO_WritePin
 144              	.LVL5:
  33:Core/Src/methods.c ****     HAL_GPIO_WritePin(GPIOC, GPIO_PIN_0 | GPIO_PIN_2, GPIO_PIN_RESET);
 145              		.loc 1 33 5 view .LVU23
 146 0028 0022     		movs	r2, #0
 147 002a 0521     		movs	r1, #5
 148 002c 2046     		mov	r0, r4
 149 002e FFF7FEFF 		bl	HAL_GPIO_WritePin
 150              	.LVL6:
  34:Core/Src/methods.c ****     HAL_Delay(100);
 151              		.loc 1 34 5 view .LVU24
 152 0032 6420     		movs	r0, #100
 153 0034 FFF7FEFF 		bl	HAL_Delay
 154              	.LVL7:
  35:Core/Src/methods.c **** 
  36:Core/Src/methods.c ****     // Blue
  37:Core/Src/methods.c ****     HAL_GPIO_WritePin(GPIOC, GPIO_PIN_2, GPIO_PIN_SET);
 155              		.loc 1 37 5 view .LVU25
 156 0038 0122     		movs	r2, #1
 157 003a 0421     		movs	r1, #4
 158 003c 2046     		mov	r0, r4
 159 003e FFF7FEFF 		bl	HAL_GPIO_WritePin
 160              	.LVL8:
  38:Core/Src/methods.c ****     HAL_GPIO_WritePin(GPIOC, GPIO_PIN_0 | GPIO_PIN_1, GPIO_PIN_RESET);
 161              		.loc 1 38 5 view .LVU26
 162 0042 0022     		movs	r2, #0
 163 0044 0321     		movs	r1, #3
 164 0046 2046     		mov	r0, r4
 165 0048 FFF7FEFF 		bl	HAL_GPIO_WritePin
 166              	.LVL9:
  39:Core/Src/methods.c ****     HAL_Delay(100);
 167              		.loc 1 39 5 view .LVU27
 168 004c 6420     		movs	r0, #100
 169 004e FFF7FEFF 		bl	HAL_Delay
 170              	.LVL10:
  40:Core/Src/methods.c **** 
  41:Core/Src/methods.c ****     // // White (all on)
  42:Core/Src/methods.c ****     // HAL_GPIO_WritePin(GPIOC, GPIO_PIN_0 | GPIO_PIN_1 | GPIO_PIN_2, GPIO_PIN_SET);
  43:Core/Src/methods.c ****     // HAL_Delay(200);
  44:Core/Src/methods.c **** 
  45:Core/Src/methods.c ****     // // Off
  46:Core/Src/methods.c ****     // HAL_GPIO_WritePin(GPIOC, GPIO_PIN_0 | GPIO_PIN_1 | GPIO_PIN_2, GPIO_PIN_RESET);
  47:Core/Src/methods.c ****     // HAL_Delay(200);
  48:Core/Src/methods.c **** }
 171              		.loc 1 48 1 is_stmt 0 view .LVU28
 172 0052 10BD     		pop	{r4, pc}
 173              	.L8:
 174              		.align	2
 175              	.L7:
 176 0054 00080240 		.word	1073874944
 177              		.cfi_endproc
 178              	.LFE139:
 180              		.section	.text.USB_Print,"ax",%progbits
 181              		.align	1
 182              		.global	USB_Print
 183              		.syntax unified
 184              		.thumb
ARM GAS  /tmp/ccn5fWHB.s 			page 5


 185              		.thumb_func
 187              	USB_Print:
 188              	.LVL11:
 189              	.LFB141:
  49:Core/Src/methods.c **** // void USART_Print(const char *format, ...)
  50:Core/Src/methods.c **** // {
  51:Core/Src/methods.c **** //     char buffer[128];
  52:Core/Src/methods.c **** //     va_list args;
  53:Core/Src/methods.c **** //     va_start(args, format);
  54:Core/Src/methods.c **** //     vsnprintf(buffer, sizeof(buffer), format, args);
  55:Core/Src/methods.c **** //     va_end(args);
  56:Core/Src/methods.c **** //     // 发送格式化的字符串通过UART
  57:Core/Src/methods.c **** //     HAL_UART_Transmit(&huart1, (uint8_t *)buffer, strlen(buffer), 100);
  58:Core/Src/methods.c **** // }
  59:Core/Src/methods.c **** // void Send_Raw_Bytes(uint16_t data)
  60:Core/Src/methods.c **** // {
  61:Core/Src/methods.c **** //     uint8_t bytes[2];
  62:Core/Src/methods.c ****     
  63:Core/Src/methods.c **** //     // 将16位数据拆分为2个字节
  64:Core/Src/methods.c **** //     bytes[0] = (uint8_t)(data & 0xFF);        // 低字节 (LSB)
  65:Core/Src/methods.c **** //     bytes[1] = (uint8_t)((data >> 8) & 0xFF); // 高字节 (MSB)
  66:Core/Src/methods.c ****     
  67:Core/Src/methods.c **** //     // 发送字节数据
  68:Core/Src/methods.c **** //     HAL_UART_Transmit(&huart1, bytes, 2, HAL_MAX_DELAY);
  69:Core/Src/methods.c **** // }
  70:Core/Src/methods.c **** 
  71:Core/Src/methods.c **** // void Send_Buffer_Bytes(uint16_t *buffer, uint16_t count)
  72:Core/Src/methods.c **** // {
  73:Core/Src/methods.c **** //     for (uint16_t i = 0; i < count; i++)
  74:Core/Src/methods.c **** //     {
  75:Core/Src/methods.c **** //         Send_Raw_Bytes(buffer[i]);
  76:Core/Src/methods.c **** //     }
  77:Core/Src/methods.c **** // }
  78:Core/Src/methods.c **** 
  79:Core/Src/methods.c **** void I2C_Scan(void)
  80:Core/Src/methods.c **** {
  81:Core/Src/methods.c ****     USB_Print("Starting I2C scan...\r\n");
  82:Core/Src/methods.c **** 
  83:Core/Src/methods.c ****     for (uint8_t addr = 0x03; addr <= 0x77; addr++)
  84:Core/Src/methods.c ****     {
  85:Core/Src/methods.c ****         // Check if a device responds at this address
  86:Core/Src/methods.c ****         if (HAL_I2C_IsDeviceReady(&hi2c1, (addr << 1), 1, HAL_MAX_DELAY) == HAL_OK)
  87:Core/Src/methods.c ****         {
  88:Core/Src/methods.c ****             USB_Print("I2C device found at address: 0x%02X\r\n", addr);
  89:Core/Src/methods.c ****         }
  90:Core/Src/methods.c ****     }
  91:Core/Src/methods.c **** 
  92:Core/Src/methods.c ****     USB_Print("I2C scan complete.\r\n");
  93:Core/Src/methods.c **** }
  94:Core/Src/methods.c **** 
  95:Core/Src/methods.c **** void USB_Print(const char *format, ...)
  96:Core/Src/methods.c **** {
 190              		.loc 1 96 1 is_stmt 1 view -0
 191              		.cfi_startproc
 192              		@ args = 4, pretend = 16, frame = 136
 193              		@ frame_needed = 0, uses_anonymous_args = 1
 194              		.loc 1 96 1 is_stmt 0 view .LVU30
ARM GAS  /tmp/ccn5fWHB.s 			page 6


 195 0000 0FB4     		push	{r0, r1, r2, r3}
 196              	.LCFI4:
 197              		.cfi_def_cfa_offset 16
 198              		.cfi_offset 0, -16
 199              		.cfi_offset 1, -12
 200              		.cfi_offset 2, -8
 201              		.cfi_offset 3, -4
 202 0002 10B5     		push	{r4, lr}
 203              	.LCFI5:
 204              		.cfi_def_cfa_offset 24
 205              		.cfi_offset 4, -24
 206              		.cfi_offset 14, -20
 207 0004 A2B0     		sub	sp, sp, #136
 208              	.LCFI6:
 209              		.cfi_def_cfa_offset 160
 210 0006 24AB     		add	r3, sp, #144
 211 0008 53F8042B 		ldr	r2, [r3], #4
  97:Core/Src/methods.c ****     char buffer[128];
 212              		.loc 1 97 5 is_stmt 1 view .LVU31
  98:Core/Src/methods.c ****     va_list args;
 213              		.loc 1 98 5 view .LVU32
  99:Core/Src/methods.c ****     va_start(args, format);
 214              		.loc 1 99 5 view .LVU33
 215 000c 0193     		str	r3, [sp, #4]
 100:Core/Src/methods.c ****     int len = vsnprintf(buffer, sizeof(buffer), format, args);
 216              		.loc 1 100 5 view .LVU34
 217              		.loc 1 100 15 is_stmt 0 view .LVU35
 218 000e 8021     		movs	r1, #128
 219 0010 02A8     		add	r0, sp, #8
 220 0012 FFF7FEFF 		bl	vsnprintf
 221              	.LVL12:
 101:Core/Src/methods.c ****     va_end(args);
 222              		.loc 1 101 5 is_stmt 1 view .LVU36
 102:Core/Src/methods.c ****     if (len > 0) {
 223              		.loc 1 102 5 view .LVU37
 224              		.loc 1 102 8 is_stmt 0 view .LVU38
 225 0016 041E     		subs	r4, r0, #0
 226 0018 03DC     		bgt	.L10
 227 001a 08E0     		b	.L9
 228              	.LVL13:
 229              	.L12:
 103:Core/Src/methods.c ****         // 注意：CDC_Transmit_FS是非阻塞的，可能返回USBD_BUSY
 104:Core/Src/methods.c ****         while (CDC_Transmit_FS((uint8_t*)buffer, len) == USBD_BUSY) {
 105:Core/Src/methods.c ****             HAL_Delay(1);
 230              		.loc 1 105 13 is_stmt 1 view .LVU39
 231 001c 0120     		movs	r0, #1
 232 001e FFF7FEFF 		bl	HAL_Delay
 233              	.LVL14:
 234              	.L10:
 104:Core/Src/methods.c ****             HAL_Delay(1);
 235              		.loc 1 104 55 view .LVU40
 104:Core/Src/methods.c ****             HAL_Delay(1);
 236              		.loc 1 104 16 is_stmt 0 view .LVU41
 237 0022 A1B2     		uxth	r1, r4
 238 0024 02A8     		add	r0, sp, #8
 239 0026 FFF7FEFF 		bl	CDC_Transmit_FS
 240              	.LVL15:
ARM GAS  /tmp/ccn5fWHB.s 			page 7


 104:Core/Src/methods.c ****             HAL_Delay(1);
 241              		.loc 1 104 55 discriminator 1 view .LVU42
 242 002a 0128     		cmp	r0, #1
 243 002c F6D0     		beq	.L12
 244              	.L9:
 106:Core/Src/methods.c ****         }
 107:Core/Src/methods.c ****     }
 108:Core/Src/methods.c **** }...
 245              		.loc 1 108 1 view .LVU43
 246 002e 22B0     		add	sp, sp, #136
 247              	.LCFI7:
 248              		.cfi_def_cfa_offset 24
 249              		@ sp needed
 250 0030 BDE81040 		pop	{r4, lr}
 251              	.LCFI8:
 252              		.cfi_restore 14
 253              		.cfi_restore 4
 254              		.cfi_def_cfa_offset 16
 255              	.LVL16:
 256              		.loc 1 108 1 view .LVU44
 257 0034 04B0     		add	sp, sp, #16
 258              	.LCFI9:
 259              		.cfi_restore 3
 260              		.cfi_restore 2
 261              		.cfi_restore 1
 262              		.cfi_restore 0
 263              		.cfi_def_cfa_offset 0
 264 0036 7047     		bx	lr
 265              		.cfi_endproc
 266              	.LFE141:
 268              		.section	.rodata.I2C_Scan.str1.4,"aMS",%progbits,1
 269              		.align	2
 270              	.LC0:
 271 0000 53746172 		.ascii	"Starting I2C scan...\015\012\000"
 271      74696E67 
 271      20493243 
 271      20736361 
 271      6E2E2E2E 
 272 0017 00       		.align	2
 273              	.LC1:
 274 0018 49324320 		.ascii	"I2C device found at address: 0x%02X\015\012\000"
 274      64657669 
 274      63652066 
 274      6F756E64 
 274      20617420 
 275 003e 0000     		.align	2
 276              	.LC2:
 277 0040 49324320 		.ascii	"I2C scan complete.\015\012\000"
 277      7363616E 
 277      20636F6D 
 277      706C6574 
 277      652E0D0A 
 278              		.section	.text.I2C_Scan,"ax",%progbits
 279              		.align	1
 280              		.global	I2C_Scan
 281              		.syntax unified
 282              		.thumb
ARM GAS  /tmp/ccn5fWHB.s 			page 8


 283              		.thumb_func
 285              	I2C_Scan:
 286              	.LFB140:
  80:Core/Src/methods.c **** {
 287              		.loc 1 80 1 is_stmt 1 view -0
 288              		.cfi_startproc
 289              		@ args = 0, pretend = 0, frame = 0
 290              		@ frame_needed = 0, uses_anonymous_args = 0
 291 0000 10B5     		push	{r4, lr}
 292              	.LCFI10:
 293              		.cfi_def_cfa_offset 8
 294              		.cfi_offset 4, -8
 295              		.cfi_offset 14, -4
  81:Core/Src/methods.c ****     USB_Print("Starting I2C scan...\r\n");
 296              		.loc 1 81 5 view .LVU46
 297 0002 0E48     		ldr	r0, .L20
 298 0004 FFF7FEFF 		bl	USB_Print
 299              	.LVL17:
  83:Core/Src/methods.c ****     for (uint8_t addr = 0x03; addr <= 0x77; addr++)
 300              		.loc 1 83 5 view .LVU47
 301              	.LBB3:
  83:Core/Src/methods.c ****     for (uint8_t addr = 0x03; addr <= 0x77; addr++)
 302              		.loc 1 83 10 view .LVU48
  83:Core/Src/methods.c ****     for (uint8_t addr = 0x03; addr <= 0x77; addr++)
 303              		.loc 1 83 18 is_stmt 0 view .LVU49
 304 0008 0324     		movs	r4, #3
  83:Core/Src/methods.c ****     for (uint8_t addr = 0x03; addr <= 0x77; addr++)
 305              		.loc 1 83 5 view .LVU50
 306 000a 01E0     		b	.L15
 307              	.LVL18:
 308              	.L16:
  83:Core/Src/methods.c ****     for (uint8_t addr = 0x03; addr <= 0x77; addr++)
 309              		.loc 1 83 49 is_stmt 1 discriminator 2 view .LVU51
 310 000c 0134     		adds	r4, r4, #1
 311              	.LVL19:
  83:Core/Src/methods.c ****     for (uint8_t addr = 0x03; addr <= 0x77; addr++)
 312              		.loc 1 83 49 is_stmt 0 discriminator 2 view .LVU52
 313 000e E4B2     		uxtb	r4, r4
 314              	.LVL20:
 315              	.L15:
  83:Core/Src/methods.c ****     for (uint8_t addr = 0x03; addr <= 0x77; addr++)
 316              		.loc 1 83 36 is_stmt 1 discriminator 1 view .LVU53
 317 0010 772C     		cmp	r4, #119
 318 0012 0ED8     		bhi	.L19
  86:Core/Src/methods.c ****         if (HAL_I2C_IsDeviceReady(&hi2c1, (addr << 1), 1, HAL_MAX_DELAY) == HAL_OK)
 319              		.loc 1 86 9 view .LVU54
  86:Core/Src/methods.c ****         if (HAL_I2C_IsDeviceReady(&hi2c1, (addr << 1), 1, HAL_MAX_DELAY) == HAL_OK)
 320              		.loc 1 86 13 is_stmt 0 view .LVU55
 321 0014 4FF0FF33 		mov	r3, #-1
 322 0018 0122     		movs	r2, #1
 323 001a 04FA02F1 		lsl	r1, r4, r2
 324 001e 0848     		ldr	r0, .L20+4
 325 0020 FFF7FEFF 		bl	HAL_I2C_IsDeviceReady
 326              	.LVL21:
  86:Core/Src/methods.c ****         if (HAL_I2C_IsDeviceReady(&hi2c1, (addr << 1), 1, HAL_MAX_DELAY) == HAL_OK)
 327              		.loc 1 86 12 discriminator 1 view .LVU56
 328 0024 0028     		cmp	r0, #0
ARM GAS  /tmp/ccn5fWHB.s 			page 9


 329 0026 F1D1     		bne	.L16
  88:Core/Src/methods.c ****             USB_Print("I2C device found at address: 0x%02X\r\n", addr);
 330              		.loc 1 88 13 is_stmt 1 view .LVU57
 331 0028 2146     		mov	r1, r4
 332 002a 0648     		ldr	r0, .L20+8
 333 002c FFF7FEFF 		bl	USB_Print
 334              	.LVL22:
 335 0030 ECE7     		b	.L16
 336              	.L19:
 337              	.LBE3:
  92:Core/Src/methods.c ****     USB_Print("I2C scan complete.\r\n");
 338              		.loc 1 92 5 view .LVU58
 339 0032 0548     		ldr	r0, .L20+12
 340 0034 FFF7FEFF 		bl	USB_Print
 341              	.LVL23:
  93:Core/Src/methods.c **** }
 342              		.loc 1 93 1 is_stmt 0 view .LVU59
 343 0038 10BD     		pop	{r4, pc}
 344              	.LVL24:
 345              	.L21:
  93:Core/Src/methods.c **** }
 346              		.loc 1 93 1 view .LVU60
 347 003a 00BF     		.align	2
 348              	.L20:
 349 003c 00000000 		.word	.LC0
 350 0040 00000000 		.word	hi2c1
 351 0044 18000000 		.word	.LC1
 352 0048 40000000 		.word	.LC2
 353              		.cfi_endproc
 354              	.LFE140:
 356              		.text
 357              	.Letext0:
 358              		.file 2 "/opt/st/stm32cubeclt_1.20.0/GNU-tools-for-STM32/arm-none-eabi/include/machine/_default_ty
 359              		.file 3 "/opt/st/stm32cubeclt_1.20.0/GNU-tools-for-STM32/arm-none-eabi/include/sys/_stdint.h"
 360              		.file 4 "Drivers/CMSIS/Device/ST/STM32F4xx/Include/stm32f446xx.h"
 361              		.file 5 "/opt/st/stm32cubeclt_1.20.0/GNU-tools-for-STM32/lib/gcc/arm-none-eabi/13.3.1/include/stdd
 362              		.file 6 "Drivers/STM32F4xx_HAL_Driver/Inc/stm32f4xx_hal_def.h"
 363              		.file 7 "Drivers/STM32F4xx_HAL_Driver/Inc/stm32f4xx_hal_gpio.h"
 364              		.file 8 "Drivers/STM32F4xx_HAL_Driver/Inc/stm32f4xx_hal_dma.h"
 365              		.file 9 "Drivers/STM32F4xx_HAL_Driver/Inc/stm32f4xx_hal_i2c.h"
 366              		.file 10 "/opt/st/stm32cubeclt_1.20.0/GNU-tools-for-STM32/lib/gcc/arm-none-eabi/13.3.1/include/std
 367              		.file 11 "/opt/st/stm32cubeclt_1.20.0/GNU-tools-for-STM32/arm-none-eabi/include/stdio.h"
 368              		.file 12 "Middlewares/ST/STM32_USB_Device_Library/Core/Inc/usbd_def.h"
 369              		.file 13 "USB_DEVICE/App/usbd_cdc_if.h"
 370              		.file 14 "Drivers/STM32F4xx_HAL_Driver/Inc/stm32f4xx_hal.h"
 371              		.file 15 "Core/Inc/i2c.h"
 372              		.file 16 "<built-in>"
ARM GAS  /tmp/ccn5fWHB.s 			page 10


DEFINED SYMBOLS
                            *ABS*:00000000 methods.c
     /tmp/ccn5fWHB.s:21     .text.RGB_LED_Init:00000000 $t
     /tmp/ccn5fWHB.s:27     .text.RGB_LED_Init:00000000 RGB_LED_Init
     /tmp/ccn5fWHB.s:99     .text.RGB_LED_Init:00000048 $d
     /tmp/ccn5fWHB.s:105    .text.RGB_LED_Blink:00000000 $t
     /tmp/ccn5fWHB.s:111    .text.RGB_LED_Blink:00000000 RGB_LED_Blink
     /tmp/ccn5fWHB.s:176    .text.RGB_LED_Blink:00000054 $d
     /tmp/ccn5fWHB.s:181    .text.USB_Print:00000000 $t
     /tmp/ccn5fWHB.s:187    .text.USB_Print:00000000 USB_Print
     /tmp/ccn5fWHB.s:269    .rodata.I2C_Scan.str1.4:00000000 $d
     /tmp/ccn5fWHB.s:279    .text.I2C_Scan:00000000 $t
     /tmp/ccn5fWHB.s:285    .text.I2C_Scan:00000000 I2C_Scan
     /tmp/ccn5fWHB.s:349    .text.I2C_Scan:0000003c $d

UNDEFINED SYMBOLS
HAL_GPIO_Init
HAL_GPIO_WritePin
HAL_Delay
vsnprintf
CDC_Transmit_FS
HAL_I2C_IsDeviceReady
hi2c1
