ARM GAS  /tmp/cchVy2U2.s 			page 1


   1              		.cpu cortex-m4
   2              		.arch armv7e-m
   3              		.fpu fpv4-sp-d16
   4              		.eabi_attribute 27, 1
   5              		.eabi_attribute 28, 1
   6              		.eabi_attribute 20, 1
   7              		.eabi_attribute 21, 1
   8              		.eabi_attribute 23, 3
   9              		.eabi_attribute 24, 1
  10              		.eabi_attribute 25, 1
  11              		.eabi_attribute 26, 1
  12              		.eabi_attribute 30, 1
  13              		.eabi_attribute 34, 1
  14              		.eabi_attribute 18, 4
  15              		.file	"microphone_sensor.c"
  16              		.text
  17              	.Ltext0:
  18              		.cfi_sections	.debug_frame
  19              		.file 1 "Core/Src/microphone_sensor.c"
  20              		.section	.text.MIC_Init,"ax",%progbits
  21              		.align	1
  22              		.global	MIC_Init
  23              		.syntax unified
  24              		.thumb
  25              		.thumb_func
  27              	MIC_Init:
  28              	.LVL0:
  29              	.LFB134:
   1:Core/Src/microphone_sensor.c **** /**
   2:Core/Src/microphone_sensor.c ****  * @file microphone_sensor.c
   3:Core/Src/microphone_sensor.c ****  * @brief ICS-43434 I2S Digital MEMS Microphone Implementation
   4:Core/Src/microphone_sensor.c ****  */
   5:Core/Src/microphone_sensor.c **** 
   6:Core/Src/microphone_sensor.c **** #include "microphone_sensor.h"
   7:Core/Src/microphone_sensor.c **** #include <string.h>
   8:Core/Src/microphone_sensor.c **** __attribute__((section(".bss"))) uint32_t dma_buffer[4];// 原始DMA接收缓冲
   9:Core/Src/microphone_sensor.c **** extern uint32_t  dma_buffer[MIC_BUFFER_SIZE]; 
  10:Core/Src/microphone_sensor.c **** 
  11:Core/Src/microphone_sensor.c **** HAL_StatusTypeDef MIC_Init(MIC_HandleTypeDef *mic, I2S_HandleTypeDef *hi2s)
  12:Core/Src/microphone_sensor.c **** {
  30              		.loc 1 12 1 view -0
  31              		.cfi_startproc
  32              		@ args = 0, pretend = 0, frame = 0
  33              		@ frame_needed = 0, uses_anonymous_args = 0
  34              		@ link register save eliminated.
  13:Core/Src/microphone_sensor.c ****     if (!mic || !hi2s) return HAL_ERROR;
  35              		.loc 1 13 5 view .LVU1
  36              		.loc 1 13 8 is_stmt 0 view .LVU2
  37 0000 0346     		mov	r3, r0
  38 0002 30B1     		cbz	r0, .L3
  39              		.loc 1 13 14 discriminator 2 view .LVU3
  40 0004 39B1     		cbz	r1, .L4
  14:Core/Src/microphone_sensor.c ****     mic->hi2s = hi2s;
  41              		.loc 1 14 5 is_stmt 1 view .LVU4
  42              		.loc 1 14 15 is_stmt 0 view .LVU5
  43 0006 0160     		str	r1, [r0]
  15:Core/Src/microphone_sensor.c ****     mic->half_ready = 0;
ARM GAS  /tmp/cchVy2U2.s 			page 2


  44              		.loc 1 15 5 is_stmt 1 view .LVU6
  45              		.loc 1 15 21 is_stmt 0 view .LVU7
  46 0008 0020     		movs	r0, #0
  47              	.LVL1:
  48              		.loc 1 15 21 view .LVU8
  49 000a 1872     		strb	r0, [r3, #8]
  16:Core/Src/microphone_sensor.c ****     mic->full_ready = 0;
  50              		.loc 1 16 5 is_stmt 1 view .LVU9
  51              		.loc 1 16 21 is_stmt 0 view .LVU10
  52 000c 5872     		strb	r0, [r3, #9]
  17:Core/Src/microphone_sensor.c ****     mic->audio_result = 0;
  53              		.loc 1 17 5 is_stmt 1 view .LVU11
  54              		.loc 1 17 23 is_stmt 0 view .LVU12
  55 000e 5860     		str	r0, [r3, #4]
  18:Core/Src/microphone_sensor.c ****     return HAL_OK;
  56              		.loc 1 18 5 is_stmt 1 view .LVU13
  57              		.loc 1 18 12 is_stmt 0 view .LVU14
  58 0010 7047     		bx	lr
  59              	.LVL2:
  60              	.L3:
  13:Core/Src/microphone_sensor.c ****     mic->hi2s = hi2s;
  61              		.loc 1 13 31 discriminator 3 view .LVU15
  62 0012 0120     		movs	r0, #1
  63              	.LVL3:
  13:Core/Src/microphone_sensor.c ****     mic->hi2s = hi2s;
  64              		.loc 1 13 31 discriminator 3 view .LVU16
  65 0014 7047     		bx	lr
  66              	.LVL4:
  67              	.L4:
  13:Core/Src/microphone_sensor.c ****     mic->hi2s = hi2s;
  68              		.loc 1 13 31 discriminator 3 view .LVU17
  69 0016 0120     		movs	r0, #1
  70              	.LVL5:
  19:Core/Src/microphone_sensor.c **** }
  71              		.loc 1 19 1 view .LVU18
  72 0018 7047     		bx	lr
  73              		.cfi_endproc
  74              	.LFE134:
  76              		.section	.text.MIC_Start,"ax",%progbits
  77              		.align	1
  78              		.global	MIC_Start
  79              		.syntax unified
  80              		.thumb
  81              		.thumb_func
  83              	MIC_Start:
  84              	.LVL6:
  85              	.LFB135:
  20:Core/Src/microphone_sensor.c **** 
  21:Core/Src/microphone_sensor.c **** 
  22:Core/Src/microphone_sensor.c **** /**
  23:Core/Src/microphone_sensor.c ****  * @brief 启动 DMA 采集
  24:Core/Src/microphone_sensor.c ****  */
  25:Core/Src/microphone_sensor.c **** HAL_StatusTypeDef MIC_Start(MIC_HandleTypeDef *mic)
  26:Core/Src/microphone_sensor.c **** {
  86              		.loc 1 26 1 is_stmt 1 view -0
  87              		.cfi_startproc
  88              		@ args = 0, pretend = 0, frame = 0
ARM GAS  /tmp/cchVy2U2.s 			page 3


  89              		@ frame_needed = 0, uses_anonymous_args = 0
  27:Core/Src/microphone_sensor.c ****     if (!mic || !mic->hi2s) return HAL_ERROR;
  90              		.loc 1 27 5 view .LVU20
  91              		.loc 1 27 8 is_stmt 0 view .LVU21
  92 0000 38B1     		cbz	r0, .L7
  26:Core/Src/microphone_sensor.c ****     if (!mic || !mic->hi2s) return HAL_ERROR;
  93              		.loc 1 26 1 view .LVU22
  94 0002 08B5     		push	{r3, lr}
  95              	.LCFI0:
  96              		.cfi_def_cfa_offset 8
  97              		.cfi_offset 3, -8
  98              		.cfi_offset 14, -4
  99              		.loc 1 27 21 discriminator 2 view .LVU23
 100 0004 0068     		ldr	r0, [r0]
 101              	.LVL7:
 102              		.loc 1 27 14 discriminator 2 view .LVU24
 103 0006 30B1     		cbz	r0, .L8
  28:Core/Src/microphone_sensor.c ****     return HAL_I2S_Receive_DMA(mic->hi2s, (uint16_t*)dma_buffer, MIC_BUFFER_SIZE);
 104              		.loc 1 28 5 is_stmt 1 view .LVU25
 105              		.loc 1 28 12 is_stmt 0 view .LVU26
 106 0008 0422     		movs	r2, #4
 107 000a 0449     		ldr	r1, .L13
 108 000c FFF7FEFF 		bl	HAL_I2S_Receive_DMA
 109              	.LVL8:
 110              	.L6:
  29:Core/Src/microphone_sensor.c **** }
 111              		.loc 1 29 1 view .LVU27
 112 0010 08BD     		pop	{r3, pc}
 113              	.LVL9:
 114              	.L7:
 115              	.LCFI1:
 116              		.cfi_def_cfa_offset 0
 117              		.cfi_restore 3
 118              		.cfi_restore 14
  27:Core/Src/microphone_sensor.c ****     return HAL_I2S_Receive_DMA(mic->hi2s, (uint16_t*)dma_buffer, MIC_BUFFER_SIZE);
 119              		.loc 1 27 36 discriminator 3 view .LVU28
 120 0012 0120     		movs	r0, #1
 121              	.LVL10:
 122              		.loc 1 29 1 view .LVU29
 123 0014 7047     		bx	lr
 124              	.L8:
 125              	.LCFI2:
 126              		.cfi_def_cfa_offset 8
 127              		.cfi_offset 3, -8
 128              		.cfi_offset 14, -4
  27:Core/Src/microphone_sensor.c ****     return HAL_I2S_Receive_DMA(mic->hi2s, (uint16_t*)dma_buffer, MIC_BUFFER_SIZE);
 129              		.loc 1 27 36 discriminator 3 view .LVU30
 130 0016 0120     		movs	r0, #1
 131 0018 FAE7     		b	.L6
 132              	.L14:
 133 001a 00BF     		.align	2
 134              	.L13:
 135 001c 00000000 		.word	dma_buffer
 136              		.cfi_endproc
 137              	.LFE135:
 139              		.global	dma_buffer
 140              		.section	.bss,"aw",%nobits
ARM GAS  /tmp/cchVy2U2.s 			page 4


 141              		.align	2
 144              	dma_buffer:
 145 0000 00000000 		.space	16
 145      00000000 
 145      00000000 
 145      00000000 
 146              		.text
 147              	.Letext0:
 148              		.file 2 "/usr/lib/gcc/arm-none-eabi/13.2.1/include/stdint.h"
 149              		.file 3 "Drivers/CMSIS/Device/ST/STM32F4xx/Include/stm32f446xx.h"
 150              		.file 4 "Drivers/STM32F4xx_HAL_Driver/Inc/stm32f4xx_hal_def.h"
 151              		.file 5 "Drivers/STM32F4xx_HAL_Driver/Inc/stm32f4xx_hal_dma.h"
 152              		.file 6 "Drivers/STM32F4xx_HAL_Driver/Inc/stm32f4xx_hal_i2s.h"
 153              		.file 7 "Core/Inc/microphone_sensor.h"
ARM GAS  /tmp/cchVy2U2.s 			page 5


DEFINED SYMBOLS
                            *ABS*:00000000 microphone_sensor.c
     /tmp/cchVy2U2.s:21     .text.MIC_Init:00000000 $t
     /tmp/cchVy2U2.s:27     .text.MIC_Init:00000000 MIC_Init
     /tmp/cchVy2U2.s:77     .text.MIC_Start:00000000 $t
     /tmp/cchVy2U2.s:83     .text.MIC_Start:00000000 MIC_Start
     /tmp/cchVy2U2.s:135    .text.MIC_Start:0000001c $d
     /tmp/cchVy2U2.s:144    .bss:00000000 dma_buffer
     /tmp/cchVy2U2.s:141    .bss:00000000 $d

UNDEFINED SYMBOLS
HAL_I2S_Receive_DMA
