ARM GAS  /tmp/cc5AzYQh.s 			page 1


   1              		.cpu cortex-m4
   2              		.arch armv7e-m
   3              		.fpu fpv4-sp-d16
   4              		.eabi_attribute 27, 1
   5              		.eabi_attribute 28, 1
   6              		.eabi_attribute 20, 1
   7              		.eabi_attribute 21, 1
   8              		.eabi_attribute 23, 3
   9              		.eabi_attribute 24, 1
  10              		.eabi_attribute 25, 1
  11              		.eabi_attribute 26, 1
  12              		.eabi_attribute 30, 1
  13              		.eabi_attribute 34, 1
  14              		.eabi_attribute 18, 4
  15              		.file	"microphone_sensor.c"
  16              		.text
  17              	.Ltext0:
  18              		.cfi_sections	.debug_frame
  19              		.file 1 "Core/Src/microphone_sensor.c"
  20              		.section	.text.MIC_Init,"ax",%progbits
  21              		.align	1
  22              		.global	MIC_Init
  23              		.syntax unified
  24              		.thumb
  25              		.thumb_func
  27              	MIC_Init:
  28              	.LVL0:
  29              	.LFB134:
   1:Core/Src/microphone_sensor.c **** /**
   2:Core/Src/microphone_sensor.c ****  * @file microphone_sensor.c
   3:Core/Src/microphone_sensor.c ****  * @brief ICS-43434 I2S Digital MEMS Microphone Implementation
   4:Core/Src/microphone_sensor.c ****  */
   5:Core/Src/microphone_sensor.c **** 
   6:Core/Src/microphone_sensor.c **** #include "microphone_sensor.h"
   7:Core/Src/microphone_sensor.c **** #include <string.h>
   8:Core/Src/microphone_sensor.c **** __attribute__((section(".bss"))) uint32_t dma_buffer[MIC_BUFFER_SIZE];// 原始DMA接收缓冲
   9:Core/Src/microphone_sensor.c **** 
  10:Core/Src/microphone_sensor.c **** 
  11:Core/Src/microphone_sensor.c **** HAL_StatusTypeDef MIC_Init(MIC_HandleTypeDef *mic, I2S_HandleTypeDef *hi2s)
  12:Core/Src/microphone_sensor.c **** {
  30              		.loc 1 12 1 view -0
  31              		.cfi_startproc
  32              		@ args = 0, pretend = 0, frame = 0
  33              		@ frame_needed = 0, uses_anonymous_args = 0
  34              		@ link register save eliminated.
  13:Core/Src/microphone_sensor.c ****     if (!mic || !hi2s) return HAL_ERROR;
  35              		.loc 1 13 5 view .LVU1
  36              		.loc 1 13 8 is_stmt 0 view .LVU2
  37 0000 0346     		mov	r3, r0
  38 0002 38B1     		cbz	r0, .L3
  39              		.loc 1 13 14 discriminator 2 view .LVU3
  40 0004 41B1     		cbz	r1, .L4
  14:Core/Src/microphone_sensor.c ****     mic->hi2s = hi2s;
  41              		.loc 1 14 5 is_stmt 1 view .LVU4
  42              		.loc 1 14 15 is_stmt 0 view .LVU5
  43 0006 0160     		str	r1, [r0]
  15:Core/Src/microphone_sensor.c ****     mic->half_ready = 0;
ARM GAS  /tmp/cc5AzYQh.s 			page 2


  44              		.loc 1 15 5 is_stmt 1 view .LVU6
  45              		.loc 1 15 21 is_stmt 0 view .LVU7
  46 0008 0020     		movs	r0, #0
  47              	.LVL1:
  48              		.loc 1 15 21 view .LVU8
  49 000a 1873     		strb	r0, [r3, #12]
  16:Core/Src/microphone_sensor.c ****     mic->full_ready = 0;
  50              		.loc 1 16 5 is_stmt 1 view .LVU9
  51              		.loc 1 16 21 is_stmt 0 view .LVU10
  52 000c 5873     		strb	r0, [r3, #13]
  17:Core/Src/microphone_sensor.c ****     mic->audio_result_left = 0;
  53              		.loc 1 17 5 is_stmt 1 view .LVU11
  54              		.loc 1 17 28 is_stmt 0 view .LVU12
  55 000e 5860     		str	r0, [r3, #4]
  18:Core/Src/microphone_sensor.c ****     mic->audio_result_right = 0;
  56              		.loc 1 18 5 is_stmt 1 view .LVU13
  57              		.loc 1 18 29 is_stmt 0 view .LVU14
  58 0010 9860     		str	r0, [r3, #8]
  19:Core/Src/microphone_sensor.c ****     return HAL_OK;
  59              		.loc 1 19 5 is_stmt 1 view .LVU15
  60              		.loc 1 19 12 is_stmt 0 view .LVU16
  61 0012 7047     		bx	lr
  62              	.LVL2:
  63              	.L3:
  13:Core/Src/microphone_sensor.c ****     mic->hi2s = hi2s;
  64              		.loc 1 13 31 discriminator 3 view .LVU17
  65 0014 0120     		movs	r0, #1
  66              	.LVL3:
  13:Core/Src/microphone_sensor.c ****     mic->hi2s = hi2s;
  67              		.loc 1 13 31 discriminator 3 view .LVU18
  68 0016 7047     		bx	lr
  69              	.LVL4:
  70              	.L4:
  13:Core/Src/microphone_sensor.c ****     mic->hi2s = hi2s;
  71              		.loc 1 13 31 discriminator 3 view .LVU19
  72 0018 0120     		movs	r0, #1
  73              	.LVL5:
  20:Core/Src/microphone_sensor.c **** }
  74              		.loc 1 20 1 view .LVU20
  75 001a 7047     		bx	lr
  76              		.cfi_endproc
  77              	.LFE134:
  79              		.section	.text.MIC_Start,"ax",%progbits
  80              		.align	1
  81              		.global	MIC_Start
  82              		.syntax unified
  83              		.thumb
  84              		.thumb_func
  86              	MIC_Start:
  87              	.LVL6:
  88              	.LFB135:
  21:Core/Src/microphone_sensor.c **** 
  22:Core/Src/microphone_sensor.c **** 
  23:Core/Src/microphone_sensor.c **** /**
  24:Core/Src/microphone_sensor.c ****  * @brief 启动 DMA 采集
  25:Core/Src/microphone_sensor.c ****  */
  26:Core/Src/microphone_sensor.c **** HAL_StatusTypeDef MIC_Start(MIC_HandleTypeDef *mic)
ARM GAS  /tmp/cc5AzYQh.s 			page 3


  27:Core/Src/microphone_sensor.c **** {
  89              		.loc 1 27 1 is_stmt 1 view -0
  90              		.cfi_startproc
  91              		@ args = 0, pretend = 0, frame = 0
  92              		@ frame_needed = 0, uses_anonymous_args = 0
  28:Core/Src/microphone_sensor.c ****     if (!mic || !mic->hi2s) return HAL_ERROR;
  93              		.loc 1 28 5 view .LVU22
  94              		.loc 1 28 8 is_stmt 0 view .LVU23
  95 0000 38B1     		cbz	r0, .L7
  27:Core/Src/microphone_sensor.c ****     if (!mic || !mic->hi2s) return HAL_ERROR;
  96              		.loc 1 27 1 view .LVU24
  97 0002 08B5     		push	{r3, lr}
  98              	.LCFI0:
  99              		.cfi_def_cfa_offset 8
 100              		.cfi_offset 3, -8
 101              		.cfi_offset 14, -4
 102              		.loc 1 28 21 discriminator 2 view .LVU25
 103 0004 0068     		ldr	r0, [r0]
 104              	.LVL7:
 105              		.loc 1 28 14 discriminator 2 view .LVU26
 106 0006 30B1     		cbz	r0, .L8
  29:Core/Src/microphone_sensor.c ****     return HAL_I2S_Receive_DMA(mic->hi2s, (uint16_t*)dma_buffer, MIC_BUFFER_SIZE/2);
 107              		.loc 1 29 5 is_stmt 1 view .LVU27
 108              		.loc 1 29 12 is_stmt 0 view .LVU28
 109 0008 0222     		movs	r2, #2
 110 000a 0449     		ldr	r1, .L13
 111 000c FFF7FEFF 		bl	HAL_I2S_Receive_DMA
 112              	.LVL8:
 113              	.L6:
  30:Core/Src/microphone_sensor.c **** }
 114              		.loc 1 30 1 view .LVU29
 115 0010 08BD     		pop	{r3, pc}
 116              	.LVL9:
 117              	.L7:
 118              	.LCFI1:
 119              		.cfi_def_cfa_offset 0
 120              		.cfi_restore 3
 121              		.cfi_restore 14
  28:Core/Src/microphone_sensor.c ****     return HAL_I2S_Receive_DMA(mic->hi2s, (uint16_t*)dma_buffer, MIC_BUFFER_SIZE/2);
 122              		.loc 1 28 36 discriminator 3 view .LVU30
 123 0012 0120     		movs	r0, #1
 124              	.LVL10:
 125              		.loc 1 30 1 view .LVU31
 126 0014 7047     		bx	lr
 127              	.L8:
 128              	.LCFI2:
 129              		.cfi_def_cfa_offset 8
 130              		.cfi_offset 3, -8
 131              		.cfi_offset 14, -4
  28:Core/Src/microphone_sensor.c ****     return HAL_I2S_Receive_DMA(mic->hi2s, (uint16_t*)dma_buffer, MIC_BUFFER_SIZE/2);
 132              		.loc 1 28 36 discriminator 3 view .LVU32
 133 0016 0120     		movs	r0, #1
 134 0018 FAE7     		b	.L6
 135              	.L14:
 136 001a 00BF     		.align	2
 137              	.L13:
 138 001c 00000000 		.word	dma_buffer
ARM GAS  /tmp/cc5AzYQh.s 			page 4


 139              		.cfi_endproc
 140              	.LFE135:
 142              		.global	dma_buffer
 143              		.section	.bss,"aw",%nobits
 144              		.align	2
 147              	dma_buffer:
 148 0000 00000000 		.space	16
 148      00000000 
 148      00000000 
 148      00000000 
 149              		.text
 150              	.Letext0:
 151              		.file 2 "/opt/st/stm32cubeclt_1.20.0/GNU-tools-for-STM32/arm-none-eabi/include/machine/_default_ty
 152              		.file 3 "/opt/st/stm32cubeclt_1.20.0/GNU-tools-for-STM32/arm-none-eabi/include/sys/_stdint.h"
 153              		.file 4 "Drivers/CMSIS/Device/ST/STM32F4xx/Include/stm32f446xx.h"
 154              		.file 5 "Drivers/STM32F4xx_HAL_Driver/Inc/stm32f4xx_hal_def.h"
 155              		.file 6 "Drivers/STM32F4xx_HAL_Driver/Inc/stm32f4xx_hal_dma.h"
 156              		.file 7 "Drivers/STM32F4xx_HAL_Driver/Inc/stm32f4xx_hal_i2s.h"
 157              		.file 8 "Core/Inc/microphone_sensor.h"
ARM GAS  /tmp/cc5AzYQh.s 			page 5

