ARM GAS  /tmp/ccSV2orD.s 			page 1


   1              		.cpu cortex-m4
   2              		.eabi_attribute 27, 1
   3              		.eabi_attribute 28, 1
   4              		.eabi_attribute 20, 1
   5              		.eabi_attribute 21, 1
   6              		.eabi_attribute 23, 3
   7              		.eabi_attribute 24, 1
   8              		.eabi_attribute 25, 1
   9              		.eabi_attribute 26, 1
  10              		.eabi_attribute 30, 1
  11              		.eabi_attribute 34, 1
  12              		.eabi_attribute 18, 4
  13              		.file	"my_application.c"
  14              		.text
  15              	.Ltext0:
  16              		.cfi_sections	.debug_frame
  17              		.section	.rodata.My_Application_Init.str1.4,"aMS",%progbits,1
  18              		.align	2
  19              	.LC0:
  20 0000 5247425F 		.ascii	"RGB_LED_Init...\012\000"
  20      4C45445F 
  20      496E6974 
  20      2E2E2E0A 
  20      00
  21 0011 000000   		.align	2
  22              	.LC1:
  23 0014 5247425F 		.ascii	"RGB_LED_Init OK\012\000"
  23      4C45445F 
  23      496E6974 
  23      204F4B0A 
  23      00
  24 0025 000000   		.align	2
  25              	.LC2:
  26 0028 494E4954 		.ascii	"INIT:VCNL4040...\012\000"
  26      3A56434E 
  26      4C343034 
  26      302E2E2E 
  26      0A00
  27 003a 0000     		.align	2
  28              	.LC3:
  29 003c 494E4954 		.ascii	"INIT:VCNL4040 OK\012\000"
  29      3A56434E 
  29      4C343034 
  29      30204F4B 
  29      0A00
  30              		.section	.text.My_Application_Init,"ax",%progbits
  31              		.align	1
  32              		.global	My_Application_Init
  33              		.arch armv7e-m
  34              		.syntax unified
  35              		.thumb
  36              		.thumb_func
  37              		.fpu fpv4-sp-d16
  39              	My_Application_Init:
  40              	.LFB139:
  41              		.file 1 "Core/Src/my_application.c"
   1:Core/Src/my_application.c **** /* USER CODE BEGIN Header */
ARM GAS  /tmp/ccSV2orD.s 			page 2


   2:Core/Src/my_application.c **** /**
   3:Core/Src/my_application.c ****   ******************************************************************************
   4:Core/Src/my_application.c ****   * @file           : my_main.c
   5:Core/Src/my_application.c ****   * @brief          : Application sensor logic implementation
   6:Core/Src/my_application.c ****   ******************************************************************************
   7:Core/Src/my_application.c ****   * @attention
   8:Core/Src/my_application.c ****   *
   9:Core/Src/my_application.c ****   * This file contains all user-defined sensor initialization and data
  10:Core/Src/my_application.c ****   * acquisition logic, separated from CubeMX-generated main.c framework.
  11:Core/Src/my_application.c ****   *
  12:Core/Src/my_application.c ****   ******************************************************************************
  13:Core/Src/my_application.c ****   */
  14:Core/Src/my_application.c **** /* USER CODE END Header */
  15:Core/Src/my_application.c **** 
  16:Core/Src/my_application.c **** /* Includes ------------------------------------------------------------------*/
  17:Core/Src/my_application.c **** #include "my_application.h"
  18:Core/Src/my_application.c **** #include <stdarg.h>
  19:Core/Src/my_application.c **** #include <string.h>
  20:Core/Src/my_application.c **** #include <stdio.h>
  21:Core/Src/my_application.c **** #include <stdint.h>
  22:Core/Src/my_application.c **** #include <stdlib.h>
  23:Core/Src/my_application.c **** #include "dma.h"
  24:Core/Src/my_application.c **** #include "i2c.h"
  25:Core/Src/my_application.c **** #include "i2s.h"
  26:Core/Src/my_application.c **** #include "usart.h"
  27:Core/Src/my_application.c **** #include "usb_device.h"
  28:Core/Src/my_application.c **** #include "gpio.h"
  29:Core/Src/my_application.c **** #include "vcnl4040_sensor.h"
  30:Core/Src/my_application.c **** #include "ens160_sensor.h"
  31:Core/Src/my_application.c **** #include "humidity_temp_sensor.h"
  32:Core/Src/my_application.c **** #include "microphone_sensor.h"
  33:Core/Src/my_application.c **** #include "icm42688_sensor.h"
  34:Core/Src/my_application.c **** #include "methods.h"
  35:Core/Src/my_application.c **** #include "i2c_error_handler.h"
  36:Core/Src/my_application.c **** #include "i2c_dma_manager.h"
  37:Core/Src/my_application.c **** 
  38:Core/Src/my_application.c **** /* Private variables ---------------------------------------------------------*/
  39:Core/Src/my_application.c **** extern I2C_HandleTypeDef hi2c1;
  40:Core/Src/my_application.c **** extern I2S_HandleTypeDef hi2s1;
  41:Core/Src/my_application.c **** extern UART_HandleTypeDef huart1;
  42:Core/Src/my_application.c **** 
  43:Core/Src/my_application.c **** VCNL4040_HandleTypeDef vcnl4040;
  44:Core/Src/my_application.c **** static BME280_HandleTypeDef bme[8];  // 8x BME280 sensors via TCA9548A
  45:Core/Src/my_application.c **** ICM42688_HandleTypeDef icm42688;
  46:Core/Src/my_application.c **** MIC_HandleTypeDef mic;
  47:Core/Src/my_application.c **** 
  48:Core/Src/my_application.c **** static inline void DWT_Init(void)
  49:Core/Src/my_application.c **** {
  50:Core/Src/my_application.c ****   CoreDebug->DEMCR |= CoreDebug_DEMCR_TRCENA_Msk;  // Enable trace
  51:Core/Src/my_application.c ****   DWT->CYCCNT = 0;                                  // Reset counter
  52:Core/Src/my_application.c ****   DWT->CTRL |= DWT_CTRL_CYCCNTENA_Msk;             // Enable counter
  53:Core/Src/my_application.c **** }
  54:Core/Src/my_application.c **** 
  55:Core/Src/my_application.c **** /* Public functions ----------------------------------------------------------*/
  56:Core/Src/my_application.c **** 
  57:Core/Src/my_application.c **** /**
  58:Core/Src/my_application.c ****   * @brief  Initialize all sensors and peripherals
ARM GAS  /tmp/ccSV2orD.s 			page 3


  59:Core/Src/my_application.c ****   * @retval None
  60:Core/Src/my_application.c ****   */
  61:Core/Src/my_application.c **** void My_Application_Init(void)
  62:Core/Src/my_application.c **** {
  42              		.loc 1 62 1 view -0
  43              		.cfi_startproc
  44              		@ args = 0, pretend = 0, frame = 0
  45              		@ frame_needed = 0, uses_anonymous_args = 0
  46 0000 F8B5     		push	{r3, r4, r5, r6, r7, lr}
  47              	.LCFI0:
  48              		.cfi_def_cfa_offset 24
  49              		.cfi_offset 3, -24
  50              		.cfi_offset 4, -20
  51              		.cfi_offset 5, -16
  52              		.cfi_offset 6, -12
  53              		.cfi_offset 7, -8
  54              		.cfi_offset 14, -4
  63:Core/Src/my_application.c ****   // ========== 传感器逐个测试 ==========
  64:Core/Src/my_application.c ****   static char msg[128];  // 声明为static避免栈溢出
  55              		.loc 1 64 3 view .LVU1
  65:Core/Src/my_application.c **** 
  66:Core/Src/my_application.c ****   strcpy(msg, "RGB_LED_Init...\n");
  56              		.loc 1 66 3 view .LVU2
  57 0002 234C     		ldr	r4, .L3
  58 0004 2546     		mov	r5, r4
  59 0006 234E     		ldr	r6, .L3+4
  60 0008 0FCE     		ldmia	r6!, {r0, r1, r2, r3}
  61 000a 0FC5     		stmia	r5!, {r0, r1, r2, r3}
  62 000c 3368     		ldr	r3, [r6]
  63 000e 2B70     		strb	r3, [r5]
  67:Core/Src/my_application.c ****   CDC_Transmit_FS((uint8_t*)msg, strlen(msg));
  64              		.loc 1 67 3 view .LVU3
  65              		.loc 1 67 34 is_stmt 0 view .LVU4
  66 0010 2046     		mov	r0, r4
  67 0012 FFF7FEFF 		bl	strlen
  68              	.LVL0:
  69              		.loc 1 67 3 view .LVU5
  70 0016 81B2     		uxth	r1, r0
  71 0018 2046     		mov	r0, r4
  72 001a FFF7FEFF 		bl	CDC_Transmit_FS
  73              	.LVL1:
  68:Core/Src/my_application.c ****   RGB_LED_Init();
  74              		.loc 1 68 3 is_stmt 1 view .LVU6
  75 001e FFF7FEFF 		bl	RGB_LED_Init
  76              	.LVL2:
  69:Core/Src/my_application.c ****   strcpy(msg, "RGB_LED_Init OK\n");
  77              		.loc 1 69 3 view .LVU7
  78 0022 2746     		mov	r7, r4
  79 0024 1C4E     		ldr	r6, .L3+8
  80 0026 0FCE     		ldmia	r6!, {r0, r1, r2, r3}
  81 0028 0FC7     		stmia	r7!, {r0, r1, r2, r3}
  82 002a 3368     		ldr	r3, [r6]
  83 002c 2B70     		strb	r3, [r5]
  70:Core/Src/my_application.c ****   CDC_Transmit_FS((uint8_t*)msg, strlen(msg));
  84              		.loc 1 70 3 view .LVU8
  85              		.loc 1 70 34 is_stmt 0 view .LVU9
  86 002e 2046     		mov	r0, r4
ARM GAS  /tmp/ccSV2orD.s 			page 4


  87 0030 FFF7FEFF 		bl	strlen
  88              	.LVL3:
  89              		.loc 1 70 3 view .LVU10
  90 0034 81B2     		uxth	r1, r0
  91 0036 2046     		mov	r0, r4
  92 0038 FFF7FEFF 		bl	CDC_Transmit_FS
  93              	.LVL4:
  71:Core/Src/my_application.c ****   HAL_Delay(1000);  // 等待USB枚举完成
  94              		.loc 1 71 3 is_stmt 1 view .LVU11
  95 003c 4FF47A70 		mov	r0, #1000
  96 0040 FFF7FEFF 		bl	HAL_Delay
  97              	.LVL5:
  72:Core/Src/my_application.c **** 
  73:Core/Src/my_application.c ****   // Step 1: 初始化VCNL4040
  74:Core/Src/my_application.c ****   strcpy(msg, "INIT:VCNL4040...\n");
  98              		.loc 1 74 3 view .LVU12
  99 0044 2746     		mov	r7, r4
 100 0046 154E     		ldr	r6, .L3+12
 101 0048 0FCE     		ldmia	r6!, {r0, r1, r2, r3}
 102 004a 0FC7     		stmia	r7!, {r0, r1, r2, r3}
 103 004c 3368     		ldr	r3, [r6]
 104 004e 2B80     		strh	r3, [r5]	@ movhi
  75:Core/Src/my_application.c ****   CDC_Transmit_FS((uint8_t*)msg, strlen(msg));
 105              		.loc 1 75 3 view .LVU13
 106              		.loc 1 75 34 is_stmt 0 view .LVU14
 107 0050 2046     		mov	r0, r4
 108 0052 FFF7FEFF 		bl	strlen
 109              	.LVL6:
 110              		.loc 1 75 3 view .LVU15
 111 0056 81B2     		uxth	r1, r0
 112 0058 2046     		mov	r0, r4
 113 005a FFF7FEFF 		bl	CDC_Transmit_FS
 114              	.LVL7:
  76:Core/Src/my_application.c ****   HAL_Delay(100);
 115              		.loc 1 76 3 is_stmt 1 view .LVU16
 116 005e 6420     		movs	r0, #100
 117 0060 FFF7FEFF 		bl	HAL_Delay
 118              	.LVL8:
  77:Core/Src/my_application.c ****   VCNL4040_Init(&vcnl4040, &hi2c1, VCNL4040_I2C_ADDR_8BIT);
 119              		.loc 1 77 3 view .LVU17
 120 0064 C022     		movs	r2, #192
 121 0066 0E49     		ldr	r1, .L3+16
 122 0068 0E48     		ldr	r0, .L3+20
 123 006a FFF7FEFF 		bl	VCNL4040_Init
 124              	.LVL9:
  78:Core/Src/my_application.c ****   strcpy(msg, "INIT:VCNL4040 OK\n");
 125              		.loc 1 78 3 view .LVU18
 126 006e 2746     		mov	r7, r4
 127 0070 0D4E     		ldr	r6, .L3+24
 128 0072 0FCE     		ldmia	r6!, {r0, r1, r2, r3}
 129 0074 0FC7     		stmia	r7!, {r0, r1, r2, r3}
 130 0076 3368     		ldr	r3, [r6]
 131 0078 2B80     		strh	r3, [r5]	@ movhi
  79:Core/Src/my_application.c ****   CDC_Transmit_FS((uint8_t*)msg, strlen(msg));
 132              		.loc 1 79 3 view .LVU19
 133              		.loc 1 79 34 is_stmt 0 view .LVU20
 134 007a 2046     		mov	r0, r4
ARM GAS  /tmp/ccSV2orD.s 			page 5


 135 007c FFF7FEFF 		bl	strlen
 136              	.LVL10:
 137              		.loc 1 79 3 view .LVU21
 138 0080 81B2     		uxth	r1, r0
 139 0082 2046     		mov	r0, r4
 140 0084 FFF7FEFF 		bl	CDC_Transmit_FS
 141              	.LVL11:
  80:Core/Src/my_application.c ****   HAL_Delay(100);
 142              		.loc 1 80 3 is_stmt 1 view .LVU22
 143 0088 6420     		movs	r0, #100
 144 008a FFF7FEFF 		bl	HAL_Delay
 145              	.LVL12:
  81:Core/Src/my_application.c **** 
  82:Core/Src/my_application.c ****   // // Step 2: 初始化ICM42688
  83:Core/Src/my_application.c ****   // strcpy(msg, "INIT:ICM42688...\n");
  84:Core/Src/my_application.c ****   // CDC_Transmit_FS((uint8_t*)msg, strlen(msg));
  85:Core/Src/my_application.c ****   // HAL_Delay(100);
  86:Core/Src/my_application.c ****   // ICM42688_Init(&icm42688, &hi2c1, ICM42688_ADDR_68);
  87:Core/Src/my_application.c ****   // strcpy(msg, "INIT:ICM42688 OK\n");
  88:Core/Src/my_application.c ****   // CDC_Transmit_FS((uint8_t*)msg, strlen(msg));
  89:Core/Src/my_application.c ****   // HAL_Delay(100);
  90:Core/Src/my_application.c **** 
  91:Core/Src/my_application.c ****   // // Step 3: 初始化8个BME280传感器（跳过损坏的[3]）
  92:Core/Src/my_application.c ****   // for (int i = 0; i < 8; i++) {
  93:Core/Src/my_application.c ****   //   if (i == 3) {
  94:Core/Src/my_application.c ****   //     int len = sprintf(msg, "INIT:BME280[%d] SKIPPED (damaged)\n", i);
  95:Core/Src/my_application.c ****   //     CDC_Transmit_FS((uint8_t*)msg, len);
  96:Core/Src/my_application.c ****   //     HAL_Delay(50);
  97:Core/Src/my_application.c ****   //     continue;
  98:Core/Src/my_application.c ****   //   }
  99:Core/Src/my_application.c **** 
 100:Core/Src/my_application.c ****   //   int len = sprintf(msg, "INIT:BME280[%d]...\n", i);
 101:Core/Src/my_application.c ****   //   CDC_Transmit_FS((uint8_t*)msg, len);
 102:Core/Src/my_application.c ****   //   HAL_Delay(50);
 103:Core/Src/my_application.c **** 
 104:Core/Src/my_application.c ****   //   BME280_Init(&bme[i], &hi2c1, TCA9548A_ADDR_70, i, BME280_ADDR_76);
 105:Core/Src/my_application.c **** 
 106:Core/Src/my_application.c ****   //   len = sprintf(msg, "INIT:BME280[%d] OK\n", i);
 107:Core/Src/my_application.c ****   //   CDC_Transmit_FS((uint8_t*)msg, len);
 108:Core/Src/my_application.c ****   //   HAL_Delay(50);
 109:Core/Src/my_application.c ****   // }
 110:Core/Src/my_application.c **** 
 111:Core/Src/my_application.c ****   // // Step 4: 初始化麦克风（I2S）
 112:Core/Src/my_application.c ****   // strcpy(msg, "INIT:MICROPHONE...\n");
 113:Core/Src/my_application.c ****   // CDC_Transmit_FS((uint8_t*)msg, strlen(msg));
 114:Core/Src/my_application.c ****   // HAL_Delay(100);
 115:Core/Src/my_application.c ****   // MIC_Init(&mic, &hi2s1);
 116:Core/Src/my_application.c ****   // MIC_Start(&mic);
 117:Core/Src/my_application.c ****   // strcpy(msg, "INIT:MICROPHONE OK\n");
 118:Core/Src/my_application.c ****   // CDC_Transmit_FS((uint8_t*)msg, strlen(msg));
 119:Core/Src/my_application.c ****   // HAL_Delay(100);
 120:Core/Src/my_application.c **** 
 121:Core/Src/my_application.c ****   // strcpy(msg, "========== ALL SENSORS READY ==========\n");
 122:Core/Src/my_application.c ****   // CDC_Transmit_FS((uint8_t*)msg, strlen(msg));
 123:Core/Src/my_application.c ****   // HAL_Delay(500);
 124:Core/Src/my_application.c **** 
 125:Core/Src/my_application.c **** #ifdef ENABLE_PROFILING
ARM GAS  /tmp/ccSV2orD.s 			page 6


 126:Core/Src/my_application.c ****   DWT_Init();  // Enable cycle counter for performance profiling
 127:Core/Src/my_application.c **** #endif
 128:Core/Src/my_application.c **** }
 146              		.loc 1 128 1 is_stmt 0 view .LVU23
 147 008e F8BD     		pop	{r3, r4, r5, r6, r7, pc}
 148              	.L4:
 149              		.align	2
 150              	.L3:
 151 0090 00000000 		.word	.LANCHOR0
 152 0094 00000000 		.word	.LC0
 153 0098 14000000 		.word	.LC1
 154 009c 28000000 		.word	.LC2
 155 00a0 00000000 		.word	hi2c1
 156 00a4 00000000 		.word	vcnl4040
 157 00a8 3C000000 		.word	.LC3
 158              		.cfi_endproc
 159              	.LFE139:
 161              		.section	.rodata.My_Application_Run.str1.4,"aMS",%progbits,1
 162              		.align	2
 163              	.LC4:
 164 0000 25752C20 		.ascii	"%u, %u\012\000"
 164      25750A00 
 165              		.section	.text.My_Application_Run,"ax",%progbits
 166              		.align	1
 167              		.global	My_Application_Run
 168              		.syntax unified
 169              		.thumb
 170              		.thumb_func
 171              		.fpu fpv4-sp-d16
 173              	My_Application_Run:
 174              	.LFB140:
 129:Core/Src/my_application.c **** 
 130:Core/Src/my_application.c **** /**
 131:Core/Src/my_application.c ****   * @brief  Main sensor reading loop (infinite)
 132:Core/Src/my_application.c ****   * @retval None (never returns)
 133:Core/Src/my_application.c ****   */
 134:Core/Src/my_application.c **** void My_Application_Run(void)
 135:Core/Src/my_application.c **** {
 175              		.loc 1 135 1 is_stmt 1 view -0
 176              		.cfi_startproc
 177              		@ args = 0, pretend = 0, frame = 8
 178              		@ frame_needed = 0, uses_anonymous_args = 0
 179 0000 10B5     		push	{r4, lr}
 180              	.LCFI1:
 181              		.cfi_def_cfa_offset 8
 182              		.cfi_offset 4, -8
 183              		.cfi_offset 14, -4
 184 0002 82B0     		sub	sp, sp, #8
 185              	.LCFI2:
 186              		.cfi_def_cfa_offset 16
 136:Core/Src/my_application.c ****   // // 传感器数据变量
 137:Core/Src/my_application.c ****   uint16_t als = 0, ps = 0;
 187              		.loc 1 137 3 view .LVU25
 188              		.loc 1 137 12 is_stmt 0 view .LVU26
 189 0004 0023     		movs	r3, #0
 190 0006 ADF80630 		strh	r3, [sp, #6]	@ movhi
 191              		.loc 1 137 21 view .LVU27
ARM GAS  /tmp/ccSV2orD.s 			page 7


 192 000a ADF80430 		strh	r3, [sp, #4]	@ movhi
 193              	.L6:
 138:Core/Src/my_application.c ****   // ICM42688_ScaledData accel = {0}, gyro = {0};
 139:Core/Src/my_application.c ****   // float imu_temp = 0;
 140:Core/Src/my_application.c **** 
 141:Core/Src/my_application.c ****   // // BME280数据缓存（静态变量，保留上次的值）
 142:Core/Src/my_application.c ****   // static float temp[8] = {28.0f, 28.0f, 28.0f, 28.0f, 28.0f, 28.0f, 28.0f, 28.0f};
 143:Core/Src/my_application.c ****   // static float hum[8] = {27.0f, 27.0f, 27.0f, 27.0f, 27.0f, 27.0f, 27.0f, 27.0f};
 144:Core/Src/my_application.c ****   // static float press[8] = {1011.0f, 1011.0f, 1011.0f, 1011.0f, 1011.0f, 1011.0f, 1011.0f, 1011.0
 145:Core/Src/my_application.c **** 
 146:Core/Src/my_application.c ****   // // 轮询索引（静态变量，每次循环递增）
 147:Core/Src/my_application.c ****   // static int bme_index = 0;
 148:Core/Src/my_application.c **** 
 149:Core/Src/my_application.c ****   static char msg[512];
 194              		.loc 1 149 3 is_stmt 1 discriminator 1 view .LVU28
 150:Core/Src/my_application.c **** 
 151:Core/Src/my_application.c ****   while (1)
 195              		.loc 1 151 3 discriminator 1 view .LVU29
 196              	.LBB2:
 152:Core/Src/my_application.c ****   {
 153:Core/Src/my_application.c ****     // // === 1. 读取VCNL4040 (光线和接近传感器) ===
 154:Core/Src/my_application.c ****     VCNL4040_ReadALS(&vcnl4040, &als);
 197              		.loc 1 154 5 discriminator 1 view .LVU30
 198 000e 0C4C     		ldr	r4, .L8
 199 0010 0DF10601 		add	r1, sp, #6
 200 0014 2046     		mov	r0, r4
 201 0016 FFF7FEFF 		bl	VCNL4040_ReadALS
 202              	.LVL13:
 155:Core/Src/my_application.c ****     VCNL4040_ReadPS(&vcnl4040, &ps);
 203              		.loc 1 155 5 discriminator 1 view .LVU31
 204 001a 01A9     		add	r1, sp, #4
 205 001c 2046     		mov	r0, r4
 206 001e FFF7FEFF 		bl	VCNL4040_ReadPS
 207              	.LVL14:
 156:Core/Src/my_application.c **** 
 157:Core/Src/my_application.c ****     // === 2. 读取ICM42688 (加速度计和陀螺仪) ===
 158:Core/Src/my_application.c ****     // ICM42688_ReadAll(&icm42688, &accel, &gyro, &imu_temp);
 159:Core/Src/my_application.c ****     int len = sprintf(msg, "%u, %u\n", als, ps);
 208              		.loc 1 159 5 discriminator 1 view .LVU32
 209              		.loc 1 159 15 is_stmt 0 discriminator 1 view .LVU33
 210 0022 084C     		ldr	r4, .L8+4
 211 0024 BDF80430 		ldrh	r3, [sp, #4]
 212 0028 BDF80620 		ldrh	r2, [sp, #6]
 213 002c 0649     		ldr	r1, .L8+8
 214 002e 2046     		mov	r0, r4
 215 0030 FFF7FEFF 		bl	sprintf
 216              	.LVL15:
 160:Core/Src/my_application.c ****     CDC_Transmit_FS((uint8_t*)msg, len);
 217              		.loc 1 160 5 is_stmt 1 discriminator 1 view .LVU34
 218 0034 81B2     		uxth	r1, r0
 219 0036 2046     		mov	r0, r4
 220              	.LVL16:
 221              		.loc 1 160 5 is_stmt 0 discriminator 1 view .LVU35
 222 0038 FFF7FEFF 		bl	CDC_Transmit_FS
 223              	.LVL17:
 224              	.LBE2:
 151:Core/Src/my_application.c ****   {
ARM GAS  /tmp/ccSV2orD.s 			page 8


 225              		.loc 1 151 9 is_stmt 1 discriminator 1 view .LVU36
 226 003c E7E7     		b	.L6
 227              	.L9:
 228 003e 00BF     		.align	2
 229              	.L8:
 230 0040 00000000 		.word	vcnl4040
 231 0044 00000000 		.word	.LANCHOR1
 232 0048 00000000 		.word	.LC4
 233              		.cfi_endproc
 234              	.LFE140:
 236              		.comm	mic,16,4
 237              		.comm	icm42688,16,4
 238              		.comm	vcnl4040,8,4
 239              		.section	.bss.msg.10735,"aw",%nobits
 240              		.align	2
 241              		.set	.LANCHOR0,. + 0
 244              	msg.10735:
 245 0000 00000000 		.space	128
 245      00000000 
 245      00000000 
 245      00000000 
 245      00000000 
 246              		.section	.bss.msg.10741,"aw",%nobits
 247              		.align	2
 248              		.set	.LANCHOR1,. + 0
 251              	msg.10741:
 252 0000 00000000 		.space	512
 252      00000000 
 252      00000000 
 252      00000000 
 252      00000000 
 253              		.text
 254              	.Letext0:
 255              		.file 2 "/usr/lib/gcc/arm-none-eabi/9.2.1/include/stdint.h"
 256              		.file 3 "Drivers/CMSIS/Include/core_cm4.h"
 257              		.file 4 "Drivers/CMSIS/Device/ST/STM32F4xx/Include/system_stm32f4xx.h"
 258              		.file 5 "Drivers/CMSIS/Device/ST/STM32F4xx/Include/stm32f446xx.h"
 259              		.file 6 "Drivers/STM32F4xx_HAL_Driver/Inc/stm32f4xx_hal_def.h"
 260              		.file 7 "Drivers/STM32F4xx_HAL_Driver/Inc/stm32f4xx_hal_dma.h"
 261              		.file 8 "Drivers/STM32F4xx_HAL_Driver/Inc/stm32f4xx_hal_i2c.h"
 262              		.file 9 "Drivers/STM32F4xx_HAL_Driver/Inc/stm32f4xx_hal_i2s.h"
 263              		.file 10 "Drivers/STM32F4xx_HAL_Driver/Inc/stm32f4xx_hal_uart.h"
 264              		.file 11 "Drivers/STM32F4xx_HAL_Driver/Inc/stm32f4xx_hal.h"
 265              		.file 12 "Core/Inc/vcnl4040_sensor.h"
 266              		.file 13 "Core/Inc/icm42688_sensor.h"
 267              		.file 14 "Core/Inc/microphone_sensor.h"
 268              		.file 15 "Core/Inc/my_application.h"
 269              		.file 16 "/usr/lib/gcc/arm-none-eabi/9.2.1/include/stddef.h"
 270              		.file 17 "/usr/include/newlib/sys/_types.h"
 271              		.file 18 "/usr/include/newlib/sys/reent.h"
 272              		.file 19 "/usr/include/newlib/sys/lock.h"
 273              		.file 20 "/usr/include/newlib/stdlib.h"
 274              		.file 21 "Core/Inc/i2c.h"
 275              		.file 22 "Core/Inc/i2s.h"
 276              		.file 23 "Core/Inc/usart.h"
 277              		.file 24 "Middlewares/ST/STM32_USB_Device_Library/Core/Inc/usbd_def.h"
 278              		.file 25 "Core/Inc/humidity_temp_sensor.h"
ARM GAS  /tmp/ccSV2orD.s 			page 9


 279              		.file 26 "Middlewares/ST/STM32_USB_Device_Library/Class/CDC/Inc/usbd_cdc.h"
 280              		.file 27 "USB_DEVICE/App/usbd_cdc_if.h"
 281              		.file 28 "Core/Inc/i2c_error_handler.h"
 282              		.file 29 "Core/Inc/i2c_dma_manager.h"
 283              		.file 30 "/usr/include/newlib/stdio.h"
 284              		.file 31 "/usr/include/newlib/string.h"
 285              		.file 32 "Core/Inc/methods.h"
ARM GAS  /tmp/ccSV2orD.s 			page 10

