ARM GAS  /tmp/ccELzqP8.s 			page 1


   1              		.cpu cortex-m4
   2              		.eabi_attribute 27, 1
   3              		.eabi_attribute 28, 1
   4              		.eabi_attribute 20, 1
   5              		.eabi_attribute 21, 1
   6              		.eabi_attribute 23, 3
   7              		.eabi_attribute 24, 1
   8              		.eabi_attribute 25, 1
   9              		.eabi_attribute 26, 1
  10              		.eabi_attribute 30, 1
  11              		.eabi_attribute 34, 1
  12              		.eabi_attribute 18, 4
  13              		.file	"stm32f4xx_ll_usb.c"
  14              		.text
  15              	.Ltext0:
  16              		.cfi_sections	.debug_frame
  17              		.section	.text.USB_CoreReset,"ax",%progbits
  18              		.align	1
  19              		.arch armv7e-m
  20              		.syntax unified
  21              		.thumb
  22              		.thumb_func
  23              		.fpu fpv4-sp-d16
  25              	USB_CoreReset:
  26              	.LVL0:
  27              	.LFB168:
  28              		.file 1 "Drivers/STM32F4xx_HAL_Driver/Src/stm32f4xx_ll_usb.c"
   1:Drivers/STM32F4xx_HAL_Driver/Src/stm32f4xx_ll_usb.c **** /**
   2:Drivers/STM32F4xx_HAL_Driver/Src/stm32f4xx_ll_usb.c ****   ******************************************************************************
   3:Drivers/STM32F4xx_HAL_Driver/Src/stm32f4xx_ll_usb.c ****   * @file    stm32f4xx_ll_usb.c
   4:Drivers/STM32F4xx_HAL_Driver/Src/stm32f4xx_ll_usb.c ****   * @author  MCD Application Team
   5:Drivers/STM32F4xx_HAL_Driver/Src/stm32f4xx_ll_usb.c ****   * @brief   USB Low Layer HAL module driver.
   6:Drivers/STM32F4xx_HAL_Driver/Src/stm32f4xx_ll_usb.c ****   *
   7:Drivers/STM32F4xx_HAL_Driver/Src/stm32f4xx_ll_usb.c ****   *          This file provides firmware functions to manage the following
   8:Drivers/STM32F4xx_HAL_Driver/Src/stm32f4xx_ll_usb.c ****   *          functionalities of the USB Peripheral Controller:
   9:Drivers/STM32F4xx_HAL_Driver/Src/stm32f4xx_ll_usb.c ****   *           + Initialization/de-initialization functions
  10:Drivers/STM32F4xx_HAL_Driver/Src/stm32f4xx_ll_usb.c ****   *           + I/O operation functions
  11:Drivers/STM32F4xx_HAL_Driver/Src/stm32f4xx_ll_usb.c ****   *           + Peripheral Control functions
  12:Drivers/STM32F4xx_HAL_Driver/Src/stm32f4xx_ll_usb.c ****   *           + Peripheral State functions
  13:Drivers/STM32F4xx_HAL_Driver/Src/stm32f4xx_ll_usb.c ****   *
  14:Drivers/STM32F4xx_HAL_Driver/Src/stm32f4xx_ll_usb.c ****   ******************************************************************************
  15:Drivers/STM32F4xx_HAL_Driver/Src/stm32f4xx_ll_usb.c ****   * @attention
  16:Drivers/STM32F4xx_HAL_Driver/Src/stm32f4xx_ll_usb.c ****   *
  17:Drivers/STM32F4xx_HAL_Driver/Src/stm32f4xx_ll_usb.c ****   * Copyright (c) 2016 STMicroelectronics.
  18:Drivers/STM32F4xx_HAL_Driver/Src/stm32f4xx_ll_usb.c ****   * All rights reserved.
  19:Drivers/STM32F4xx_HAL_Driver/Src/stm32f4xx_ll_usb.c ****   *
  20:Drivers/STM32F4xx_HAL_Driver/Src/stm32f4xx_ll_usb.c ****   * This software is licensed under terms that can be found in the LICENSE file
  21:Drivers/STM32F4xx_HAL_Driver/Src/stm32f4xx_ll_usb.c ****   * in the root directory of this software component.
  22:Drivers/STM32F4xx_HAL_Driver/Src/stm32f4xx_ll_usb.c ****   * If no LICENSE file comes with this software, it is provided AS-IS.
  23:Drivers/STM32F4xx_HAL_Driver/Src/stm32f4xx_ll_usb.c ****   *
  24:Drivers/STM32F4xx_HAL_Driver/Src/stm32f4xx_ll_usb.c ****   ******************************************************************************
  25:Drivers/STM32F4xx_HAL_Driver/Src/stm32f4xx_ll_usb.c ****   @verbatim
  26:Drivers/STM32F4xx_HAL_Driver/Src/stm32f4xx_ll_usb.c ****   ==============================================================================
  27:Drivers/STM32F4xx_HAL_Driver/Src/stm32f4xx_ll_usb.c ****                     ##### How to use this driver #####
  28:Drivers/STM32F4xx_HAL_Driver/Src/stm32f4xx_ll_usb.c ****   ==============================================================================
  29:Drivers/STM32F4xx_HAL_Driver/Src/stm32f4xx_ll_usb.c ****     [..]
  30:Drivers/STM32F4xx_HAL_Driver/Src/stm32f4xx_ll_usb.c ****       (#) Fill parameters of Init structure in USB_CfgTypeDef structure.
ARM GAS  /tmp/ccELzqP8.s 			page 2


  31:Drivers/STM32F4xx_HAL_Driver/Src/stm32f4xx_ll_usb.c **** 
  32:Drivers/STM32F4xx_HAL_Driver/Src/stm32f4xx_ll_usb.c ****       (#) Call USB_CoreInit() API to initialize the USB Core peripheral.
  33:Drivers/STM32F4xx_HAL_Driver/Src/stm32f4xx_ll_usb.c **** 
  34:Drivers/STM32F4xx_HAL_Driver/Src/stm32f4xx_ll_usb.c ****       (#) The upper HAL HCD/PCD driver will call the right routines for its internal processes.
  35:Drivers/STM32F4xx_HAL_Driver/Src/stm32f4xx_ll_usb.c **** 
  36:Drivers/STM32F4xx_HAL_Driver/Src/stm32f4xx_ll_usb.c ****   @endverbatim
  37:Drivers/STM32F4xx_HAL_Driver/Src/stm32f4xx_ll_usb.c **** 
  38:Drivers/STM32F4xx_HAL_Driver/Src/stm32f4xx_ll_usb.c ****   ******************************************************************************
  39:Drivers/STM32F4xx_HAL_Driver/Src/stm32f4xx_ll_usb.c ****   */
  40:Drivers/STM32F4xx_HAL_Driver/Src/stm32f4xx_ll_usb.c **** 
  41:Drivers/STM32F4xx_HAL_Driver/Src/stm32f4xx_ll_usb.c **** /* Includes ------------------------------------------------------------------*/
  42:Drivers/STM32F4xx_HAL_Driver/Src/stm32f4xx_ll_usb.c **** #include "stm32f4xx_hal.h"
  43:Drivers/STM32F4xx_HAL_Driver/Src/stm32f4xx_ll_usb.c **** 
  44:Drivers/STM32F4xx_HAL_Driver/Src/stm32f4xx_ll_usb.c **** /** @addtogroup STM32F4xx_LL_USB_DRIVER
  45:Drivers/STM32F4xx_HAL_Driver/Src/stm32f4xx_ll_usb.c ****   * @{
  46:Drivers/STM32F4xx_HAL_Driver/Src/stm32f4xx_ll_usb.c ****   */
  47:Drivers/STM32F4xx_HAL_Driver/Src/stm32f4xx_ll_usb.c **** 
  48:Drivers/STM32F4xx_HAL_Driver/Src/stm32f4xx_ll_usb.c **** #if defined (HAL_PCD_MODULE_ENABLED) || defined (HAL_HCD_MODULE_ENABLED)
  49:Drivers/STM32F4xx_HAL_Driver/Src/stm32f4xx_ll_usb.c **** #if defined (USB_OTG_FS) || defined (USB_OTG_HS)
  50:Drivers/STM32F4xx_HAL_Driver/Src/stm32f4xx_ll_usb.c **** /* Private typedef -----------------------------------------------------------*/
  51:Drivers/STM32F4xx_HAL_Driver/Src/stm32f4xx_ll_usb.c **** /* Private define ------------------------------------------------------------*/
  52:Drivers/STM32F4xx_HAL_Driver/Src/stm32f4xx_ll_usb.c **** /* Private macro -------------------------------------------------------------*/
  53:Drivers/STM32F4xx_HAL_Driver/Src/stm32f4xx_ll_usb.c **** /* Private variables ---------------------------------------------------------*/
  54:Drivers/STM32F4xx_HAL_Driver/Src/stm32f4xx_ll_usb.c **** /* Private function prototypes -----------------------------------------------*/
  55:Drivers/STM32F4xx_HAL_Driver/Src/stm32f4xx_ll_usb.c **** /* Private functions ---------------------------------------------------------*/
  56:Drivers/STM32F4xx_HAL_Driver/Src/stm32f4xx_ll_usb.c **** #if defined (USB_OTG_FS) || defined (USB_OTG_HS)
  57:Drivers/STM32F4xx_HAL_Driver/Src/stm32f4xx_ll_usb.c **** static HAL_StatusTypeDef USB_CoreReset(USB_OTG_GlobalTypeDef *USBx);
  58:Drivers/STM32F4xx_HAL_Driver/Src/stm32f4xx_ll_usb.c **** 
  59:Drivers/STM32F4xx_HAL_Driver/Src/stm32f4xx_ll_usb.c **** /* Exported functions --------------------------------------------------------*/
  60:Drivers/STM32F4xx_HAL_Driver/Src/stm32f4xx_ll_usb.c **** /** @defgroup USB_LL_Exported_Functions USB Low Layer Exported Functions
  61:Drivers/STM32F4xx_HAL_Driver/Src/stm32f4xx_ll_usb.c ****   * @{
  62:Drivers/STM32F4xx_HAL_Driver/Src/stm32f4xx_ll_usb.c ****   */
  63:Drivers/STM32F4xx_HAL_Driver/Src/stm32f4xx_ll_usb.c **** 
  64:Drivers/STM32F4xx_HAL_Driver/Src/stm32f4xx_ll_usb.c **** /** @defgroup USB_LL_Exported_Functions_Group1 Initialization/de-initialization functions
  65:Drivers/STM32F4xx_HAL_Driver/Src/stm32f4xx_ll_usb.c ****   *  @brief    Initialization and Configuration functions
  66:Drivers/STM32F4xx_HAL_Driver/Src/stm32f4xx_ll_usb.c ****   *
  67:Drivers/STM32F4xx_HAL_Driver/Src/stm32f4xx_ll_usb.c **** @verbatim
  68:Drivers/STM32F4xx_HAL_Driver/Src/stm32f4xx_ll_usb.c ****  ===============================================================================
  69:Drivers/STM32F4xx_HAL_Driver/Src/stm32f4xx_ll_usb.c ****                       ##### Initialization/de-initialization functions #####
  70:Drivers/STM32F4xx_HAL_Driver/Src/stm32f4xx_ll_usb.c ****  ===============================================================================
  71:Drivers/STM32F4xx_HAL_Driver/Src/stm32f4xx_ll_usb.c **** 
  72:Drivers/STM32F4xx_HAL_Driver/Src/stm32f4xx_ll_usb.c **** @endverbatim
  73:Drivers/STM32F4xx_HAL_Driver/Src/stm32f4xx_ll_usb.c ****   * @{
  74:Drivers/STM32F4xx_HAL_Driver/Src/stm32f4xx_ll_usb.c ****   */
  75:Drivers/STM32F4xx_HAL_Driver/Src/stm32f4xx_ll_usb.c **** 
  76:Drivers/STM32F4xx_HAL_Driver/Src/stm32f4xx_ll_usb.c **** /**
  77:Drivers/STM32F4xx_HAL_Driver/Src/stm32f4xx_ll_usb.c ****   * @brief  Initializes the USB Core
  78:Drivers/STM32F4xx_HAL_Driver/Src/stm32f4xx_ll_usb.c ****   * @param  USBx USB Instance
  79:Drivers/STM32F4xx_HAL_Driver/Src/stm32f4xx_ll_usb.c ****   * @param  cfg pointer to a USB_OTG_CfgTypeDef structure that contains
  80:Drivers/STM32F4xx_HAL_Driver/Src/stm32f4xx_ll_usb.c ****   *         the configuration information for the specified USBx peripheral.
  81:Drivers/STM32F4xx_HAL_Driver/Src/stm32f4xx_ll_usb.c ****   * @retval HAL status
  82:Drivers/STM32F4xx_HAL_Driver/Src/stm32f4xx_ll_usb.c ****   */
  83:Drivers/STM32F4xx_HAL_Driver/Src/stm32f4xx_ll_usb.c **** HAL_StatusTypeDef USB_CoreInit(USB_OTG_GlobalTypeDef *USBx, USB_OTG_CfgTypeDef cfg)
  84:Drivers/STM32F4xx_HAL_Driver/Src/stm32f4xx_ll_usb.c **** {
  85:Drivers/STM32F4xx_HAL_Driver/Src/stm32f4xx_ll_usb.c ****   HAL_StatusTypeDef ret;
  86:Drivers/STM32F4xx_HAL_Driver/Src/stm32f4xx_ll_usb.c ****   if (cfg.phy_itface == USB_OTG_ULPI_PHY)
  87:Drivers/STM32F4xx_HAL_Driver/Src/stm32f4xx_ll_usb.c ****   {
ARM GAS  /tmp/ccELzqP8.s 			page 3


  88:Drivers/STM32F4xx_HAL_Driver/Src/stm32f4xx_ll_usb.c ****     USBx->GCCFG &= ~(USB_OTG_GCCFG_PWRDWN);
  89:Drivers/STM32F4xx_HAL_Driver/Src/stm32f4xx_ll_usb.c **** 
  90:Drivers/STM32F4xx_HAL_Driver/Src/stm32f4xx_ll_usb.c ****     /* Init The ULPI Interface */
  91:Drivers/STM32F4xx_HAL_Driver/Src/stm32f4xx_ll_usb.c ****     USBx->GUSBCFG &= ~(USB_OTG_GUSBCFG_TSDPS | USB_OTG_GUSBCFG_ULPIFSLS | USB_OTG_GUSBCFG_PHYSEL);
  92:Drivers/STM32F4xx_HAL_Driver/Src/stm32f4xx_ll_usb.c **** 
  93:Drivers/STM32F4xx_HAL_Driver/Src/stm32f4xx_ll_usb.c ****     /* Select vbus source */
  94:Drivers/STM32F4xx_HAL_Driver/Src/stm32f4xx_ll_usb.c ****     USBx->GUSBCFG &= ~(USB_OTG_GUSBCFG_ULPIEVBUSD | USB_OTG_GUSBCFG_ULPIEVBUSI);
  95:Drivers/STM32F4xx_HAL_Driver/Src/stm32f4xx_ll_usb.c ****     if (cfg.use_external_vbus == 1U)
  96:Drivers/STM32F4xx_HAL_Driver/Src/stm32f4xx_ll_usb.c ****     {
  97:Drivers/STM32F4xx_HAL_Driver/Src/stm32f4xx_ll_usb.c ****       USBx->GUSBCFG |= USB_OTG_GUSBCFG_ULPIEVBUSD;
  98:Drivers/STM32F4xx_HAL_Driver/Src/stm32f4xx_ll_usb.c ****     }
  99:Drivers/STM32F4xx_HAL_Driver/Src/stm32f4xx_ll_usb.c **** 
 100:Drivers/STM32F4xx_HAL_Driver/Src/stm32f4xx_ll_usb.c ****     /* Reset after a PHY select */
 101:Drivers/STM32F4xx_HAL_Driver/Src/stm32f4xx_ll_usb.c ****     ret = USB_CoreReset(USBx);
 102:Drivers/STM32F4xx_HAL_Driver/Src/stm32f4xx_ll_usb.c ****   }
 103:Drivers/STM32F4xx_HAL_Driver/Src/stm32f4xx_ll_usb.c ****   else /* FS interface (embedded Phy) */
 104:Drivers/STM32F4xx_HAL_Driver/Src/stm32f4xx_ll_usb.c ****   {
 105:Drivers/STM32F4xx_HAL_Driver/Src/stm32f4xx_ll_usb.c ****     /* Select FS Embedded PHY */
 106:Drivers/STM32F4xx_HAL_Driver/Src/stm32f4xx_ll_usb.c ****     USBx->GUSBCFG |= USB_OTG_GUSBCFG_PHYSEL;
 107:Drivers/STM32F4xx_HAL_Driver/Src/stm32f4xx_ll_usb.c **** 
 108:Drivers/STM32F4xx_HAL_Driver/Src/stm32f4xx_ll_usb.c ****     /* Reset after a PHY select */
 109:Drivers/STM32F4xx_HAL_Driver/Src/stm32f4xx_ll_usb.c ****     ret = USB_CoreReset(USBx);
 110:Drivers/STM32F4xx_HAL_Driver/Src/stm32f4xx_ll_usb.c **** 
 111:Drivers/STM32F4xx_HAL_Driver/Src/stm32f4xx_ll_usb.c ****     if (cfg.battery_charging_enable == 0U)
 112:Drivers/STM32F4xx_HAL_Driver/Src/stm32f4xx_ll_usb.c ****     {
 113:Drivers/STM32F4xx_HAL_Driver/Src/stm32f4xx_ll_usb.c ****       /* Activate the USB Transceiver */
 114:Drivers/STM32F4xx_HAL_Driver/Src/stm32f4xx_ll_usb.c ****       USBx->GCCFG |= USB_OTG_GCCFG_PWRDWN;
 115:Drivers/STM32F4xx_HAL_Driver/Src/stm32f4xx_ll_usb.c ****     }
 116:Drivers/STM32F4xx_HAL_Driver/Src/stm32f4xx_ll_usb.c ****     else
 117:Drivers/STM32F4xx_HAL_Driver/Src/stm32f4xx_ll_usb.c ****     {
 118:Drivers/STM32F4xx_HAL_Driver/Src/stm32f4xx_ll_usb.c ****       /* Deactivate the USB Transceiver */
 119:Drivers/STM32F4xx_HAL_Driver/Src/stm32f4xx_ll_usb.c ****       USBx->GCCFG &= ~(USB_OTG_GCCFG_PWRDWN);
 120:Drivers/STM32F4xx_HAL_Driver/Src/stm32f4xx_ll_usb.c ****     }
 121:Drivers/STM32F4xx_HAL_Driver/Src/stm32f4xx_ll_usb.c ****   }
 122:Drivers/STM32F4xx_HAL_Driver/Src/stm32f4xx_ll_usb.c **** 
 123:Drivers/STM32F4xx_HAL_Driver/Src/stm32f4xx_ll_usb.c ****   if (cfg.dma_enable == 1U)
 124:Drivers/STM32F4xx_HAL_Driver/Src/stm32f4xx_ll_usb.c ****   {
 125:Drivers/STM32F4xx_HAL_Driver/Src/stm32f4xx_ll_usb.c ****     USBx->GAHBCFG |= USB_OTG_GAHBCFG_HBSTLEN_2;
 126:Drivers/STM32F4xx_HAL_Driver/Src/stm32f4xx_ll_usb.c ****     USBx->GAHBCFG |= USB_OTG_GAHBCFG_DMAEN;
 127:Drivers/STM32F4xx_HAL_Driver/Src/stm32f4xx_ll_usb.c ****   }
 128:Drivers/STM32F4xx_HAL_Driver/Src/stm32f4xx_ll_usb.c **** 
 129:Drivers/STM32F4xx_HAL_Driver/Src/stm32f4xx_ll_usb.c ****   return ret;
 130:Drivers/STM32F4xx_HAL_Driver/Src/stm32f4xx_ll_usb.c **** }
 131:Drivers/STM32F4xx_HAL_Driver/Src/stm32f4xx_ll_usb.c **** 
 132:Drivers/STM32F4xx_HAL_Driver/Src/stm32f4xx_ll_usb.c **** 
 133:Drivers/STM32F4xx_HAL_Driver/Src/stm32f4xx_ll_usb.c **** /**
 134:Drivers/STM32F4xx_HAL_Driver/Src/stm32f4xx_ll_usb.c ****   * @brief  Set the USB turnaround time
 135:Drivers/STM32F4xx_HAL_Driver/Src/stm32f4xx_ll_usb.c ****   * @param  USBx USB Instance
 136:Drivers/STM32F4xx_HAL_Driver/Src/stm32f4xx_ll_usb.c ****   * @param  hclk: AHB clock frequency
 137:Drivers/STM32F4xx_HAL_Driver/Src/stm32f4xx_ll_usb.c ****   * @retval USB turnaround time In PHY Clocks number
 138:Drivers/STM32F4xx_HAL_Driver/Src/stm32f4xx_ll_usb.c ****   */
 139:Drivers/STM32F4xx_HAL_Driver/Src/stm32f4xx_ll_usb.c **** HAL_StatusTypeDef USB_SetTurnaroundTime(USB_OTG_GlobalTypeDef *USBx,
 140:Drivers/STM32F4xx_HAL_Driver/Src/stm32f4xx_ll_usb.c ****                                         uint32_t hclk, uint8_t speed)
 141:Drivers/STM32F4xx_HAL_Driver/Src/stm32f4xx_ll_usb.c **** {
 142:Drivers/STM32F4xx_HAL_Driver/Src/stm32f4xx_ll_usb.c ****   uint32_t UsbTrd;
 143:Drivers/STM32F4xx_HAL_Driver/Src/stm32f4xx_ll_usb.c **** 
 144:Drivers/STM32F4xx_HAL_Driver/Src/stm32f4xx_ll_usb.c ****   /* The USBTRD is configured according to the tables below, depending on AHB frequency
ARM GAS  /tmp/ccELzqP8.s 			page 4


 145:Drivers/STM32F4xx_HAL_Driver/Src/stm32f4xx_ll_usb.c ****   used by application. In the low AHB frequency range it is used to stretch enough the USB response
 146:Drivers/STM32F4xx_HAL_Driver/Src/stm32f4xx_ll_usb.c ****   time to IN tokens, the USB turnaround time, so to compensate for the longer AHB read access
 147:Drivers/STM32F4xx_HAL_Driver/Src/stm32f4xx_ll_usb.c ****   latency to the Data FIFO */
 148:Drivers/STM32F4xx_HAL_Driver/Src/stm32f4xx_ll_usb.c ****   if (speed == USBD_FS_SPEED)
 149:Drivers/STM32F4xx_HAL_Driver/Src/stm32f4xx_ll_usb.c ****   {
 150:Drivers/STM32F4xx_HAL_Driver/Src/stm32f4xx_ll_usb.c ****     if ((hclk >= 14200000U) && (hclk < 15000000U))
 151:Drivers/STM32F4xx_HAL_Driver/Src/stm32f4xx_ll_usb.c ****     {
 152:Drivers/STM32F4xx_HAL_Driver/Src/stm32f4xx_ll_usb.c ****       /* hclk Clock Range between 14.2-15 MHz */
 153:Drivers/STM32F4xx_HAL_Driver/Src/stm32f4xx_ll_usb.c ****       UsbTrd = 0xFU;
 154:Drivers/STM32F4xx_HAL_Driver/Src/stm32f4xx_ll_usb.c ****     }
 155:Drivers/STM32F4xx_HAL_Driver/Src/stm32f4xx_ll_usb.c ****     else if ((hclk >= 15000000U) && (hclk < 16000000U))
 156:Drivers/STM32F4xx_HAL_Driver/Src/stm32f4xx_ll_usb.c ****     {
 157:Drivers/STM32F4xx_HAL_Driver/Src/stm32f4xx_ll_usb.c ****       /* hclk Clock Range between 15-16 MHz */
 158:Drivers/STM32F4xx_HAL_Driver/Src/stm32f4xx_ll_usb.c ****       UsbTrd = 0xEU;
 159:Drivers/STM32F4xx_HAL_Driver/Src/stm32f4xx_ll_usb.c ****     }
 160:Drivers/STM32F4xx_HAL_Driver/Src/stm32f4xx_ll_usb.c ****     else if ((hclk >= 16000000U) && (hclk < 17200000U))
 161:Drivers/STM32F4xx_HAL_Driver/Src/stm32f4xx_ll_usb.c ****     {
 162:Drivers/STM32F4xx_HAL_Driver/Src/stm32f4xx_ll_usb.c ****       /* hclk Clock Range between 16-17.2 MHz */
 163:Drivers/STM32F4xx_HAL_Driver/Src/stm32f4xx_ll_usb.c ****       UsbTrd = 0xDU;
 164:Drivers/STM32F4xx_HAL_Driver/Src/stm32f4xx_ll_usb.c ****     }
 165:Drivers/STM32F4xx_HAL_Driver/Src/stm32f4xx_ll_usb.c ****     else if ((hclk >= 17200000U) && (hclk < 18500000U))
 166:Drivers/STM32F4xx_HAL_Driver/Src/stm32f4xx_ll_usb.c ****     {
 167:Drivers/STM32F4xx_HAL_Driver/Src/stm32f4xx_ll_usb.c ****       /* hclk Clock Range between 17.2-18.5 MHz */
 168:Drivers/STM32F4xx_HAL_Driver/Src/stm32f4xx_ll_usb.c ****       UsbTrd = 0xCU;
 169:Drivers/STM32F4xx_HAL_Driver/Src/stm32f4xx_ll_usb.c ****     }
 170:Drivers/STM32F4xx_HAL_Driver/Src/stm32f4xx_ll_usb.c ****     else if ((hclk >= 18500000U) && (hclk < 20000000U))
 171:Drivers/STM32F4xx_HAL_Driver/Src/stm32f4xx_ll_usb.c ****     {
 172:Drivers/STM32F4xx_HAL_Driver/Src/stm32f4xx_ll_usb.c ****       /* hclk Clock Range between 18.5-20 MHz */
 173:Drivers/STM32F4xx_HAL_Driver/Src/stm32f4xx_ll_usb.c ****       UsbTrd = 0xBU;
 174:Drivers/STM32F4xx_HAL_Driver/Src/stm32f4xx_ll_usb.c ****     }
 175:Drivers/STM32F4xx_HAL_Driver/Src/stm32f4xx_ll_usb.c ****     else if ((hclk >= 20000000U) && (hclk < 21800000U))
 176:Drivers/STM32F4xx_HAL_Driver/Src/stm32f4xx_ll_usb.c ****     {
 177:Drivers/STM32F4xx_HAL_Driver/Src/stm32f4xx_ll_usb.c ****       /* hclk Clock Range between 20-21.8 MHz */
 178:Drivers/STM32F4xx_HAL_Driver/Src/stm32f4xx_ll_usb.c ****       UsbTrd = 0xAU;
 179:Drivers/STM32F4xx_HAL_Driver/Src/stm32f4xx_ll_usb.c ****     }
 180:Drivers/STM32F4xx_HAL_Driver/Src/stm32f4xx_ll_usb.c ****     else if ((hclk >= 21800000U) && (hclk < 24000000U))
 181:Drivers/STM32F4xx_HAL_Driver/Src/stm32f4xx_ll_usb.c ****     {
 182:Drivers/STM32F4xx_HAL_Driver/Src/stm32f4xx_ll_usb.c ****       /* hclk Clock Range between 21.8-24 MHz */
 183:Drivers/STM32F4xx_HAL_Driver/Src/stm32f4xx_ll_usb.c ****       UsbTrd = 0x9U;
 184:Drivers/STM32F4xx_HAL_Driver/Src/stm32f4xx_ll_usb.c ****     }
 185:Drivers/STM32F4xx_HAL_Driver/Src/stm32f4xx_ll_usb.c ****     else if ((hclk >= 24000000U) && (hclk < 27700000U))
 186:Drivers/STM32F4xx_HAL_Driver/Src/stm32f4xx_ll_usb.c ****     {
 187:Drivers/STM32F4xx_HAL_Driver/Src/stm32f4xx_ll_usb.c ****       /* hclk Clock Range between 24-27.7 MHz */
 188:Drivers/STM32F4xx_HAL_Driver/Src/stm32f4xx_ll_usb.c ****       UsbTrd = 0x8U;
 189:Drivers/STM32F4xx_HAL_Driver/Src/stm32f4xx_ll_usb.c ****     }
 190:Drivers/STM32F4xx_HAL_Driver/Src/stm32f4xx_ll_usb.c ****     else if ((hclk >= 27700000U) && (hclk < 32000000U))
 191:Drivers/STM32F4xx_HAL_Driver/Src/stm32f4xx_ll_usb.c ****     {
 192:Drivers/STM32F4xx_HAL_Driver/Src/stm32f4xx_ll_usb.c ****       /* hclk Clock Range between 27.7-32 MHz */
 193:Drivers/STM32F4xx_HAL_Driver/Src/stm32f4xx_ll_usb.c ****       UsbTrd = 0x7U;
 194:Drivers/STM32F4xx_HAL_Driver/Src/stm32f4xx_ll_usb.c ****     }
 195:Drivers/STM32F4xx_HAL_Driver/Src/stm32f4xx_ll_usb.c ****     else /* if(hclk >= 32000000) */
 196:Drivers/STM32F4xx_HAL_Driver/Src/stm32f4xx_ll_usb.c ****     {
 197:Drivers/STM32F4xx_HAL_Driver/Src/stm32f4xx_ll_usb.c ****       /* hclk Clock Range between 32-200 MHz */
 198:Drivers/STM32F4xx_HAL_Driver/Src/stm32f4xx_ll_usb.c ****       UsbTrd = 0x6U;
 199:Drivers/STM32F4xx_HAL_Driver/Src/stm32f4xx_ll_usb.c ****     }
 200:Drivers/STM32F4xx_HAL_Driver/Src/stm32f4xx_ll_usb.c ****   }
 201:Drivers/STM32F4xx_HAL_Driver/Src/stm32f4xx_ll_usb.c ****   else if (speed == USBD_HS_SPEED)
ARM GAS  /tmp/ccELzqP8.s 			page 5


 202:Drivers/STM32F4xx_HAL_Driver/Src/stm32f4xx_ll_usb.c ****   {
 203:Drivers/STM32F4xx_HAL_Driver/Src/stm32f4xx_ll_usb.c ****     UsbTrd = USBD_HS_TRDT_VALUE;
 204:Drivers/STM32F4xx_HAL_Driver/Src/stm32f4xx_ll_usb.c ****   }
 205:Drivers/STM32F4xx_HAL_Driver/Src/stm32f4xx_ll_usb.c ****   else
 206:Drivers/STM32F4xx_HAL_Driver/Src/stm32f4xx_ll_usb.c ****   {
 207:Drivers/STM32F4xx_HAL_Driver/Src/stm32f4xx_ll_usb.c ****     UsbTrd = USBD_DEFAULT_TRDT_VALUE;
 208:Drivers/STM32F4xx_HAL_Driver/Src/stm32f4xx_ll_usb.c ****   }
 209:Drivers/STM32F4xx_HAL_Driver/Src/stm32f4xx_ll_usb.c **** 
 210:Drivers/STM32F4xx_HAL_Driver/Src/stm32f4xx_ll_usb.c ****   USBx->GUSBCFG &= ~USB_OTG_GUSBCFG_TRDT;
 211:Drivers/STM32F4xx_HAL_Driver/Src/stm32f4xx_ll_usb.c ****   USBx->GUSBCFG |= (uint32_t)((UsbTrd << 10) & USB_OTG_GUSBCFG_TRDT);
 212:Drivers/STM32F4xx_HAL_Driver/Src/stm32f4xx_ll_usb.c **** 
 213:Drivers/STM32F4xx_HAL_Driver/Src/stm32f4xx_ll_usb.c ****   return HAL_OK;
 214:Drivers/STM32F4xx_HAL_Driver/Src/stm32f4xx_ll_usb.c **** }
 215:Drivers/STM32F4xx_HAL_Driver/Src/stm32f4xx_ll_usb.c **** 
 216:Drivers/STM32F4xx_HAL_Driver/Src/stm32f4xx_ll_usb.c **** /**
 217:Drivers/STM32F4xx_HAL_Driver/Src/stm32f4xx_ll_usb.c ****   * @brief  USB_EnableGlobalInt
 218:Drivers/STM32F4xx_HAL_Driver/Src/stm32f4xx_ll_usb.c ****   *         Enables the controller's Global Int in the AHB Config reg
 219:Drivers/STM32F4xx_HAL_Driver/Src/stm32f4xx_ll_usb.c ****   * @param  USBx  Selected device
 220:Drivers/STM32F4xx_HAL_Driver/Src/stm32f4xx_ll_usb.c ****   * @retval HAL status
 221:Drivers/STM32F4xx_HAL_Driver/Src/stm32f4xx_ll_usb.c ****   */
 222:Drivers/STM32F4xx_HAL_Driver/Src/stm32f4xx_ll_usb.c **** HAL_StatusTypeDef USB_EnableGlobalInt(USB_OTG_GlobalTypeDef *USBx)
 223:Drivers/STM32F4xx_HAL_Driver/Src/stm32f4xx_ll_usb.c **** {
 224:Drivers/STM32F4xx_HAL_Driver/Src/stm32f4xx_ll_usb.c ****   USBx->GAHBCFG |= USB_OTG_GAHBCFG_GINT;
 225:Drivers/STM32F4xx_HAL_Driver/Src/stm32f4xx_ll_usb.c ****   return HAL_OK;
 226:Drivers/STM32F4xx_HAL_Driver/Src/stm32f4xx_ll_usb.c **** }
 227:Drivers/STM32F4xx_HAL_Driver/Src/stm32f4xx_ll_usb.c **** 
 228:Drivers/STM32F4xx_HAL_Driver/Src/stm32f4xx_ll_usb.c **** /**
 229:Drivers/STM32F4xx_HAL_Driver/Src/stm32f4xx_ll_usb.c ****   * @brief  USB_DisableGlobalInt
 230:Drivers/STM32F4xx_HAL_Driver/Src/stm32f4xx_ll_usb.c ****   *         Disable the controller's Global Int in the AHB Config reg
 231:Drivers/STM32F4xx_HAL_Driver/Src/stm32f4xx_ll_usb.c ****   * @param  USBx  Selected device
 232:Drivers/STM32F4xx_HAL_Driver/Src/stm32f4xx_ll_usb.c ****   * @retval HAL status
 233:Drivers/STM32F4xx_HAL_Driver/Src/stm32f4xx_ll_usb.c ****   */
 234:Drivers/STM32F4xx_HAL_Driver/Src/stm32f4xx_ll_usb.c **** HAL_StatusTypeDef USB_DisableGlobalInt(USB_OTG_GlobalTypeDef *USBx)
 235:Drivers/STM32F4xx_HAL_Driver/Src/stm32f4xx_ll_usb.c **** {
 236:Drivers/STM32F4xx_HAL_Driver/Src/stm32f4xx_ll_usb.c ****   USBx->GAHBCFG &= ~USB_OTG_GAHBCFG_GINT;
 237:Drivers/STM32F4xx_HAL_Driver/Src/stm32f4xx_ll_usb.c ****   return HAL_OK;
 238:Drivers/STM32F4xx_HAL_Driver/Src/stm32f4xx_ll_usb.c **** }
 239:Drivers/STM32F4xx_HAL_Driver/Src/stm32f4xx_ll_usb.c **** 
 240:Drivers/STM32F4xx_HAL_Driver/Src/stm32f4xx_ll_usb.c **** /**
 241:Drivers/STM32F4xx_HAL_Driver/Src/stm32f4xx_ll_usb.c ****   * @brief  USB_SetCurrentMode Set functional mode
 242:Drivers/STM32F4xx_HAL_Driver/Src/stm32f4xx_ll_usb.c ****   * @param  USBx  Selected device
 243:Drivers/STM32F4xx_HAL_Driver/Src/stm32f4xx_ll_usb.c ****   * @param  mode  current core mode
 244:Drivers/STM32F4xx_HAL_Driver/Src/stm32f4xx_ll_usb.c ****   *          This parameter can be one of these values:
 245:Drivers/STM32F4xx_HAL_Driver/Src/stm32f4xx_ll_usb.c ****   *            @arg USB_DEVICE_MODE Peripheral mode
 246:Drivers/STM32F4xx_HAL_Driver/Src/stm32f4xx_ll_usb.c ****   *            @arg USB_HOST_MODE Host mode
 247:Drivers/STM32F4xx_HAL_Driver/Src/stm32f4xx_ll_usb.c ****   * @retval HAL status
 248:Drivers/STM32F4xx_HAL_Driver/Src/stm32f4xx_ll_usb.c ****   */
 249:Drivers/STM32F4xx_HAL_Driver/Src/stm32f4xx_ll_usb.c **** HAL_StatusTypeDef USB_SetCurrentMode(USB_OTG_GlobalTypeDef *USBx, USB_OTG_ModeTypeDef mode)
 250:Drivers/STM32F4xx_HAL_Driver/Src/stm32f4xx_ll_usb.c **** {
 251:Drivers/STM32F4xx_HAL_Driver/Src/stm32f4xx_ll_usb.c ****   uint32_t ms = 0U;
 252:Drivers/STM32F4xx_HAL_Driver/Src/stm32f4xx_ll_usb.c **** 
 253:Drivers/STM32F4xx_HAL_Driver/Src/stm32f4xx_ll_usb.c ****   USBx->GUSBCFG &= ~(USB_OTG_GUSBCFG_FHMOD | USB_OTG_GUSBCFG_FDMOD);
 254:Drivers/STM32F4xx_HAL_Driver/Src/stm32f4xx_ll_usb.c **** 
 255:Drivers/STM32F4xx_HAL_Driver/Src/stm32f4xx_ll_usb.c ****   if (mode == USB_HOST_MODE)
 256:Drivers/STM32F4xx_HAL_Driver/Src/stm32f4xx_ll_usb.c ****   {
 257:Drivers/STM32F4xx_HAL_Driver/Src/stm32f4xx_ll_usb.c ****     USBx->GUSBCFG |= USB_OTG_GUSBCFG_FHMOD;
 258:Drivers/STM32F4xx_HAL_Driver/Src/stm32f4xx_ll_usb.c **** 
ARM GAS  /tmp/ccELzqP8.s 			page 6


 259:Drivers/STM32F4xx_HAL_Driver/Src/stm32f4xx_ll_usb.c ****     do
 260:Drivers/STM32F4xx_HAL_Driver/Src/stm32f4xx_ll_usb.c ****     {
 261:Drivers/STM32F4xx_HAL_Driver/Src/stm32f4xx_ll_usb.c ****       HAL_Delay(10U);
 262:Drivers/STM32F4xx_HAL_Driver/Src/stm32f4xx_ll_usb.c ****       ms += 10U;
 263:Drivers/STM32F4xx_HAL_Driver/Src/stm32f4xx_ll_usb.c ****     } while ((USB_GetMode(USBx) != (uint32_t)USB_HOST_MODE) && (ms < HAL_USB_CURRENT_MODE_MAX_DELAY
 264:Drivers/STM32F4xx_HAL_Driver/Src/stm32f4xx_ll_usb.c ****   }
 265:Drivers/STM32F4xx_HAL_Driver/Src/stm32f4xx_ll_usb.c ****   else if (mode == USB_DEVICE_MODE)
 266:Drivers/STM32F4xx_HAL_Driver/Src/stm32f4xx_ll_usb.c ****   {
 267:Drivers/STM32F4xx_HAL_Driver/Src/stm32f4xx_ll_usb.c ****     USBx->GUSBCFG |= USB_OTG_GUSBCFG_FDMOD;
 268:Drivers/STM32F4xx_HAL_Driver/Src/stm32f4xx_ll_usb.c **** 
 269:Drivers/STM32F4xx_HAL_Driver/Src/stm32f4xx_ll_usb.c ****     do
 270:Drivers/STM32F4xx_HAL_Driver/Src/stm32f4xx_ll_usb.c ****     {
 271:Drivers/STM32F4xx_HAL_Driver/Src/stm32f4xx_ll_usb.c ****       HAL_Delay(10U);
 272:Drivers/STM32F4xx_HAL_Driver/Src/stm32f4xx_ll_usb.c ****       ms += 10U;
 273:Drivers/STM32F4xx_HAL_Driver/Src/stm32f4xx_ll_usb.c ****     } while ((USB_GetMode(USBx) != (uint32_t)USB_DEVICE_MODE) && (ms < HAL_USB_CURRENT_MODE_MAX_DEL
 274:Drivers/STM32F4xx_HAL_Driver/Src/stm32f4xx_ll_usb.c ****   }
 275:Drivers/STM32F4xx_HAL_Driver/Src/stm32f4xx_ll_usb.c ****   else
 276:Drivers/STM32F4xx_HAL_Driver/Src/stm32f4xx_ll_usb.c ****   {
 277:Drivers/STM32F4xx_HAL_Driver/Src/stm32f4xx_ll_usb.c ****     return HAL_ERROR;
 278:Drivers/STM32F4xx_HAL_Driver/Src/stm32f4xx_ll_usb.c ****   }
 279:Drivers/STM32F4xx_HAL_Driver/Src/stm32f4xx_ll_usb.c **** 
 280:Drivers/STM32F4xx_HAL_Driver/Src/stm32f4xx_ll_usb.c ****   if (ms == HAL_USB_CURRENT_MODE_MAX_DELAY_MS)
 281:Drivers/STM32F4xx_HAL_Driver/Src/stm32f4xx_ll_usb.c ****   {
 282:Drivers/STM32F4xx_HAL_Driver/Src/stm32f4xx_ll_usb.c ****     return HAL_ERROR;
 283:Drivers/STM32F4xx_HAL_Driver/Src/stm32f4xx_ll_usb.c ****   }
 284:Drivers/STM32F4xx_HAL_Driver/Src/stm32f4xx_ll_usb.c **** 
 285:Drivers/STM32F4xx_HAL_Driver/Src/stm32f4xx_ll_usb.c ****   return HAL_OK;
 286:Drivers/STM32F4xx_HAL_Driver/Src/stm32f4xx_ll_usb.c **** }
 287:Drivers/STM32F4xx_HAL_Driver/Src/stm32f4xx_ll_usb.c **** 
 288:Drivers/STM32F4xx_HAL_Driver/Src/stm32f4xx_ll_usb.c **** /**
 289:Drivers/STM32F4xx_HAL_Driver/Src/stm32f4xx_ll_usb.c ****   * @brief  USB_DevInit Initializes the USB_OTG controller registers
 290:Drivers/STM32F4xx_HAL_Driver/Src/stm32f4xx_ll_usb.c ****   *         for device mode
 291:Drivers/STM32F4xx_HAL_Driver/Src/stm32f4xx_ll_usb.c ****   * @param  USBx  Selected device
 292:Drivers/STM32F4xx_HAL_Driver/Src/stm32f4xx_ll_usb.c ****   * @param  cfg   pointer to a USB_OTG_CfgTypeDef structure that contains
 293:Drivers/STM32F4xx_HAL_Driver/Src/stm32f4xx_ll_usb.c ****   *         the configuration information for the specified USBx peripheral.
 294:Drivers/STM32F4xx_HAL_Driver/Src/stm32f4xx_ll_usb.c ****   * @retval HAL status
 295:Drivers/STM32F4xx_HAL_Driver/Src/stm32f4xx_ll_usb.c ****   */
 296:Drivers/STM32F4xx_HAL_Driver/Src/stm32f4xx_ll_usb.c **** HAL_StatusTypeDef USB_DevInit(USB_OTG_GlobalTypeDef *USBx, USB_OTG_CfgTypeDef cfg)
 297:Drivers/STM32F4xx_HAL_Driver/Src/stm32f4xx_ll_usb.c **** {
 298:Drivers/STM32F4xx_HAL_Driver/Src/stm32f4xx_ll_usb.c ****   HAL_StatusTypeDef ret = HAL_OK;
 299:Drivers/STM32F4xx_HAL_Driver/Src/stm32f4xx_ll_usb.c ****   uint32_t USBx_BASE = (uint32_t)USBx;
 300:Drivers/STM32F4xx_HAL_Driver/Src/stm32f4xx_ll_usb.c ****   uint32_t i;
 301:Drivers/STM32F4xx_HAL_Driver/Src/stm32f4xx_ll_usb.c **** 
 302:Drivers/STM32F4xx_HAL_Driver/Src/stm32f4xx_ll_usb.c ****   for (i = 0U; i < 15U; i++)
 303:Drivers/STM32F4xx_HAL_Driver/Src/stm32f4xx_ll_usb.c ****   {
 304:Drivers/STM32F4xx_HAL_Driver/Src/stm32f4xx_ll_usb.c ****     USBx->DIEPTXF[i] = 0U;
 305:Drivers/STM32F4xx_HAL_Driver/Src/stm32f4xx_ll_usb.c ****   }
 306:Drivers/STM32F4xx_HAL_Driver/Src/stm32f4xx_ll_usb.c **** 
 307:Drivers/STM32F4xx_HAL_Driver/Src/stm32f4xx_ll_usb.c **** #if defined(STM32F446xx) || defined(STM32F469xx) || defined(STM32F479xx) || defined(STM32F412Zx) \
 308:Drivers/STM32F4xx_HAL_Driver/Src/stm32f4xx_ll_usb.c ****  || defined(STM32F412Vx) || defined(STM32F412Rx) || defined(STM32F412Cx) || defined(STM32F413xx) \
 309:Drivers/STM32F4xx_HAL_Driver/Src/stm32f4xx_ll_usb.c ****  || defined(STM32F423xx)
 310:Drivers/STM32F4xx_HAL_Driver/Src/stm32f4xx_ll_usb.c ****   /* VBUS Sensing setup */
 311:Drivers/STM32F4xx_HAL_Driver/Src/stm32f4xx_ll_usb.c ****   if (cfg.vbus_sensing_enable == 0U)
 312:Drivers/STM32F4xx_HAL_Driver/Src/stm32f4xx_ll_usb.c ****   {
 313:Drivers/STM32F4xx_HAL_Driver/Src/stm32f4xx_ll_usb.c ****     USBx_DEVICE->DCTL |= USB_OTG_DCTL_SDIS;
 314:Drivers/STM32F4xx_HAL_Driver/Src/stm32f4xx_ll_usb.c **** 
 315:Drivers/STM32F4xx_HAL_Driver/Src/stm32f4xx_ll_usb.c ****     /* Deactivate VBUS Sensing B */
ARM GAS  /tmp/ccELzqP8.s 			page 7


 316:Drivers/STM32F4xx_HAL_Driver/Src/stm32f4xx_ll_usb.c ****     USBx->GCCFG &= ~USB_OTG_GCCFG_VBDEN;
 317:Drivers/STM32F4xx_HAL_Driver/Src/stm32f4xx_ll_usb.c **** 
 318:Drivers/STM32F4xx_HAL_Driver/Src/stm32f4xx_ll_usb.c ****     /* B-peripheral session valid override enable */
 319:Drivers/STM32F4xx_HAL_Driver/Src/stm32f4xx_ll_usb.c ****     USBx->GOTGCTL |= USB_OTG_GOTGCTL_BVALOEN;
 320:Drivers/STM32F4xx_HAL_Driver/Src/stm32f4xx_ll_usb.c ****     USBx->GOTGCTL |= USB_OTG_GOTGCTL_BVALOVAL;
 321:Drivers/STM32F4xx_HAL_Driver/Src/stm32f4xx_ll_usb.c ****   }
 322:Drivers/STM32F4xx_HAL_Driver/Src/stm32f4xx_ll_usb.c ****   else
 323:Drivers/STM32F4xx_HAL_Driver/Src/stm32f4xx_ll_usb.c ****   {
 324:Drivers/STM32F4xx_HAL_Driver/Src/stm32f4xx_ll_usb.c ****     /* Enable HW VBUS sensing */
 325:Drivers/STM32F4xx_HAL_Driver/Src/stm32f4xx_ll_usb.c ****     USBx->GCCFG |= USB_OTG_GCCFG_VBDEN;
 326:Drivers/STM32F4xx_HAL_Driver/Src/stm32f4xx_ll_usb.c ****   }
 327:Drivers/STM32F4xx_HAL_Driver/Src/stm32f4xx_ll_usb.c **** #else
 328:Drivers/STM32F4xx_HAL_Driver/Src/stm32f4xx_ll_usb.c ****   /* VBUS Sensing setup */
 329:Drivers/STM32F4xx_HAL_Driver/Src/stm32f4xx_ll_usb.c ****   if (cfg.vbus_sensing_enable == 0U)
 330:Drivers/STM32F4xx_HAL_Driver/Src/stm32f4xx_ll_usb.c ****   {
 331:Drivers/STM32F4xx_HAL_Driver/Src/stm32f4xx_ll_usb.c ****     /*
 332:Drivers/STM32F4xx_HAL_Driver/Src/stm32f4xx_ll_usb.c ****      * Disable HW VBUS sensing. VBUS is internally considered to be always
 333:Drivers/STM32F4xx_HAL_Driver/Src/stm32f4xx_ll_usb.c ****      * at VBUS-Valid level (5V).
 334:Drivers/STM32F4xx_HAL_Driver/Src/stm32f4xx_ll_usb.c ****      */
 335:Drivers/STM32F4xx_HAL_Driver/Src/stm32f4xx_ll_usb.c ****     USBx_DEVICE->DCTL |= USB_OTG_DCTL_SDIS;
 336:Drivers/STM32F4xx_HAL_Driver/Src/stm32f4xx_ll_usb.c ****     USBx->GCCFG |= USB_OTG_GCCFG_NOVBUSSENS;
 337:Drivers/STM32F4xx_HAL_Driver/Src/stm32f4xx_ll_usb.c ****     USBx->GCCFG &= ~USB_OTG_GCCFG_VBUSBSEN;
 338:Drivers/STM32F4xx_HAL_Driver/Src/stm32f4xx_ll_usb.c ****     USBx->GCCFG &= ~USB_OTG_GCCFG_VBUSASEN;
 339:Drivers/STM32F4xx_HAL_Driver/Src/stm32f4xx_ll_usb.c ****   }
 340:Drivers/STM32F4xx_HAL_Driver/Src/stm32f4xx_ll_usb.c ****   else
 341:Drivers/STM32F4xx_HAL_Driver/Src/stm32f4xx_ll_usb.c ****   {
 342:Drivers/STM32F4xx_HAL_Driver/Src/stm32f4xx_ll_usb.c ****     /* Enable HW VBUS sensing */
 343:Drivers/STM32F4xx_HAL_Driver/Src/stm32f4xx_ll_usb.c ****     USBx->GCCFG &= ~USB_OTG_GCCFG_NOVBUSSENS;
 344:Drivers/STM32F4xx_HAL_Driver/Src/stm32f4xx_ll_usb.c ****     USBx->GCCFG |= USB_OTG_GCCFG_VBUSBSEN;
 345:Drivers/STM32F4xx_HAL_Driver/Src/stm32f4xx_ll_usb.c ****   }
 346:Drivers/STM32F4xx_HAL_Driver/Src/stm32f4xx_ll_usb.c **** #endif /* defined(STM32F446xx) || defined(STM32F469xx) || defined(STM32F479xx) || defined(STM32F412
 347:Drivers/STM32F4xx_HAL_Driver/Src/stm32f4xx_ll_usb.c ****           defined(STM32F412Vx) || defined(STM32F412Rx) || defined(STM32F412Cx) || defined(STM32F413
 348:Drivers/STM32F4xx_HAL_Driver/Src/stm32f4xx_ll_usb.c ****           defined(STM32F423xx) */
 349:Drivers/STM32F4xx_HAL_Driver/Src/stm32f4xx_ll_usb.c **** 
 350:Drivers/STM32F4xx_HAL_Driver/Src/stm32f4xx_ll_usb.c ****   /* Restart the Phy Clock */
 351:Drivers/STM32F4xx_HAL_Driver/Src/stm32f4xx_ll_usb.c ****   USBx_PCGCCTL = 0U;
 352:Drivers/STM32F4xx_HAL_Driver/Src/stm32f4xx_ll_usb.c **** 
 353:Drivers/STM32F4xx_HAL_Driver/Src/stm32f4xx_ll_usb.c ****   if (cfg.phy_itface == USB_OTG_ULPI_PHY)
 354:Drivers/STM32F4xx_HAL_Driver/Src/stm32f4xx_ll_usb.c ****   {
 355:Drivers/STM32F4xx_HAL_Driver/Src/stm32f4xx_ll_usb.c ****     if (cfg.speed == USBD_HS_SPEED)
 356:Drivers/STM32F4xx_HAL_Driver/Src/stm32f4xx_ll_usb.c ****     {
 357:Drivers/STM32F4xx_HAL_Driver/Src/stm32f4xx_ll_usb.c ****       /* Set Core speed to High speed mode */
 358:Drivers/STM32F4xx_HAL_Driver/Src/stm32f4xx_ll_usb.c ****       (void)USB_SetDevSpeed(USBx, USB_OTG_SPEED_HIGH);
 359:Drivers/STM32F4xx_HAL_Driver/Src/stm32f4xx_ll_usb.c ****     }
 360:Drivers/STM32F4xx_HAL_Driver/Src/stm32f4xx_ll_usb.c ****     else
 361:Drivers/STM32F4xx_HAL_Driver/Src/stm32f4xx_ll_usb.c ****     {
 362:Drivers/STM32F4xx_HAL_Driver/Src/stm32f4xx_ll_usb.c ****       /* Set Core speed to Full speed mode */
 363:Drivers/STM32F4xx_HAL_Driver/Src/stm32f4xx_ll_usb.c ****       (void)USB_SetDevSpeed(USBx, USB_OTG_SPEED_HIGH_IN_FULL);
 364:Drivers/STM32F4xx_HAL_Driver/Src/stm32f4xx_ll_usb.c ****     }
 365:Drivers/STM32F4xx_HAL_Driver/Src/stm32f4xx_ll_usb.c ****   }
 366:Drivers/STM32F4xx_HAL_Driver/Src/stm32f4xx_ll_usb.c ****   else
 367:Drivers/STM32F4xx_HAL_Driver/Src/stm32f4xx_ll_usb.c ****   {
 368:Drivers/STM32F4xx_HAL_Driver/Src/stm32f4xx_ll_usb.c ****     /* Set Core speed to Full speed mode */
 369:Drivers/STM32F4xx_HAL_Driver/Src/stm32f4xx_ll_usb.c ****     (void)USB_SetDevSpeed(USBx, USB_OTG_SPEED_FULL);
 370:Drivers/STM32F4xx_HAL_Driver/Src/stm32f4xx_ll_usb.c ****   }
 371:Drivers/STM32F4xx_HAL_Driver/Src/stm32f4xx_ll_usb.c **** 
 372:Drivers/STM32F4xx_HAL_Driver/Src/stm32f4xx_ll_usb.c ****   /* Flush the FIFOs */
ARM GAS  /tmp/ccELzqP8.s 			page 8


 373:Drivers/STM32F4xx_HAL_Driver/Src/stm32f4xx_ll_usb.c ****   if (USB_FlushTxFifo(USBx, 0x10U) != HAL_OK) /* all Tx FIFOs */
 374:Drivers/STM32F4xx_HAL_Driver/Src/stm32f4xx_ll_usb.c ****   {
 375:Drivers/STM32F4xx_HAL_Driver/Src/stm32f4xx_ll_usb.c ****     ret = HAL_ERROR;
 376:Drivers/STM32F4xx_HAL_Driver/Src/stm32f4xx_ll_usb.c ****   }
 377:Drivers/STM32F4xx_HAL_Driver/Src/stm32f4xx_ll_usb.c **** 
 378:Drivers/STM32F4xx_HAL_Driver/Src/stm32f4xx_ll_usb.c ****   if (USB_FlushRxFifo(USBx) != HAL_OK)
 379:Drivers/STM32F4xx_HAL_Driver/Src/stm32f4xx_ll_usb.c ****   {
 380:Drivers/STM32F4xx_HAL_Driver/Src/stm32f4xx_ll_usb.c ****     ret = HAL_ERROR;
 381:Drivers/STM32F4xx_HAL_Driver/Src/stm32f4xx_ll_usb.c ****   }
 382:Drivers/STM32F4xx_HAL_Driver/Src/stm32f4xx_ll_usb.c **** 
 383:Drivers/STM32F4xx_HAL_Driver/Src/stm32f4xx_ll_usb.c ****   /* Clear all pending Device Interrupts */
 384:Drivers/STM32F4xx_HAL_Driver/Src/stm32f4xx_ll_usb.c ****   USBx_DEVICE->DIEPMSK = 0U;
 385:Drivers/STM32F4xx_HAL_Driver/Src/stm32f4xx_ll_usb.c ****   USBx_DEVICE->DOEPMSK = 0U;
 386:Drivers/STM32F4xx_HAL_Driver/Src/stm32f4xx_ll_usb.c ****   USBx_DEVICE->DAINTMSK = 0U;
 387:Drivers/STM32F4xx_HAL_Driver/Src/stm32f4xx_ll_usb.c **** 
 388:Drivers/STM32F4xx_HAL_Driver/Src/stm32f4xx_ll_usb.c ****   for (i = 0U; i < cfg.dev_endpoints; i++)
 389:Drivers/STM32F4xx_HAL_Driver/Src/stm32f4xx_ll_usb.c ****   {
 390:Drivers/STM32F4xx_HAL_Driver/Src/stm32f4xx_ll_usb.c ****     if ((USBx_INEP(i)->DIEPCTL & USB_OTG_DIEPCTL_EPENA) == USB_OTG_DIEPCTL_EPENA)
 391:Drivers/STM32F4xx_HAL_Driver/Src/stm32f4xx_ll_usb.c ****     {
 392:Drivers/STM32F4xx_HAL_Driver/Src/stm32f4xx_ll_usb.c ****       if (i == 0U)
 393:Drivers/STM32F4xx_HAL_Driver/Src/stm32f4xx_ll_usb.c ****       {
 394:Drivers/STM32F4xx_HAL_Driver/Src/stm32f4xx_ll_usb.c ****         USBx_INEP(i)->DIEPCTL = USB_OTG_DIEPCTL_SNAK;
 395:Drivers/STM32F4xx_HAL_Driver/Src/stm32f4xx_ll_usb.c ****       }
 396:Drivers/STM32F4xx_HAL_Driver/Src/stm32f4xx_ll_usb.c ****       else
 397:Drivers/STM32F4xx_HAL_Driver/Src/stm32f4xx_ll_usb.c ****       {
 398:Drivers/STM32F4xx_HAL_Driver/Src/stm32f4xx_ll_usb.c ****         USBx_INEP(i)->DIEPCTL = USB_OTG_DIEPCTL_EPDIS | USB_OTG_DIEPCTL_SNAK;
 399:Drivers/STM32F4xx_HAL_Driver/Src/stm32f4xx_ll_usb.c ****       }
 400:Drivers/STM32F4xx_HAL_Driver/Src/stm32f4xx_ll_usb.c ****     }
 401:Drivers/STM32F4xx_HAL_Driver/Src/stm32f4xx_ll_usb.c ****     else
 402:Drivers/STM32F4xx_HAL_Driver/Src/stm32f4xx_ll_usb.c ****     {
 403:Drivers/STM32F4xx_HAL_Driver/Src/stm32f4xx_ll_usb.c ****       USBx_INEP(i)->DIEPCTL = 0U;
 404:Drivers/STM32F4xx_HAL_Driver/Src/stm32f4xx_ll_usb.c ****     }
 405:Drivers/STM32F4xx_HAL_Driver/Src/stm32f4xx_ll_usb.c **** 
 406:Drivers/STM32F4xx_HAL_Driver/Src/stm32f4xx_ll_usb.c ****     USBx_INEP(i)->DIEPTSIZ = 0U;
 407:Drivers/STM32F4xx_HAL_Driver/Src/stm32f4xx_ll_usb.c ****     USBx_INEP(i)->DIEPINT  = 0xFB7FU;
 408:Drivers/STM32F4xx_HAL_Driver/Src/stm32f4xx_ll_usb.c ****   }
 409:Drivers/STM32F4xx_HAL_Driver/Src/stm32f4xx_ll_usb.c **** 
 410:Drivers/STM32F4xx_HAL_Driver/Src/stm32f4xx_ll_usb.c ****   for (i = 0U; i < cfg.dev_endpoints; i++)
 411:Drivers/STM32F4xx_HAL_Driver/Src/stm32f4xx_ll_usb.c ****   {
 412:Drivers/STM32F4xx_HAL_Driver/Src/stm32f4xx_ll_usb.c ****     if ((USBx_OUTEP(i)->DOEPCTL & USB_OTG_DOEPCTL_EPENA) == USB_OTG_DOEPCTL_EPENA)
 413:Drivers/STM32F4xx_HAL_Driver/Src/stm32f4xx_ll_usb.c ****     {
 414:Drivers/STM32F4xx_HAL_Driver/Src/stm32f4xx_ll_usb.c ****       if (i == 0U)
 415:Drivers/STM32F4xx_HAL_Driver/Src/stm32f4xx_ll_usb.c ****       {
 416:Drivers/STM32F4xx_HAL_Driver/Src/stm32f4xx_ll_usb.c ****         USBx_OUTEP(i)->DOEPCTL = USB_OTG_DOEPCTL_SNAK;
 417:Drivers/STM32F4xx_HAL_Driver/Src/stm32f4xx_ll_usb.c ****       }
 418:Drivers/STM32F4xx_HAL_Driver/Src/stm32f4xx_ll_usb.c ****       else
 419:Drivers/STM32F4xx_HAL_Driver/Src/stm32f4xx_ll_usb.c ****       {
 420:Drivers/STM32F4xx_HAL_Driver/Src/stm32f4xx_ll_usb.c ****         USBx_OUTEP(i)->DOEPCTL = USB_OTG_DOEPCTL_EPDIS | USB_OTG_DOEPCTL_SNAK;
 421:Drivers/STM32F4xx_HAL_Driver/Src/stm32f4xx_ll_usb.c ****       }
 422:Drivers/STM32F4xx_HAL_Driver/Src/stm32f4xx_ll_usb.c ****     }
 423:Drivers/STM32F4xx_HAL_Driver/Src/stm32f4xx_ll_usb.c ****     else
 424:Drivers/STM32F4xx_HAL_Driver/Src/stm32f4xx_ll_usb.c ****     {
 425:Drivers/STM32F4xx_HAL_Driver/Src/stm32f4xx_ll_usb.c ****       USBx_OUTEP(i)->DOEPCTL = 0U;
 426:Drivers/STM32F4xx_HAL_Driver/Src/stm32f4xx_ll_usb.c ****     }
 427:Drivers/STM32F4xx_HAL_Driver/Src/stm32f4xx_ll_usb.c **** 
 428:Drivers/STM32F4xx_HAL_Driver/Src/stm32f4xx_ll_usb.c ****     USBx_OUTEP(i)->DOEPTSIZ = 0U;
 429:Drivers/STM32F4xx_HAL_Driver/Src/stm32f4xx_ll_usb.c ****     USBx_OUTEP(i)->DOEPINT  = 0xFB7FU;
ARM GAS  /tmp/ccELzqP8.s 			page 9


 430:Drivers/STM32F4xx_HAL_Driver/Src/stm32f4xx_ll_usb.c ****   }
 431:Drivers/STM32F4xx_HAL_Driver/Src/stm32f4xx_ll_usb.c **** 
 432:Drivers/STM32F4xx_HAL_Driver/Src/stm32f4xx_ll_usb.c ****   USBx_DEVICE->DIEPMSK &= ~(USB_OTG_DIEPMSK_TXFURM);
 433:Drivers/STM32F4xx_HAL_Driver/Src/stm32f4xx_ll_usb.c **** 
 434:Drivers/STM32F4xx_HAL_Driver/Src/stm32f4xx_ll_usb.c ****   /* Disable all interrupts. */
 435:Drivers/STM32F4xx_HAL_Driver/Src/stm32f4xx_ll_usb.c ****   USBx->GINTMSK = 0U;
 436:Drivers/STM32F4xx_HAL_Driver/Src/stm32f4xx_ll_usb.c **** 
 437:Drivers/STM32F4xx_HAL_Driver/Src/stm32f4xx_ll_usb.c ****   /* Clear any pending interrupts */
 438:Drivers/STM32F4xx_HAL_Driver/Src/stm32f4xx_ll_usb.c ****   USBx->GINTSTS = 0xBFFFFFFFU;
 439:Drivers/STM32F4xx_HAL_Driver/Src/stm32f4xx_ll_usb.c **** 
 440:Drivers/STM32F4xx_HAL_Driver/Src/stm32f4xx_ll_usb.c ****   /* Enable the common interrupts */
 441:Drivers/STM32F4xx_HAL_Driver/Src/stm32f4xx_ll_usb.c ****   if (cfg.dma_enable == 0U)
 442:Drivers/STM32F4xx_HAL_Driver/Src/stm32f4xx_ll_usb.c ****   {
 443:Drivers/STM32F4xx_HAL_Driver/Src/stm32f4xx_ll_usb.c ****     USBx->GINTMSK |= USB_OTG_GINTMSK_RXFLVLM;
 444:Drivers/STM32F4xx_HAL_Driver/Src/stm32f4xx_ll_usb.c ****   }
 445:Drivers/STM32F4xx_HAL_Driver/Src/stm32f4xx_ll_usb.c **** 
 446:Drivers/STM32F4xx_HAL_Driver/Src/stm32f4xx_ll_usb.c ****   /* Enable interrupts matching to the Device mode ONLY */
 447:Drivers/STM32F4xx_HAL_Driver/Src/stm32f4xx_ll_usb.c ****   USBx->GINTMSK |= USB_OTG_GINTMSK_USBSUSPM | USB_OTG_GINTMSK_USBRST |
 448:Drivers/STM32F4xx_HAL_Driver/Src/stm32f4xx_ll_usb.c ****                    USB_OTG_GINTMSK_ENUMDNEM | USB_OTG_GINTMSK_IEPINT |
 449:Drivers/STM32F4xx_HAL_Driver/Src/stm32f4xx_ll_usb.c ****                    USB_OTG_GINTMSK_OEPINT   | USB_OTG_GINTMSK_IISOIXFRM |
 450:Drivers/STM32F4xx_HAL_Driver/Src/stm32f4xx_ll_usb.c ****                    USB_OTG_GINTMSK_PXFRM_IISOOXFRM | USB_OTG_GINTMSK_WUIM;
 451:Drivers/STM32F4xx_HAL_Driver/Src/stm32f4xx_ll_usb.c **** 
 452:Drivers/STM32F4xx_HAL_Driver/Src/stm32f4xx_ll_usb.c ****   if (cfg.Sof_enable != 0U)
 453:Drivers/STM32F4xx_HAL_Driver/Src/stm32f4xx_ll_usb.c ****   {
 454:Drivers/STM32F4xx_HAL_Driver/Src/stm32f4xx_ll_usb.c ****     USBx->GINTMSK |= USB_OTG_GINTMSK_SOFM;
 455:Drivers/STM32F4xx_HAL_Driver/Src/stm32f4xx_ll_usb.c ****   }
 456:Drivers/STM32F4xx_HAL_Driver/Src/stm32f4xx_ll_usb.c **** 
 457:Drivers/STM32F4xx_HAL_Driver/Src/stm32f4xx_ll_usb.c ****   if (cfg.vbus_sensing_enable == 1U)
 458:Drivers/STM32F4xx_HAL_Driver/Src/stm32f4xx_ll_usb.c ****   {
 459:Drivers/STM32F4xx_HAL_Driver/Src/stm32f4xx_ll_usb.c ****     USBx->GINTMSK |= (USB_OTG_GINTMSK_SRQIM | USB_OTG_GINTMSK_OTGINT);
 460:Drivers/STM32F4xx_HAL_Driver/Src/stm32f4xx_ll_usb.c ****   }
 461:Drivers/STM32F4xx_HAL_Driver/Src/stm32f4xx_ll_usb.c **** 
 462:Drivers/STM32F4xx_HAL_Driver/Src/stm32f4xx_ll_usb.c ****   return ret;
 463:Drivers/STM32F4xx_HAL_Driver/Src/stm32f4xx_ll_usb.c **** }
 464:Drivers/STM32F4xx_HAL_Driver/Src/stm32f4xx_ll_usb.c **** 
 465:Drivers/STM32F4xx_HAL_Driver/Src/stm32f4xx_ll_usb.c **** /**
 466:Drivers/STM32F4xx_HAL_Driver/Src/stm32f4xx_ll_usb.c ****   * @brief  USB_FlushTxFifo Flush a Tx FIFO
 467:Drivers/STM32F4xx_HAL_Driver/Src/stm32f4xx_ll_usb.c ****   * @param  USBx  Selected device
 468:Drivers/STM32F4xx_HAL_Driver/Src/stm32f4xx_ll_usb.c ****   * @param  num  FIFO number
 469:Drivers/STM32F4xx_HAL_Driver/Src/stm32f4xx_ll_usb.c ****   *         This parameter can be a value from 1 to 15
 470:Drivers/STM32F4xx_HAL_Driver/Src/stm32f4xx_ll_usb.c ****             15 means Flush all Tx FIFOs
 471:Drivers/STM32F4xx_HAL_Driver/Src/stm32f4xx_ll_usb.c ****   * @retval HAL status
 472:Drivers/STM32F4xx_HAL_Driver/Src/stm32f4xx_ll_usb.c ****   */
 473:Drivers/STM32F4xx_HAL_Driver/Src/stm32f4xx_ll_usb.c **** HAL_StatusTypeDef USB_FlushTxFifo(USB_OTG_GlobalTypeDef *USBx, uint32_t num)
 474:Drivers/STM32F4xx_HAL_Driver/Src/stm32f4xx_ll_usb.c **** {
 475:Drivers/STM32F4xx_HAL_Driver/Src/stm32f4xx_ll_usb.c ****   __IO uint32_t count = 0U;
 476:Drivers/STM32F4xx_HAL_Driver/Src/stm32f4xx_ll_usb.c **** 
 477:Drivers/STM32F4xx_HAL_Driver/Src/stm32f4xx_ll_usb.c ****   /* Wait for AHB master IDLE state. */
 478:Drivers/STM32F4xx_HAL_Driver/Src/stm32f4xx_ll_usb.c ****   do
 479:Drivers/STM32F4xx_HAL_Driver/Src/stm32f4xx_ll_usb.c ****   {
 480:Drivers/STM32F4xx_HAL_Driver/Src/stm32f4xx_ll_usb.c ****     count++;
 481:Drivers/STM32F4xx_HAL_Driver/Src/stm32f4xx_ll_usb.c **** 
 482:Drivers/STM32F4xx_HAL_Driver/Src/stm32f4xx_ll_usb.c ****     if (count > HAL_USB_TIMEOUT)
 483:Drivers/STM32F4xx_HAL_Driver/Src/stm32f4xx_ll_usb.c ****     {
 484:Drivers/STM32F4xx_HAL_Driver/Src/stm32f4xx_ll_usb.c ****       return HAL_TIMEOUT;
 485:Drivers/STM32F4xx_HAL_Driver/Src/stm32f4xx_ll_usb.c ****     }
 486:Drivers/STM32F4xx_HAL_Driver/Src/stm32f4xx_ll_usb.c ****   } while ((USBx->GRSTCTL & USB_OTG_GRSTCTL_AHBIDL) == 0U);
ARM GAS  /tmp/ccELzqP8.s 			page 10


 487:Drivers/STM32F4xx_HAL_Driver/Src/stm32f4xx_ll_usb.c **** 
 488:Drivers/STM32F4xx_HAL_Driver/Src/stm32f4xx_ll_usb.c ****   /* Flush TX Fifo */
 489:Drivers/STM32F4xx_HAL_Driver/Src/stm32f4xx_ll_usb.c ****   count = 0U;
 490:Drivers/STM32F4xx_HAL_Driver/Src/stm32f4xx_ll_usb.c ****   USBx->GRSTCTL = (USB_OTG_GRSTCTL_TXFFLSH | (num << 6));
 491:Drivers/STM32F4xx_HAL_Driver/Src/stm32f4xx_ll_usb.c **** 
 492:Drivers/STM32F4xx_HAL_Driver/Src/stm32f4xx_ll_usb.c ****   do
 493:Drivers/STM32F4xx_HAL_Driver/Src/stm32f4xx_ll_usb.c ****   {
 494:Drivers/STM32F4xx_HAL_Driver/Src/stm32f4xx_ll_usb.c ****     count++;
 495:Drivers/STM32F4xx_HAL_Driver/Src/stm32f4xx_ll_usb.c **** 
 496:Drivers/STM32F4xx_HAL_Driver/Src/stm32f4xx_ll_usb.c ****     if (count > HAL_USB_TIMEOUT)
 497:Drivers/STM32F4xx_HAL_Driver/Src/stm32f4xx_ll_usb.c ****     {
 498:Drivers/STM32F4xx_HAL_Driver/Src/stm32f4xx_ll_usb.c ****       return HAL_TIMEOUT;
 499:Drivers/STM32F4xx_HAL_Driver/Src/stm32f4xx_ll_usb.c ****     }
 500:Drivers/STM32F4xx_HAL_Driver/Src/stm32f4xx_ll_usb.c ****   } while ((USBx->GRSTCTL & USB_OTG_GRSTCTL_TXFFLSH) == USB_OTG_GRSTCTL_TXFFLSH);
 501:Drivers/STM32F4xx_HAL_Driver/Src/stm32f4xx_ll_usb.c **** 
 502:Drivers/STM32F4xx_HAL_Driver/Src/stm32f4xx_ll_usb.c ****   return HAL_OK;
 503:Drivers/STM32F4xx_HAL_Driver/Src/stm32f4xx_ll_usb.c **** }
 504:Drivers/STM32F4xx_HAL_Driver/Src/stm32f4xx_ll_usb.c **** 
 505:Drivers/STM32F4xx_HAL_Driver/Src/stm32f4xx_ll_usb.c **** /**
 506:Drivers/STM32F4xx_HAL_Driver/Src/stm32f4xx_ll_usb.c ****   * @brief  USB_FlushRxFifo  Flush Rx FIFO
 507:Drivers/STM32F4xx_HAL_Driver/Src/stm32f4xx_ll_usb.c ****   * @param  USBx  Selected device
 508:Drivers/STM32F4xx_HAL_Driver/Src/stm32f4xx_ll_usb.c ****   * @retval HAL status
 509:Drivers/STM32F4xx_HAL_Driver/Src/stm32f4xx_ll_usb.c ****   */
 510:Drivers/STM32F4xx_HAL_Driver/Src/stm32f4xx_ll_usb.c **** HAL_StatusTypeDef USB_FlushRxFifo(USB_OTG_GlobalTypeDef *USBx)
 511:Drivers/STM32F4xx_HAL_Driver/Src/stm32f4xx_ll_usb.c **** {
 512:Drivers/STM32F4xx_HAL_Driver/Src/stm32f4xx_ll_usb.c ****   __IO uint32_t count = 0U;
 513:Drivers/STM32F4xx_HAL_Driver/Src/stm32f4xx_ll_usb.c **** 
 514:Drivers/STM32F4xx_HAL_Driver/Src/stm32f4xx_ll_usb.c ****   /* Wait for AHB master IDLE state. */
 515:Drivers/STM32F4xx_HAL_Driver/Src/stm32f4xx_ll_usb.c ****   do
 516:Drivers/STM32F4xx_HAL_Driver/Src/stm32f4xx_ll_usb.c ****   {
 517:Drivers/STM32F4xx_HAL_Driver/Src/stm32f4xx_ll_usb.c ****     count++;
 518:Drivers/STM32F4xx_HAL_Driver/Src/stm32f4xx_ll_usb.c **** 
 519:Drivers/STM32F4xx_HAL_Driver/Src/stm32f4xx_ll_usb.c ****     if (count > HAL_USB_TIMEOUT)
 520:Drivers/STM32F4xx_HAL_Driver/Src/stm32f4xx_ll_usb.c ****     {
 521:Drivers/STM32F4xx_HAL_Driver/Src/stm32f4xx_ll_usb.c ****       return HAL_TIMEOUT;
 522:Drivers/STM32F4xx_HAL_Driver/Src/stm32f4xx_ll_usb.c ****     }
 523:Drivers/STM32F4xx_HAL_Driver/Src/stm32f4xx_ll_usb.c ****   } while ((USBx->GRSTCTL & USB_OTG_GRSTCTL_AHBIDL) == 0U);
 524:Drivers/STM32F4xx_HAL_Driver/Src/stm32f4xx_ll_usb.c **** 
 525:Drivers/STM32F4xx_HAL_Driver/Src/stm32f4xx_ll_usb.c ****   /* Flush RX Fifo */
 526:Drivers/STM32F4xx_HAL_Driver/Src/stm32f4xx_ll_usb.c ****   count = 0U;
 527:Drivers/STM32F4xx_HAL_Driver/Src/stm32f4xx_ll_usb.c ****   USBx->GRSTCTL = USB_OTG_GRSTCTL_RXFFLSH;
 528:Drivers/STM32F4xx_HAL_Driver/Src/stm32f4xx_ll_usb.c **** 
 529:Drivers/STM32F4xx_HAL_Driver/Src/stm32f4xx_ll_usb.c ****   do
 530:Drivers/STM32F4xx_HAL_Driver/Src/stm32f4xx_ll_usb.c ****   {
 531:Drivers/STM32F4xx_HAL_Driver/Src/stm32f4xx_ll_usb.c ****     count++;
 532:Drivers/STM32F4xx_HAL_Driver/Src/stm32f4xx_ll_usb.c **** 
 533:Drivers/STM32F4xx_HAL_Driver/Src/stm32f4xx_ll_usb.c ****     if (count > HAL_USB_TIMEOUT)
 534:Drivers/STM32F4xx_HAL_Driver/Src/stm32f4xx_ll_usb.c ****     {
 535:Drivers/STM32F4xx_HAL_Driver/Src/stm32f4xx_ll_usb.c ****       return HAL_TIMEOUT;
 536:Drivers/STM32F4xx_HAL_Driver/Src/stm32f4xx_ll_usb.c ****     }
 537:Drivers/STM32F4xx_HAL_Driver/Src/stm32f4xx_ll_usb.c ****   } while ((USBx->GRSTCTL & USB_OTG_GRSTCTL_RXFFLSH) == USB_OTG_GRSTCTL_RXFFLSH);
 538:Drivers/STM32F4xx_HAL_Driver/Src/stm32f4xx_ll_usb.c **** 
 539:Drivers/STM32F4xx_HAL_Driver/Src/stm32f4xx_ll_usb.c ****   return HAL_OK;
 540:Drivers/STM32F4xx_HAL_Driver/Src/stm32f4xx_ll_usb.c **** }
 541:Drivers/STM32F4xx_HAL_Driver/Src/stm32f4xx_ll_usb.c **** 
 542:Drivers/STM32F4xx_HAL_Driver/Src/stm32f4xx_ll_usb.c **** /**
 543:Drivers/STM32F4xx_HAL_Driver/Src/stm32f4xx_ll_usb.c ****   * @brief  USB_SetDevSpeed  Initializes the DevSpd field of DCFG register
ARM GAS  /tmp/ccELzqP8.s 			page 11


 544:Drivers/STM32F4xx_HAL_Driver/Src/stm32f4xx_ll_usb.c ****   *         depending the PHY type and the enumeration speed of the device.
 545:Drivers/STM32F4xx_HAL_Driver/Src/stm32f4xx_ll_usb.c ****   * @param  USBx  Selected device
 546:Drivers/STM32F4xx_HAL_Driver/Src/stm32f4xx_ll_usb.c ****   * @param  speed  device speed
 547:Drivers/STM32F4xx_HAL_Driver/Src/stm32f4xx_ll_usb.c ****   *          This parameter can be one of these values:
 548:Drivers/STM32F4xx_HAL_Driver/Src/stm32f4xx_ll_usb.c ****   *            @arg USB_OTG_SPEED_HIGH: High speed mode
 549:Drivers/STM32F4xx_HAL_Driver/Src/stm32f4xx_ll_usb.c ****   *            @arg USB_OTG_SPEED_HIGH_IN_FULL: High speed core in Full Speed mode
 550:Drivers/STM32F4xx_HAL_Driver/Src/stm32f4xx_ll_usb.c ****   *            @arg USB_OTG_SPEED_FULL: Full speed mode
 551:Drivers/STM32F4xx_HAL_Driver/Src/stm32f4xx_ll_usb.c ****   * @retval  Hal status
 552:Drivers/STM32F4xx_HAL_Driver/Src/stm32f4xx_ll_usb.c ****   */
 553:Drivers/STM32F4xx_HAL_Driver/Src/stm32f4xx_ll_usb.c **** HAL_StatusTypeDef USB_SetDevSpeed(const USB_OTG_GlobalTypeDef *USBx, uint8_t speed)
 554:Drivers/STM32F4xx_HAL_Driver/Src/stm32f4xx_ll_usb.c **** {
 555:Drivers/STM32F4xx_HAL_Driver/Src/stm32f4xx_ll_usb.c ****   uint32_t USBx_BASE = (uint32_t)USBx;
 556:Drivers/STM32F4xx_HAL_Driver/Src/stm32f4xx_ll_usb.c **** 
 557:Drivers/STM32F4xx_HAL_Driver/Src/stm32f4xx_ll_usb.c ****   USBx_DEVICE->DCFG |= speed;
 558:Drivers/STM32F4xx_HAL_Driver/Src/stm32f4xx_ll_usb.c ****   return HAL_OK;
 559:Drivers/STM32F4xx_HAL_Driver/Src/stm32f4xx_ll_usb.c **** }
 560:Drivers/STM32F4xx_HAL_Driver/Src/stm32f4xx_ll_usb.c **** 
 561:Drivers/STM32F4xx_HAL_Driver/Src/stm32f4xx_ll_usb.c **** /**
 562:Drivers/STM32F4xx_HAL_Driver/Src/stm32f4xx_ll_usb.c ****   * @brief  USB_GetDevSpeed  Return the Dev Speed
 563:Drivers/STM32F4xx_HAL_Driver/Src/stm32f4xx_ll_usb.c ****   * @param  USBx  Selected device
 564:Drivers/STM32F4xx_HAL_Driver/Src/stm32f4xx_ll_usb.c ****   * @retval speed  device speed
 565:Drivers/STM32F4xx_HAL_Driver/Src/stm32f4xx_ll_usb.c ****   *          This parameter can be one of these values:
 566:Drivers/STM32F4xx_HAL_Driver/Src/stm32f4xx_ll_usb.c ****   *            @arg USBD_HS_SPEED: High speed mode
 567:Drivers/STM32F4xx_HAL_Driver/Src/stm32f4xx_ll_usb.c ****   *            @arg USBD_FS_SPEED: Full speed mode
 568:Drivers/STM32F4xx_HAL_Driver/Src/stm32f4xx_ll_usb.c ****   */
 569:Drivers/STM32F4xx_HAL_Driver/Src/stm32f4xx_ll_usb.c **** uint8_t USB_GetDevSpeed(const USB_OTG_GlobalTypeDef *USBx)
 570:Drivers/STM32F4xx_HAL_Driver/Src/stm32f4xx_ll_usb.c **** {
 571:Drivers/STM32F4xx_HAL_Driver/Src/stm32f4xx_ll_usb.c ****   uint32_t USBx_BASE = (uint32_t)USBx;
 572:Drivers/STM32F4xx_HAL_Driver/Src/stm32f4xx_ll_usb.c ****   uint8_t speed;
 573:Drivers/STM32F4xx_HAL_Driver/Src/stm32f4xx_ll_usb.c ****   uint32_t DevEnumSpeed = USBx_DEVICE->DSTS & USB_OTG_DSTS_ENUMSPD;
 574:Drivers/STM32F4xx_HAL_Driver/Src/stm32f4xx_ll_usb.c **** 
 575:Drivers/STM32F4xx_HAL_Driver/Src/stm32f4xx_ll_usb.c ****   if (DevEnumSpeed == DSTS_ENUMSPD_HS_PHY_30MHZ_OR_60MHZ)
 576:Drivers/STM32F4xx_HAL_Driver/Src/stm32f4xx_ll_usb.c ****   {
 577:Drivers/STM32F4xx_HAL_Driver/Src/stm32f4xx_ll_usb.c ****     speed = USBD_HS_SPEED;
 578:Drivers/STM32F4xx_HAL_Driver/Src/stm32f4xx_ll_usb.c ****   }
 579:Drivers/STM32F4xx_HAL_Driver/Src/stm32f4xx_ll_usb.c ****   else if ((DevEnumSpeed == DSTS_ENUMSPD_FS_PHY_30MHZ_OR_60MHZ) ||
 580:Drivers/STM32F4xx_HAL_Driver/Src/stm32f4xx_ll_usb.c ****            (DevEnumSpeed == DSTS_ENUMSPD_FS_PHY_48MHZ))
 581:Drivers/STM32F4xx_HAL_Driver/Src/stm32f4xx_ll_usb.c ****   {
 582:Drivers/STM32F4xx_HAL_Driver/Src/stm32f4xx_ll_usb.c ****     speed = USBD_FS_SPEED;
 583:Drivers/STM32F4xx_HAL_Driver/Src/stm32f4xx_ll_usb.c ****   }
 584:Drivers/STM32F4xx_HAL_Driver/Src/stm32f4xx_ll_usb.c ****   else
 585:Drivers/STM32F4xx_HAL_Driver/Src/stm32f4xx_ll_usb.c ****   {
 586:Drivers/STM32F4xx_HAL_Driver/Src/stm32f4xx_ll_usb.c ****     speed = 0xFU;
 587:Drivers/STM32F4xx_HAL_Driver/Src/stm32f4xx_ll_usb.c ****   }
 588:Drivers/STM32F4xx_HAL_Driver/Src/stm32f4xx_ll_usb.c **** 
 589:Drivers/STM32F4xx_HAL_Driver/Src/stm32f4xx_ll_usb.c ****   return speed;
 590:Drivers/STM32F4xx_HAL_Driver/Src/stm32f4xx_ll_usb.c **** }
 591:Drivers/STM32F4xx_HAL_Driver/Src/stm32f4xx_ll_usb.c **** 
 592:Drivers/STM32F4xx_HAL_Driver/Src/stm32f4xx_ll_usb.c **** /**
 593:Drivers/STM32F4xx_HAL_Driver/Src/stm32f4xx_ll_usb.c ****   * @brief  Activate and configure an endpoint
 594:Drivers/STM32F4xx_HAL_Driver/Src/stm32f4xx_ll_usb.c ****   * @param  USBx  Selected device
 595:Drivers/STM32F4xx_HAL_Driver/Src/stm32f4xx_ll_usb.c ****   * @param  ep pointer to endpoint structure
 596:Drivers/STM32F4xx_HAL_Driver/Src/stm32f4xx_ll_usb.c ****   * @retval HAL status
 597:Drivers/STM32F4xx_HAL_Driver/Src/stm32f4xx_ll_usb.c ****   */
 598:Drivers/STM32F4xx_HAL_Driver/Src/stm32f4xx_ll_usb.c **** HAL_StatusTypeDef USB_ActivateEndpoint(const USB_OTG_GlobalTypeDef *USBx, const USB_OTG_EPTypeDef *
 599:Drivers/STM32F4xx_HAL_Driver/Src/stm32f4xx_ll_usb.c **** {
 600:Drivers/STM32F4xx_HAL_Driver/Src/stm32f4xx_ll_usb.c ****   uint32_t USBx_BASE = (uint32_t)USBx;
ARM GAS  /tmp/ccELzqP8.s 			page 12


 601:Drivers/STM32F4xx_HAL_Driver/Src/stm32f4xx_ll_usb.c ****   uint32_t epnum = (uint32_t)ep->num;
 602:Drivers/STM32F4xx_HAL_Driver/Src/stm32f4xx_ll_usb.c **** 
 603:Drivers/STM32F4xx_HAL_Driver/Src/stm32f4xx_ll_usb.c ****   if (ep->is_in == 1U)
 604:Drivers/STM32F4xx_HAL_Driver/Src/stm32f4xx_ll_usb.c ****   {
 605:Drivers/STM32F4xx_HAL_Driver/Src/stm32f4xx_ll_usb.c ****     USBx_DEVICE->DAINTMSK |= USB_OTG_DAINTMSK_IEPM & (uint32_t)(1UL << (ep->num & EP_ADDR_MSK));
 606:Drivers/STM32F4xx_HAL_Driver/Src/stm32f4xx_ll_usb.c **** 
 607:Drivers/STM32F4xx_HAL_Driver/Src/stm32f4xx_ll_usb.c ****     if ((USBx_INEP(epnum)->DIEPCTL & USB_OTG_DIEPCTL_USBAEP) == 0U)
 608:Drivers/STM32F4xx_HAL_Driver/Src/stm32f4xx_ll_usb.c ****     {
 609:Drivers/STM32F4xx_HAL_Driver/Src/stm32f4xx_ll_usb.c ****       USBx_INEP(epnum)->DIEPCTL |= (ep->maxpacket & USB_OTG_DIEPCTL_MPSIZ) |
 610:Drivers/STM32F4xx_HAL_Driver/Src/stm32f4xx_ll_usb.c ****                                    ((uint32_t)ep->type << 18) | (epnum << 22) |
 611:Drivers/STM32F4xx_HAL_Driver/Src/stm32f4xx_ll_usb.c ****                                    USB_OTG_DIEPCTL_SD0PID_SEVNFRM |
 612:Drivers/STM32F4xx_HAL_Driver/Src/stm32f4xx_ll_usb.c ****                                    USB_OTG_DIEPCTL_USBAEP;
 613:Drivers/STM32F4xx_HAL_Driver/Src/stm32f4xx_ll_usb.c ****     }
 614:Drivers/STM32F4xx_HAL_Driver/Src/stm32f4xx_ll_usb.c ****   }
 615:Drivers/STM32F4xx_HAL_Driver/Src/stm32f4xx_ll_usb.c ****   else
 616:Drivers/STM32F4xx_HAL_Driver/Src/stm32f4xx_ll_usb.c ****   {
 617:Drivers/STM32F4xx_HAL_Driver/Src/stm32f4xx_ll_usb.c ****     USBx_DEVICE->DAINTMSK |= USB_OTG_DAINTMSK_OEPM & ((uint32_t)(1UL << (ep->num & EP_ADDR_MSK)) <<
 618:Drivers/STM32F4xx_HAL_Driver/Src/stm32f4xx_ll_usb.c **** 
 619:Drivers/STM32F4xx_HAL_Driver/Src/stm32f4xx_ll_usb.c ****     if (((USBx_OUTEP(epnum)->DOEPCTL) & USB_OTG_DOEPCTL_USBAEP) == 0U)
 620:Drivers/STM32F4xx_HAL_Driver/Src/stm32f4xx_ll_usb.c ****     {
 621:Drivers/STM32F4xx_HAL_Driver/Src/stm32f4xx_ll_usb.c ****       USBx_OUTEP(epnum)->DOEPCTL |= (ep->maxpacket & USB_OTG_DOEPCTL_MPSIZ) |
 622:Drivers/STM32F4xx_HAL_Driver/Src/stm32f4xx_ll_usb.c ****                                     ((uint32_t)ep->type << 18) |
 623:Drivers/STM32F4xx_HAL_Driver/Src/stm32f4xx_ll_usb.c ****                                     USB_OTG_DIEPCTL_SD0PID_SEVNFRM |
 624:Drivers/STM32F4xx_HAL_Driver/Src/stm32f4xx_ll_usb.c ****                                     USB_OTG_DOEPCTL_USBAEP;
 625:Drivers/STM32F4xx_HAL_Driver/Src/stm32f4xx_ll_usb.c ****     }
 626:Drivers/STM32F4xx_HAL_Driver/Src/stm32f4xx_ll_usb.c ****   }
 627:Drivers/STM32F4xx_HAL_Driver/Src/stm32f4xx_ll_usb.c ****   return HAL_OK;
 628:Drivers/STM32F4xx_HAL_Driver/Src/stm32f4xx_ll_usb.c **** }
 629:Drivers/STM32F4xx_HAL_Driver/Src/stm32f4xx_ll_usb.c **** 
 630:Drivers/STM32F4xx_HAL_Driver/Src/stm32f4xx_ll_usb.c **** /**
 631:Drivers/STM32F4xx_HAL_Driver/Src/stm32f4xx_ll_usb.c ****   * @brief  Activate and configure a dedicated endpoint
 632:Drivers/STM32F4xx_HAL_Driver/Src/stm32f4xx_ll_usb.c ****   * @param  USBx  Selected device
 633:Drivers/STM32F4xx_HAL_Driver/Src/stm32f4xx_ll_usb.c ****   * @param  ep pointer to endpoint structure
 634:Drivers/STM32F4xx_HAL_Driver/Src/stm32f4xx_ll_usb.c ****   * @retval HAL status
 635:Drivers/STM32F4xx_HAL_Driver/Src/stm32f4xx_ll_usb.c ****   */
 636:Drivers/STM32F4xx_HAL_Driver/Src/stm32f4xx_ll_usb.c **** HAL_StatusTypeDef USB_ActivateDedicatedEndpoint(const USB_OTG_GlobalTypeDef *USBx, const USB_OTG_EP
 637:Drivers/STM32F4xx_HAL_Driver/Src/stm32f4xx_ll_usb.c **** {
 638:Drivers/STM32F4xx_HAL_Driver/Src/stm32f4xx_ll_usb.c ****   uint32_t USBx_BASE = (uint32_t)USBx;
 639:Drivers/STM32F4xx_HAL_Driver/Src/stm32f4xx_ll_usb.c ****   uint32_t epnum = (uint32_t)ep->num;
 640:Drivers/STM32F4xx_HAL_Driver/Src/stm32f4xx_ll_usb.c **** 
 641:Drivers/STM32F4xx_HAL_Driver/Src/stm32f4xx_ll_usb.c ****   /* Read DEPCTLn register */
 642:Drivers/STM32F4xx_HAL_Driver/Src/stm32f4xx_ll_usb.c ****   if (ep->is_in == 1U)
 643:Drivers/STM32F4xx_HAL_Driver/Src/stm32f4xx_ll_usb.c ****   {
 644:Drivers/STM32F4xx_HAL_Driver/Src/stm32f4xx_ll_usb.c ****     if (((USBx_INEP(epnum)->DIEPCTL) & USB_OTG_DIEPCTL_USBAEP) == 0U)
 645:Drivers/STM32F4xx_HAL_Driver/Src/stm32f4xx_ll_usb.c ****     {
 646:Drivers/STM32F4xx_HAL_Driver/Src/stm32f4xx_ll_usb.c ****       USBx_INEP(epnum)->DIEPCTL |= (ep->maxpacket & USB_OTG_DIEPCTL_MPSIZ) |
 647:Drivers/STM32F4xx_HAL_Driver/Src/stm32f4xx_ll_usb.c ****                                    ((uint32_t)ep->type << 18) | (epnum << 22) |
 648:Drivers/STM32F4xx_HAL_Driver/Src/stm32f4xx_ll_usb.c ****                                    USB_OTG_DIEPCTL_SD0PID_SEVNFRM |
 649:Drivers/STM32F4xx_HAL_Driver/Src/stm32f4xx_ll_usb.c ****                                    USB_OTG_DIEPCTL_USBAEP;
 650:Drivers/STM32F4xx_HAL_Driver/Src/stm32f4xx_ll_usb.c ****     }
 651:Drivers/STM32F4xx_HAL_Driver/Src/stm32f4xx_ll_usb.c **** 
 652:Drivers/STM32F4xx_HAL_Driver/Src/stm32f4xx_ll_usb.c ****     USBx_DEVICE->DEACHMSK |= USB_OTG_DAINTMSK_IEPM & (uint32_t)(1UL << (ep->num & EP_ADDR_MSK));
 653:Drivers/STM32F4xx_HAL_Driver/Src/stm32f4xx_ll_usb.c ****   }
 654:Drivers/STM32F4xx_HAL_Driver/Src/stm32f4xx_ll_usb.c ****   else
 655:Drivers/STM32F4xx_HAL_Driver/Src/stm32f4xx_ll_usb.c ****   {
 656:Drivers/STM32F4xx_HAL_Driver/Src/stm32f4xx_ll_usb.c ****     if (((USBx_OUTEP(epnum)->DOEPCTL) & USB_OTG_DOEPCTL_USBAEP) == 0U)
 657:Drivers/STM32F4xx_HAL_Driver/Src/stm32f4xx_ll_usb.c ****     {
ARM GAS  /tmp/ccELzqP8.s 			page 13


 658:Drivers/STM32F4xx_HAL_Driver/Src/stm32f4xx_ll_usb.c ****       USBx_OUTEP(epnum)->DOEPCTL |= (ep->maxpacket & USB_OTG_DOEPCTL_MPSIZ) |
 659:Drivers/STM32F4xx_HAL_Driver/Src/stm32f4xx_ll_usb.c ****                                     ((uint32_t)ep->type << 18) | (epnum << 22) |
 660:Drivers/STM32F4xx_HAL_Driver/Src/stm32f4xx_ll_usb.c ****                                     USB_OTG_DOEPCTL_USBAEP;
 661:Drivers/STM32F4xx_HAL_Driver/Src/stm32f4xx_ll_usb.c ****     }
 662:Drivers/STM32F4xx_HAL_Driver/Src/stm32f4xx_ll_usb.c **** 
 663:Drivers/STM32F4xx_HAL_Driver/Src/stm32f4xx_ll_usb.c ****     USBx_DEVICE->DEACHMSK |= USB_OTG_DAINTMSK_OEPM & ((uint32_t)(1UL << (ep->num & EP_ADDR_MSK)) <<
 664:Drivers/STM32F4xx_HAL_Driver/Src/stm32f4xx_ll_usb.c ****   }
 665:Drivers/STM32F4xx_HAL_Driver/Src/stm32f4xx_ll_usb.c **** 
 666:Drivers/STM32F4xx_HAL_Driver/Src/stm32f4xx_ll_usb.c ****   return HAL_OK;
 667:Drivers/STM32F4xx_HAL_Driver/Src/stm32f4xx_ll_usb.c **** }
 668:Drivers/STM32F4xx_HAL_Driver/Src/stm32f4xx_ll_usb.c **** 
 669:Drivers/STM32F4xx_HAL_Driver/Src/stm32f4xx_ll_usb.c **** /**
 670:Drivers/STM32F4xx_HAL_Driver/Src/stm32f4xx_ll_usb.c ****   * @brief  De-activate and de-initialize an endpoint
 671:Drivers/STM32F4xx_HAL_Driver/Src/stm32f4xx_ll_usb.c ****   * @param  USBx  Selected device
 672:Drivers/STM32F4xx_HAL_Driver/Src/stm32f4xx_ll_usb.c ****   * @param  ep pointer to endpoint structure
 673:Drivers/STM32F4xx_HAL_Driver/Src/stm32f4xx_ll_usb.c ****   * @retval HAL status
 674:Drivers/STM32F4xx_HAL_Driver/Src/stm32f4xx_ll_usb.c ****   */
 675:Drivers/STM32F4xx_HAL_Driver/Src/stm32f4xx_ll_usb.c **** HAL_StatusTypeDef USB_DeactivateEndpoint(const USB_OTG_GlobalTypeDef *USBx, const USB_OTG_EPTypeDef
 676:Drivers/STM32F4xx_HAL_Driver/Src/stm32f4xx_ll_usb.c **** {
 677:Drivers/STM32F4xx_HAL_Driver/Src/stm32f4xx_ll_usb.c ****   uint32_t USBx_BASE = (uint32_t)USBx;
 678:Drivers/STM32F4xx_HAL_Driver/Src/stm32f4xx_ll_usb.c ****   uint32_t epnum = (uint32_t)ep->num;
 679:Drivers/STM32F4xx_HAL_Driver/Src/stm32f4xx_ll_usb.c **** 
 680:Drivers/STM32F4xx_HAL_Driver/Src/stm32f4xx_ll_usb.c ****   /* Read DEPCTLn register */
 681:Drivers/STM32F4xx_HAL_Driver/Src/stm32f4xx_ll_usb.c ****   if (ep->is_in == 1U)
 682:Drivers/STM32F4xx_HAL_Driver/Src/stm32f4xx_ll_usb.c ****   {
 683:Drivers/STM32F4xx_HAL_Driver/Src/stm32f4xx_ll_usb.c ****     if ((USBx_INEP(epnum)->DIEPCTL & USB_OTG_DIEPCTL_EPENA) == USB_OTG_DIEPCTL_EPENA)
 684:Drivers/STM32F4xx_HAL_Driver/Src/stm32f4xx_ll_usb.c ****     {
 685:Drivers/STM32F4xx_HAL_Driver/Src/stm32f4xx_ll_usb.c ****       USBx_INEP(epnum)->DIEPCTL |= USB_OTG_DIEPCTL_SNAK;
 686:Drivers/STM32F4xx_HAL_Driver/Src/stm32f4xx_ll_usb.c ****       USBx_INEP(epnum)->DIEPCTL |= USB_OTG_DIEPCTL_EPDIS;
 687:Drivers/STM32F4xx_HAL_Driver/Src/stm32f4xx_ll_usb.c ****     }
 688:Drivers/STM32F4xx_HAL_Driver/Src/stm32f4xx_ll_usb.c **** 
 689:Drivers/STM32F4xx_HAL_Driver/Src/stm32f4xx_ll_usb.c ****     USBx_DEVICE->DEACHMSK &= ~(USB_OTG_DAINTMSK_IEPM & (uint32_t)(1UL << (ep->num & EP_ADDR_MSK)));
 690:Drivers/STM32F4xx_HAL_Driver/Src/stm32f4xx_ll_usb.c ****     USBx_DEVICE->DAINTMSK &= ~(USB_OTG_DAINTMSK_IEPM & (uint32_t)(1UL << (ep->num & EP_ADDR_MSK)));
 691:Drivers/STM32F4xx_HAL_Driver/Src/stm32f4xx_ll_usb.c ****     USBx_INEP(epnum)->DIEPCTL &= ~(USB_OTG_DIEPCTL_USBAEP |
 692:Drivers/STM32F4xx_HAL_Driver/Src/stm32f4xx_ll_usb.c ****                                    USB_OTG_DIEPCTL_MPSIZ |
 693:Drivers/STM32F4xx_HAL_Driver/Src/stm32f4xx_ll_usb.c ****                                    USB_OTG_DIEPCTL_TXFNUM |
 694:Drivers/STM32F4xx_HAL_Driver/Src/stm32f4xx_ll_usb.c ****                                    USB_OTG_DIEPCTL_SD0PID_SEVNFRM |
 695:Drivers/STM32F4xx_HAL_Driver/Src/stm32f4xx_ll_usb.c ****                                    USB_OTG_DIEPCTL_EPTYP);
 696:Drivers/STM32F4xx_HAL_Driver/Src/stm32f4xx_ll_usb.c ****   }
 697:Drivers/STM32F4xx_HAL_Driver/Src/stm32f4xx_ll_usb.c ****   else
 698:Drivers/STM32F4xx_HAL_Driver/Src/stm32f4xx_ll_usb.c ****   {
 699:Drivers/STM32F4xx_HAL_Driver/Src/stm32f4xx_ll_usb.c ****     if ((USBx_OUTEP(epnum)->DOEPCTL & USB_OTG_DOEPCTL_EPENA) == USB_OTG_DOEPCTL_EPENA)
 700:Drivers/STM32F4xx_HAL_Driver/Src/stm32f4xx_ll_usb.c ****     {
 701:Drivers/STM32F4xx_HAL_Driver/Src/stm32f4xx_ll_usb.c ****       USBx_OUTEP(epnum)->DOEPCTL |= USB_OTG_DOEPCTL_SNAK;
 702:Drivers/STM32F4xx_HAL_Driver/Src/stm32f4xx_ll_usb.c ****       USBx_OUTEP(epnum)->DOEPCTL |= USB_OTG_DOEPCTL_EPDIS;
 703:Drivers/STM32F4xx_HAL_Driver/Src/stm32f4xx_ll_usb.c ****     }
 704:Drivers/STM32F4xx_HAL_Driver/Src/stm32f4xx_ll_usb.c **** 
 705:Drivers/STM32F4xx_HAL_Driver/Src/stm32f4xx_ll_usb.c ****     USBx_DEVICE->DEACHMSK &= ~(USB_OTG_DAINTMSK_OEPM & ((uint32_t)(1UL << (ep->num & EP_ADDR_MSK)) 
 706:Drivers/STM32F4xx_HAL_Driver/Src/stm32f4xx_ll_usb.c ****     USBx_DEVICE->DAINTMSK &= ~(USB_OTG_DAINTMSK_OEPM & ((uint32_t)(1UL << (ep->num & EP_ADDR_MSK)) 
 707:Drivers/STM32F4xx_HAL_Driver/Src/stm32f4xx_ll_usb.c ****     USBx_OUTEP(epnum)->DOEPCTL &= ~(USB_OTG_DOEPCTL_USBAEP |
 708:Drivers/STM32F4xx_HAL_Driver/Src/stm32f4xx_ll_usb.c ****                                     USB_OTG_DOEPCTL_MPSIZ |
 709:Drivers/STM32F4xx_HAL_Driver/Src/stm32f4xx_ll_usb.c ****                                     USB_OTG_DOEPCTL_SD0PID_SEVNFRM |
 710:Drivers/STM32F4xx_HAL_Driver/Src/stm32f4xx_ll_usb.c ****                                     USB_OTG_DOEPCTL_EPTYP);
 711:Drivers/STM32F4xx_HAL_Driver/Src/stm32f4xx_ll_usb.c ****   }
 712:Drivers/STM32F4xx_HAL_Driver/Src/stm32f4xx_ll_usb.c **** 
 713:Drivers/STM32F4xx_HAL_Driver/Src/stm32f4xx_ll_usb.c ****   return HAL_OK;
 714:Drivers/STM32F4xx_HAL_Driver/Src/stm32f4xx_ll_usb.c **** }
ARM GAS  /tmp/ccELzqP8.s 			page 14


 715:Drivers/STM32F4xx_HAL_Driver/Src/stm32f4xx_ll_usb.c **** 
 716:Drivers/STM32F4xx_HAL_Driver/Src/stm32f4xx_ll_usb.c **** /**
 717:Drivers/STM32F4xx_HAL_Driver/Src/stm32f4xx_ll_usb.c ****   * @brief  De-activate and de-initialize a dedicated endpoint
 718:Drivers/STM32F4xx_HAL_Driver/Src/stm32f4xx_ll_usb.c ****   * @param  USBx  Selected device
 719:Drivers/STM32F4xx_HAL_Driver/Src/stm32f4xx_ll_usb.c ****   * @param  ep pointer to endpoint structure
 720:Drivers/STM32F4xx_HAL_Driver/Src/stm32f4xx_ll_usb.c ****   * @retval HAL status
 721:Drivers/STM32F4xx_HAL_Driver/Src/stm32f4xx_ll_usb.c ****   */
 722:Drivers/STM32F4xx_HAL_Driver/Src/stm32f4xx_ll_usb.c **** HAL_StatusTypeDef USB_DeactivateDedicatedEndpoint(const USB_OTG_GlobalTypeDef *USBx, const USB_OTG_
 723:Drivers/STM32F4xx_HAL_Driver/Src/stm32f4xx_ll_usb.c **** {
 724:Drivers/STM32F4xx_HAL_Driver/Src/stm32f4xx_ll_usb.c ****   uint32_t USBx_BASE = (uint32_t)USBx;
 725:Drivers/STM32F4xx_HAL_Driver/Src/stm32f4xx_ll_usb.c ****   uint32_t epnum = (uint32_t)ep->num;
 726:Drivers/STM32F4xx_HAL_Driver/Src/stm32f4xx_ll_usb.c **** 
 727:Drivers/STM32F4xx_HAL_Driver/Src/stm32f4xx_ll_usb.c ****   /* Read DEPCTLn register */
 728:Drivers/STM32F4xx_HAL_Driver/Src/stm32f4xx_ll_usb.c ****   if (ep->is_in == 1U)
 729:Drivers/STM32F4xx_HAL_Driver/Src/stm32f4xx_ll_usb.c ****   {
 730:Drivers/STM32F4xx_HAL_Driver/Src/stm32f4xx_ll_usb.c ****     if ((USBx_INEP(epnum)->DIEPCTL & USB_OTG_DIEPCTL_EPENA) == USB_OTG_DIEPCTL_EPENA)
 731:Drivers/STM32F4xx_HAL_Driver/Src/stm32f4xx_ll_usb.c ****     {
 732:Drivers/STM32F4xx_HAL_Driver/Src/stm32f4xx_ll_usb.c ****       USBx_INEP(epnum)->DIEPCTL  |= USB_OTG_DIEPCTL_SNAK;
 733:Drivers/STM32F4xx_HAL_Driver/Src/stm32f4xx_ll_usb.c ****       USBx_INEP(epnum)->DIEPCTL  |= USB_OTG_DIEPCTL_EPDIS;
 734:Drivers/STM32F4xx_HAL_Driver/Src/stm32f4xx_ll_usb.c ****     }
 735:Drivers/STM32F4xx_HAL_Driver/Src/stm32f4xx_ll_usb.c **** 
 736:Drivers/STM32F4xx_HAL_Driver/Src/stm32f4xx_ll_usb.c ****     USBx_INEP(epnum)->DIEPCTL &= ~ USB_OTG_DIEPCTL_USBAEP;
 737:Drivers/STM32F4xx_HAL_Driver/Src/stm32f4xx_ll_usb.c ****     USBx_DEVICE->DAINTMSK &= ~(USB_OTG_DAINTMSK_IEPM & (uint32_t)(1UL << (ep->num & EP_ADDR_MSK)));
 738:Drivers/STM32F4xx_HAL_Driver/Src/stm32f4xx_ll_usb.c ****   }
 739:Drivers/STM32F4xx_HAL_Driver/Src/stm32f4xx_ll_usb.c ****   else
 740:Drivers/STM32F4xx_HAL_Driver/Src/stm32f4xx_ll_usb.c ****   {
 741:Drivers/STM32F4xx_HAL_Driver/Src/stm32f4xx_ll_usb.c ****     if ((USBx_OUTEP(epnum)->DOEPCTL & USB_OTG_DOEPCTL_EPENA) == USB_OTG_DOEPCTL_EPENA)
 742:Drivers/STM32F4xx_HAL_Driver/Src/stm32f4xx_ll_usb.c ****     {
 743:Drivers/STM32F4xx_HAL_Driver/Src/stm32f4xx_ll_usb.c ****       USBx_OUTEP(epnum)->DOEPCTL  |= USB_OTG_DOEPCTL_SNAK;
 744:Drivers/STM32F4xx_HAL_Driver/Src/stm32f4xx_ll_usb.c ****       USBx_OUTEP(epnum)->DOEPCTL  |= USB_OTG_DOEPCTL_EPDIS;
 745:Drivers/STM32F4xx_HAL_Driver/Src/stm32f4xx_ll_usb.c ****     }
 746:Drivers/STM32F4xx_HAL_Driver/Src/stm32f4xx_ll_usb.c **** 
 747:Drivers/STM32F4xx_HAL_Driver/Src/stm32f4xx_ll_usb.c ****     USBx_OUTEP(epnum)->DOEPCTL &= ~USB_OTG_DOEPCTL_USBAEP;
 748:Drivers/STM32F4xx_HAL_Driver/Src/stm32f4xx_ll_usb.c ****     USBx_DEVICE->DAINTMSK &= ~(USB_OTG_DAINTMSK_OEPM & ((uint32_t)(1UL << (ep->num & EP_ADDR_MSK)) 
 749:Drivers/STM32F4xx_HAL_Driver/Src/stm32f4xx_ll_usb.c ****   }
 750:Drivers/STM32F4xx_HAL_Driver/Src/stm32f4xx_ll_usb.c **** 
 751:Drivers/STM32F4xx_HAL_Driver/Src/stm32f4xx_ll_usb.c ****   return HAL_OK;
 752:Drivers/STM32F4xx_HAL_Driver/Src/stm32f4xx_ll_usb.c **** }
 753:Drivers/STM32F4xx_HAL_Driver/Src/stm32f4xx_ll_usb.c **** 
 754:Drivers/STM32F4xx_HAL_Driver/Src/stm32f4xx_ll_usb.c **** /**
 755:Drivers/STM32F4xx_HAL_Driver/Src/stm32f4xx_ll_usb.c ****   * @brief  USB_EPStartXfer : setup and starts a transfer over an EP
 756:Drivers/STM32F4xx_HAL_Driver/Src/stm32f4xx_ll_usb.c ****   * @param  USBx  Selected device
 757:Drivers/STM32F4xx_HAL_Driver/Src/stm32f4xx_ll_usb.c ****   * @param  ep pointer to endpoint structure
 758:Drivers/STM32F4xx_HAL_Driver/Src/stm32f4xx_ll_usb.c ****   * @param  dma USB dma enabled or disabled
 759:Drivers/STM32F4xx_HAL_Driver/Src/stm32f4xx_ll_usb.c ****   *          This parameter can be one of these values:
 760:Drivers/STM32F4xx_HAL_Driver/Src/stm32f4xx_ll_usb.c ****   *           0 : DMA feature not used
 761:Drivers/STM32F4xx_HAL_Driver/Src/stm32f4xx_ll_usb.c ****   *           1 : DMA feature used
 762:Drivers/STM32F4xx_HAL_Driver/Src/stm32f4xx_ll_usb.c ****   * @retval HAL status
 763:Drivers/STM32F4xx_HAL_Driver/Src/stm32f4xx_ll_usb.c ****   */
 764:Drivers/STM32F4xx_HAL_Driver/Src/stm32f4xx_ll_usb.c **** HAL_StatusTypeDef USB_EPStartXfer(USB_OTG_GlobalTypeDef *USBx, USB_OTG_EPTypeDef *ep, uint8_t dma)
 765:Drivers/STM32F4xx_HAL_Driver/Src/stm32f4xx_ll_usb.c **** {
 766:Drivers/STM32F4xx_HAL_Driver/Src/stm32f4xx_ll_usb.c ****   uint32_t USBx_BASE = (uint32_t)USBx;
 767:Drivers/STM32F4xx_HAL_Driver/Src/stm32f4xx_ll_usb.c ****   uint32_t epnum = (uint32_t)ep->num;
 768:Drivers/STM32F4xx_HAL_Driver/Src/stm32f4xx_ll_usb.c ****   uint16_t pktcnt;
 769:Drivers/STM32F4xx_HAL_Driver/Src/stm32f4xx_ll_usb.c **** 
 770:Drivers/STM32F4xx_HAL_Driver/Src/stm32f4xx_ll_usb.c ****   /* IN endpoint */
 771:Drivers/STM32F4xx_HAL_Driver/Src/stm32f4xx_ll_usb.c ****   if (ep->is_in == 1U)
ARM GAS  /tmp/ccELzqP8.s 			page 15


 772:Drivers/STM32F4xx_HAL_Driver/Src/stm32f4xx_ll_usb.c ****   {
 773:Drivers/STM32F4xx_HAL_Driver/Src/stm32f4xx_ll_usb.c ****     /* Zero Length Packet? */
 774:Drivers/STM32F4xx_HAL_Driver/Src/stm32f4xx_ll_usb.c ****     if (ep->xfer_len == 0U)
 775:Drivers/STM32F4xx_HAL_Driver/Src/stm32f4xx_ll_usb.c ****     {
 776:Drivers/STM32F4xx_HAL_Driver/Src/stm32f4xx_ll_usb.c ****       USBx_INEP(epnum)->DIEPTSIZ &= ~(USB_OTG_DIEPTSIZ_PKTCNT);
 777:Drivers/STM32F4xx_HAL_Driver/Src/stm32f4xx_ll_usb.c ****       USBx_INEP(epnum)->DIEPTSIZ |= (USB_OTG_DIEPTSIZ_PKTCNT & (1U << 19));
 778:Drivers/STM32F4xx_HAL_Driver/Src/stm32f4xx_ll_usb.c ****       USBx_INEP(epnum)->DIEPTSIZ &= ~(USB_OTG_DIEPTSIZ_XFRSIZ);
 779:Drivers/STM32F4xx_HAL_Driver/Src/stm32f4xx_ll_usb.c ****     }
 780:Drivers/STM32F4xx_HAL_Driver/Src/stm32f4xx_ll_usb.c ****     else
 781:Drivers/STM32F4xx_HAL_Driver/Src/stm32f4xx_ll_usb.c ****     {
 782:Drivers/STM32F4xx_HAL_Driver/Src/stm32f4xx_ll_usb.c ****       /* Program the transfer size and packet count
 783:Drivers/STM32F4xx_HAL_Driver/Src/stm32f4xx_ll_usb.c ****       * as follows: xfersize = N * maxpacket +
 784:Drivers/STM32F4xx_HAL_Driver/Src/stm32f4xx_ll_usb.c ****       * short_packet pktcnt = N + (short_packet
 785:Drivers/STM32F4xx_HAL_Driver/Src/stm32f4xx_ll_usb.c ****       * exist ? 1 : 0)
 786:Drivers/STM32F4xx_HAL_Driver/Src/stm32f4xx_ll_usb.c ****       */
 787:Drivers/STM32F4xx_HAL_Driver/Src/stm32f4xx_ll_usb.c ****       USBx_INEP(epnum)->DIEPTSIZ &= ~(USB_OTG_DIEPTSIZ_XFRSIZ);
 788:Drivers/STM32F4xx_HAL_Driver/Src/stm32f4xx_ll_usb.c ****       USBx_INEP(epnum)->DIEPTSIZ &= ~(USB_OTG_DIEPTSIZ_PKTCNT);
 789:Drivers/STM32F4xx_HAL_Driver/Src/stm32f4xx_ll_usb.c **** 
 790:Drivers/STM32F4xx_HAL_Driver/Src/stm32f4xx_ll_usb.c ****       if (epnum == 0U)
 791:Drivers/STM32F4xx_HAL_Driver/Src/stm32f4xx_ll_usb.c ****       {
 792:Drivers/STM32F4xx_HAL_Driver/Src/stm32f4xx_ll_usb.c ****         if (ep->xfer_len > ep->maxpacket)
 793:Drivers/STM32F4xx_HAL_Driver/Src/stm32f4xx_ll_usb.c ****         {
 794:Drivers/STM32F4xx_HAL_Driver/Src/stm32f4xx_ll_usb.c ****           ep->xfer_len = ep->maxpacket;
 795:Drivers/STM32F4xx_HAL_Driver/Src/stm32f4xx_ll_usb.c ****         }
 796:Drivers/STM32F4xx_HAL_Driver/Src/stm32f4xx_ll_usb.c **** 
 797:Drivers/STM32F4xx_HAL_Driver/Src/stm32f4xx_ll_usb.c ****         USBx_INEP(epnum)->DIEPTSIZ |= (USB_OTG_DIEPTSIZ_PKTCNT & (1U << 19));
 798:Drivers/STM32F4xx_HAL_Driver/Src/stm32f4xx_ll_usb.c ****       }
 799:Drivers/STM32F4xx_HAL_Driver/Src/stm32f4xx_ll_usb.c ****       else
 800:Drivers/STM32F4xx_HAL_Driver/Src/stm32f4xx_ll_usb.c ****       {
 801:Drivers/STM32F4xx_HAL_Driver/Src/stm32f4xx_ll_usb.c ****         pktcnt = (uint16_t)((ep->xfer_len + ep->maxpacket - 1U) / ep->maxpacket);
 802:Drivers/STM32F4xx_HAL_Driver/Src/stm32f4xx_ll_usb.c ****         USBx_INEP(epnum)->DIEPTSIZ |= (USB_OTG_DIEPTSIZ_PKTCNT & ((uint32_t)pktcnt << 19));
 803:Drivers/STM32F4xx_HAL_Driver/Src/stm32f4xx_ll_usb.c **** 
 804:Drivers/STM32F4xx_HAL_Driver/Src/stm32f4xx_ll_usb.c ****         if (ep->type == EP_TYPE_ISOC)
 805:Drivers/STM32F4xx_HAL_Driver/Src/stm32f4xx_ll_usb.c ****         {
 806:Drivers/STM32F4xx_HAL_Driver/Src/stm32f4xx_ll_usb.c ****           USBx_INEP(epnum)->DIEPTSIZ &= ~(USB_OTG_DIEPTSIZ_MULCNT);
 807:Drivers/STM32F4xx_HAL_Driver/Src/stm32f4xx_ll_usb.c ****           USBx_INEP(epnum)->DIEPTSIZ |= (USB_OTG_DIEPTSIZ_MULCNT & ((uint32_t)pktcnt << 29));
 808:Drivers/STM32F4xx_HAL_Driver/Src/stm32f4xx_ll_usb.c ****         }
 809:Drivers/STM32F4xx_HAL_Driver/Src/stm32f4xx_ll_usb.c ****       }
 810:Drivers/STM32F4xx_HAL_Driver/Src/stm32f4xx_ll_usb.c **** 
 811:Drivers/STM32F4xx_HAL_Driver/Src/stm32f4xx_ll_usb.c ****       USBx_INEP(epnum)->DIEPTSIZ |= (USB_OTG_DIEPTSIZ_XFRSIZ & ep->xfer_len);
 812:Drivers/STM32F4xx_HAL_Driver/Src/stm32f4xx_ll_usb.c ****     }
 813:Drivers/STM32F4xx_HAL_Driver/Src/stm32f4xx_ll_usb.c **** 
 814:Drivers/STM32F4xx_HAL_Driver/Src/stm32f4xx_ll_usb.c ****     if (dma == 1U)
 815:Drivers/STM32F4xx_HAL_Driver/Src/stm32f4xx_ll_usb.c ****     {
 816:Drivers/STM32F4xx_HAL_Driver/Src/stm32f4xx_ll_usb.c ****       if ((uint32_t)ep->dma_addr != 0U)
 817:Drivers/STM32F4xx_HAL_Driver/Src/stm32f4xx_ll_usb.c ****       {
 818:Drivers/STM32F4xx_HAL_Driver/Src/stm32f4xx_ll_usb.c ****         USBx_INEP(epnum)->DIEPDMA = (uint32_t)(ep->dma_addr);
 819:Drivers/STM32F4xx_HAL_Driver/Src/stm32f4xx_ll_usb.c ****       }
 820:Drivers/STM32F4xx_HAL_Driver/Src/stm32f4xx_ll_usb.c **** 
 821:Drivers/STM32F4xx_HAL_Driver/Src/stm32f4xx_ll_usb.c ****       if (ep->type == EP_TYPE_ISOC)
 822:Drivers/STM32F4xx_HAL_Driver/Src/stm32f4xx_ll_usb.c ****       {
 823:Drivers/STM32F4xx_HAL_Driver/Src/stm32f4xx_ll_usb.c ****         if ((USBx_DEVICE->DSTS & (1U << 8)) == 0U)
 824:Drivers/STM32F4xx_HAL_Driver/Src/stm32f4xx_ll_usb.c ****         {
 825:Drivers/STM32F4xx_HAL_Driver/Src/stm32f4xx_ll_usb.c ****           USBx_INEP(epnum)->DIEPCTL |= USB_OTG_DIEPCTL_SODDFRM;
 826:Drivers/STM32F4xx_HAL_Driver/Src/stm32f4xx_ll_usb.c ****         }
 827:Drivers/STM32F4xx_HAL_Driver/Src/stm32f4xx_ll_usb.c ****         else
 828:Drivers/STM32F4xx_HAL_Driver/Src/stm32f4xx_ll_usb.c ****         {
ARM GAS  /tmp/ccELzqP8.s 			page 16


 829:Drivers/STM32F4xx_HAL_Driver/Src/stm32f4xx_ll_usb.c ****           USBx_INEP(epnum)->DIEPCTL |= USB_OTG_DIEPCTL_SD0PID_SEVNFRM;
 830:Drivers/STM32F4xx_HAL_Driver/Src/stm32f4xx_ll_usb.c ****         }
 831:Drivers/STM32F4xx_HAL_Driver/Src/stm32f4xx_ll_usb.c ****       }
 832:Drivers/STM32F4xx_HAL_Driver/Src/stm32f4xx_ll_usb.c **** 
 833:Drivers/STM32F4xx_HAL_Driver/Src/stm32f4xx_ll_usb.c ****       /* EP enable, IN data in FIFO */
 834:Drivers/STM32F4xx_HAL_Driver/Src/stm32f4xx_ll_usb.c ****       USBx_INEP(epnum)->DIEPCTL |= (USB_OTG_DIEPCTL_CNAK | USB_OTG_DIEPCTL_EPENA);
 835:Drivers/STM32F4xx_HAL_Driver/Src/stm32f4xx_ll_usb.c ****     }
 836:Drivers/STM32F4xx_HAL_Driver/Src/stm32f4xx_ll_usb.c ****     else
 837:Drivers/STM32F4xx_HAL_Driver/Src/stm32f4xx_ll_usb.c ****     {
 838:Drivers/STM32F4xx_HAL_Driver/Src/stm32f4xx_ll_usb.c ****       /* EP enable, IN data in FIFO */
 839:Drivers/STM32F4xx_HAL_Driver/Src/stm32f4xx_ll_usb.c ****       USBx_INEP(epnum)->DIEPCTL |= (USB_OTG_DIEPCTL_CNAK | USB_OTG_DIEPCTL_EPENA);
 840:Drivers/STM32F4xx_HAL_Driver/Src/stm32f4xx_ll_usb.c **** 
 841:Drivers/STM32F4xx_HAL_Driver/Src/stm32f4xx_ll_usb.c ****       if (ep->type != EP_TYPE_ISOC)
 842:Drivers/STM32F4xx_HAL_Driver/Src/stm32f4xx_ll_usb.c ****       {
 843:Drivers/STM32F4xx_HAL_Driver/Src/stm32f4xx_ll_usb.c ****         /* Enable the Tx FIFO Empty Interrupt for this EP */
 844:Drivers/STM32F4xx_HAL_Driver/Src/stm32f4xx_ll_usb.c ****         if (ep->xfer_len > 0U)
 845:Drivers/STM32F4xx_HAL_Driver/Src/stm32f4xx_ll_usb.c ****         {
 846:Drivers/STM32F4xx_HAL_Driver/Src/stm32f4xx_ll_usb.c ****           USBx_DEVICE->DIEPEMPMSK |= 1UL << (ep->num & EP_ADDR_MSK);
 847:Drivers/STM32F4xx_HAL_Driver/Src/stm32f4xx_ll_usb.c ****         }
 848:Drivers/STM32F4xx_HAL_Driver/Src/stm32f4xx_ll_usb.c ****       }
 849:Drivers/STM32F4xx_HAL_Driver/Src/stm32f4xx_ll_usb.c ****       else
 850:Drivers/STM32F4xx_HAL_Driver/Src/stm32f4xx_ll_usb.c ****       {
 851:Drivers/STM32F4xx_HAL_Driver/Src/stm32f4xx_ll_usb.c ****         if ((USBx_DEVICE->DSTS & (1U << 8)) == 0U)
 852:Drivers/STM32F4xx_HAL_Driver/Src/stm32f4xx_ll_usb.c ****         {
 853:Drivers/STM32F4xx_HAL_Driver/Src/stm32f4xx_ll_usb.c ****           USBx_INEP(epnum)->DIEPCTL |= USB_OTG_DIEPCTL_SODDFRM;
 854:Drivers/STM32F4xx_HAL_Driver/Src/stm32f4xx_ll_usb.c ****         }
 855:Drivers/STM32F4xx_HAL_Driver/Src/stm32f4xx_ll_usb.c ****         else
 856:Drivers/STM32F4xx_HAL_Driver/Src/stm32f4xx_ll_usb.c ****         {
 857:Drivers/STM32F4xx_HAL_Driver/Src/stm32f4xx_ll_usb.c ****           USBx_INEP(epnum)->DIEPCTL |= USB_OTG_DIEPCTL_SD0PID_SEVNFRM;
 858:Drivers/STM32F4xx_HAL_Driver/Src/stm32f4xx_ll_usb.c ****         }
 859:Drivers/STM32F4xx_HAL_Driver/Src/stm32f4xx_ll_usb.c **** 
 860:Drivers/STM32F4xx_HAL_Driver/Src/stm32f4xx_ll_usb.c ****         (void)USB_WritePacket(USBx, ep->xfer_buff, ep->num, (uint16_t)ep->xfer_len, dma);
 861:Drivers/STM32F4xx_HAL_Driver/Src/stm32f4xx_ll_usb.c ****       }
 862:Drivers/STM32F4xx_HAL_Driver/Src/stm32f4xx_ll_usb.c ****     }
 863:Drivers/STM32F4xx_HAL_Driver/Src/stm32f4xx_ll_usb.c ****   }
 864:Drivers/STM32F4xx_HAL_Driver/Src/stm32f4xx_ll_usb.c ****   else /* OUT endpoint */
 865:Drivers/STM32F4xx_HAL_Driver/Src/stm32f4xx_ll_usb.c ****   {
 866:Drivers/STM32F4xx_HAL_Driver/Src/stm32f4xx_ll_usb.c ****     /* Program the transfer size and packet count as follows:
 867:Drivers/STM32F4xx_HAL_Driver/Src/stm32f4xx_ll_usb.c ****     * pktcnt = N
 868:Drivers/STM32F4xx_HAL_Driver/Src/stm32f4xx_ll_usb.c ****     * xfersize = N * maxpacket
 869:Drivers/STM32F4xx_HAL_Driver/Src/stm32f4xx_ll_usb.c ****     */
 870:Drivers/STM32F4xx_HAL_Driver/Src/stm32f4xx_ll_usb.c ****     USBx_OUTEP(epnum)->DOEPTSIZ &= ~(USB_OTG_DOEPTSIZ_XFRSIZ);
 871:Drivers/STM32F4xx_HAL_Driver/Src/stm32f4xx_ll_usb.c ****     USBx_OUTEP(epnum)->DOEPTSIZ &= ~(USB_OTG_DOEPTSIZ_PKTCNT);
 872:Drivers/STM32F4xx_HAL_Driver/Src/stm32f4xx_ll_usb.c **** 
 873:Drivers/STM32F4xx_HAL_Driver/Src/stm32f4xx_ll_usb.c ****     if (epnum == 0U)
 874:Drivers/STM32F4xx_HAL_Driver/Src/stm32f4xx_ll_usb.c ****     {
 875:Drivers/STM32F4xx_HAL_Driver/Src/stm32f4xx_ll_usb.c ****       if (ep->xfer_len > 0U)
 876:Drivers/STM32F4xx_HAL_Driver/Src/stm32f4xx_ll_usb.c ****       {
 877:Drivers/STM32F4xx_HAL_Driver/Src/stm32f4xx_ll_usb.c ****         ep->xfer_len = ep->maxpacket;
 878:Drivers/STM32F4xx_HAL_Driver/Src/stm32f4xx_ll_usb.c ****       }
 879:Drivers/STM32F4xx_HAL_Driver/Src/stm32f4xx_ll_usb.c **** 
 880:Drivers/STM32F4xx_HAL_Driver/Src/stm32f4xx_ll_usb.c ****       /* Store transfer size, for EP0 this is equal to endpoint max packet size */
 881:Drivers/STM32F4xx_HAL_Driver/Src/stm32f4xx_ll_usb.c ****       ep->xfer_size = ep->maxpacket;
 882:Drivers/STM32F4xx_HAL_Driver/Src/stm32f4xx_ll_usb.c **** 
 883:Drivers/STM32F4xx_HAL_Driver/Src/stm32f4xx_ll_usb.c ****       USBx_OUTEP(epnum)->DOEPTSIZ |= (USB_OTG_DOEPTSIZ_XFRSIZ & ep->xfer_size);
 884:Drivers/STM32F4xx_HAL_Driver/Src/stm32f4xx_ll_usb.c ****       USBx_OUTEP(epnum)->DOEPTSIZ |= (USB_OTG_DOEPTSIZ_PKTCNT & (1U << 19));
 885:Drivers/STM32F4xx_HAL_Driver/Src/stm32f4xx_ll_usb.c ****     }
ARM GAS  /tmp/ccELzqP8.s 			page 17


 886:Drivers/STM32F4xx_HAL_Driver/Src/stm32f4xx_ll_usb.c ****     else
 887:Drivers/STM32F4xx_HAL_Driver/Src/stm32f4xx_ll_usb.c ****     {
 888:Drivers/STM32F4xx_HAL_Driver/Src/stm32f4xx_ll_usb.c ****       if (ep->xfer_len == 0U)
 889:Drivers/STM32F4xx_HAL_Driver/Src/stm32f4xx_ll_usb.c ****       {
 890:Drivers/STM32F4xx_HAL_Driver/Src/stm32f4xx_ll_usb.c ****         USBx_OUTEP(epnum)->DOEPTSIZ |= (USB_OTG_DOEPTSIZ_XFRSIZ & ep->maxpacket);
 891:Drivers/STM32F4xx_HAL_Driver/Src/stm32f4xx_ll_usb.c ****         USBx_OUTEP(epnum)->DOEPTSIZ |= (USB_OTG_DOEPTSIZ_PKTCNT & (1U << 19));
 892:Drivers/STM32F4xx_HAL_Driver/Src/stm32f4xx_ll_usb.c ****       }
 893:Drivers/STM32F4xx_HAL_Driver/Src/stm32f4xx_ll_usb.c ****       else
 894:Drivers/STM32F4xx_HAL_Driver/Src/stm32f4xx_ll_usb.c ****       {
 895:Drivers/STM32F4xx_HAL_Driver/Src/stm32f4xx_ll_usb.c ****         pktcnt = (uint16_t)((ep->xfer_len + ep->maxpacket - 1U) / ep->maxpacket);
 896:Drivers/STM32F4xx_HAL_Driver/Src/stm32f4xx_ll_usb.c ****         ep->xfer_size = ep->maxpacket * pktcnt;
 897:Drivers/STM32F4xx_HAL_Driver/Src/stm32f4xx_ll_usb.c **** 
 898:Drivers/STM32F4xx_HAL_Driver/Src/stm32f4xx_ll_usb.c ****         USBx_OUTEP(epnum)->DOEPTSIZ |= USB_OTG_DOEPTSIZ_PKTCNT & ((uint32_t)pktcnt << 19);
 899:Drivers/STM32F4xx_HAL_Driver/Src/stm32f4xx_ll_usb.c ****         USBx_OUTEP(epnum)->DOEPTSIZ |= USB_OTG_DOEPTSIZ_XFRSIZ & ep->xfer_size;
 900:Drivers/STM32F4xx_HAL_Driver/Src/stm32f4xx_ll_usb.c ****       }
 901:Drivers/STM32F4xx_HAL_Driver/Src/stm32f4xx_ll_usb.c ****     }
 902:Drivers/STM32F4xx_HAL_Driver/Src/stm32f4xx_ll_usb.c **** 
 903:Drivers/STM32F4xx_HAL_Driver/Src/stm32f4xx_ll_usb.c ****     if (dma == 1U)
 904:Drivers/STM32F4xx_HAL_Driver/Src/stm32f4xx_ll_usb.c ****     {
 905:Drivers/STM32F4xx_HAL_Driver/Src/stm32f4xx_ll_usb.c ****       if ((uint32_t)ep->xfer_buff != 0U)
 906:Drivers/STM32F4xx_HAL_Driver/Src/stm32f4xx_ll_usb.c ****       {
 907:Drivers/STM32F4xx_HAL_Driver/Src/stm32f4xx_ll_usb.c ****         USBx_OUTEP(epnum)->DOEPDMA = (uint32_t)(ep->xfer_buff);
 908:Drivers/STM32F4xx_HAL_Driver/Src/stm32f4xx_ll_usb.c ****       }
 909:Drivers/STM32F4xx_HAL_Driver/Src/stm32f4xx_ll_usb.c ****     }
 910:Drivers/STM32F4xx_HAL_Driver/Src/stm32f4xx_ll_usb.c **** 
 911:Drivers/STM32F4xx_HAL_Driver/Src/stm32f4xx_ll_usb.c ****     if (ep->type == EP_TYPE_ISOC)
 912:Drivers/STM32F4xx_HAL_Driver/Src/stm32f4xx_ll_usb.c ****     {
 913:Drivers/STM32F4xx_HAL_Driver/Src/stm32f4xx_ll_usb.c ****       if ((USBx_DEVICE->DSTS & (1U << 8)) == 0U)
 914:Drivers/STM32F4xx_HAL_Driver/Src/stm32f4xx_ll_usb.c ****       {
 915:Drivers/STM32F4xx_HAL_Driver/Src/stm32f4xx_ll_usb.c ****         USBx_OUTEP(epnum)->DOEPCTL |= USB_OTG_DOEPCTL_SODDFRM;
 916:Drivers/STM32F4xx_HAL_Driver/Src/stm32f4xx_ll_usb.c ****       }
 917:Drivers/STM32F4xx_HAL_Driver/Src/stm32f4xx_ll_usb.c ****       else
 918:Drivers/STM32F4xx_HAL_Driver/Src/stm32f4xx_ll_usb.c ****       {
 919:Drivers/STM32F4xx_HAL_Driver/Src/stm32f4xx_ll_usb.c ****         USBx_OUTEP(epnum)->DOEPCTL |= USB_OTG_DOEPCTL_SD0PID_SEVNFRM;
 920:Drivers/STM32F4xx_HAL_Driver/Src/stm32f4xx_ll_usb.c ****       }
 921:Drivers/STM32F4xx_HAL_Driver/Src/stm32f4xx_ll_usb.c ****     }
 922:Drivers/STM32F4xx_HAL_Driver/Src/stm32f4xx_ll_usb.c ****     /* EP enable */
 923:Drivers/STM32F4xx_HAL_Driver/Src/stm32f4xx_ll_usb.c ****     USBx_OUTEP(epnum)->DOEPCTL |= (USB_OTG_DOEPCTL_CNAK | USB_OTG_DOEPCTL_EPENA);
 924:Drivers/STM32F4xx_HAL_Driver/Src/stm32f4xx_ll_usb.c ****   }
 925:Drivers/STM32F4xx_HAL_Driver/Src/stm32f4xx_ll_usb.c **** 
 926:Drivers/STM32F4xx_HAL_Driver/Src/stm32f4xx_ll_usb.c ****   return HAL_OK;
 927:Drivers/STM32F4xx_HAL_Driver/Src/stm32f4xx_ll_usb.c **** }
 928:Drivers/STM32F4xx_HAL_Driver/Src/stm32f4xx_ll_usb.c **** 
 929:Drivers/STM32F4xx_HAL_Driver/Src/stm32f4xx_ll_usb.c **** 
 930:Drivers/STM32F4xx_HAL_Driver/Src/stm32f4xx_ll_usb.c **** /**
 931:Drivers/STM32F4xx_HAL_Driver/Src/stm32f4xx_ll_usb.c ****    * @brief  USB_EPStoptXfer  Stop transfer on an EP
 932:Drivers/STM32F4xx_HAL_Driver/Src/stm32f4xx_ll_usb.c ****    * @param  USBx  usb device instance
 933:Drivers/STM32F4xx_HAL_Driver/Src/stm32f4xx_ll_usb.c ****    * @param  ep pointer to endpoint structure
 934:Drivers/STM32F4xx_HAL_Driver/Src/stm32f4xx_ll_usb.c ****    * @retval HAL status
 935:Drivers/STM32F4xx_HAL_Driver/Src/stm32f4xx_ll_usb.c ****    */
 936:Drivers/STM32F4xx_HAL_Driver/Src/stm32f4xx_ll_usb.c **** HAL_StatusTypeDef USB_EPStopXfer(const USB_OTG_GlobalTypeDef *USBx, USB_OTG_EPTypeDef *ep)
 937:Drivers/STM32F4xx_HAL_Driver/Src/stm32f4xx_ll_usb.c **** {
 938:Drivers/STM32F4xx_HAL_Driver/Src/stm32f4xx_ll_usb.c ****   __IO uint32_t count = 0U;
 939:Drivers/STM32F4xx_HAL_Driver/Src/stm32f4xx_ll_usb.c ****   HAL_StatusTypeDef ret = HAL_OK;
 940:Drivers/STM32F4xx_HAL_Driver/Src/stm32f4xx_ll_usb.c ****   uint32_t USBx_BASE = (uint32_t)USBx;
 941:Drivers/STM32F4xx_HAL_Driver/Src/stm32f4xx_ll_usb.c **** 
 942:Drivers/STM32F4xx_HAL_Driver/Src/stm32f4xx_ll_usb.c ****   /* IN endpoint */
ARM GAS  /tmp/ccELzqP8.s 			page 18


 943:Drivers/STM32F4xx_HAL_Driver/Src/stm32f4xx_ll_usb.c ****   if (ep->is_in == 1U)
 944:Drivers/STM32F4xx_HAL_Driver/Src/stm32f4xx_ll_usb.c ****   {
 945:Drivers/STM32F4xx_HAL_Driver/Src/stm32f4xx_ll_usb.c ****     /* EP enable, IN data in FIFO */
 946:Drivers/STM32F4xx_HAL_Driver/Src/stm32f4xx_ll_usb.c ****     if (((USBx_INEP(ep->num)->DIEPCTL) & USB_OTG_DIEPCTL_EPENA) == USB_OTG_DIEPCTL_EPENA)
 947:Drivers/STM32F4xx_HAL_Driver/Src/stm32f4xx_ll_usb.c ****     {
 948:Drivers/STM32F4xx_HAL_Driver/Src/stm32f4xx_ll_usb.c ****       USBx_INEP(ep->num)->DIEPCTL |= (USB_OTG_DIEPCTL_SNAK);
 949:Drivers/STM32F4xx_HAL_Driver/Src/stm32f4xx_ll_usb.c ****       USBx_INEP(ep->num)->DIEPCTL |= (USB_OTG_DIEPCTL_EPDIS);
 950:Drivers/STM32F4xx_HAL_Driver/Src/stm32f4xx_ll_usb.c **** 
 951:Drivers/STM32F4xx_HAL_Driver/Src/stm32f4xx_ll_usb.c ****       do
 952:Drivers/STM32F4xx_HAL_Driver/Src/stm32f4xx_ll_usb.c ****       {
 953:Drivers/STM32F4xx_HAL_Driver/Src/stm32f4xx_ll_usb.c ****         count++;
 954:Drivers/STM32F4xx_HAL_Driver/Src/stm32f4xx_ll_usb.c **** 
 955:Drivers/STM32F4xx_HAL_Driver/Src/stm32f4xx_ll_usb.c ****         if (count > 10000U)
 956:Drivers/STM32F4xx_HAL_Driver/Src/stm32f4xx_ll_usb.c ****         {
 957:Drivers/STM32F4xx_HAL_Driver/Src/stm32f4xx_ll_usb.c ****           ret = HAL_ERROR;
 958:Drivers/STM32F4xx_HAL_Driver/Src/stm32f4xx_ll_usb.c ****           break;
 959:Drivers/STM32F4xx_HAL_Driver/Src/stm32f4xx_ll_usb.c ****         }
 960:Drivers/STM32F4xx_HAL_Driver/Src/stm32f4xx_ll_usb.c ****       } while (((USBx_INEP(ep->num)->DIEPCTL) & USB_OTG_DIEPCTL_EPENA) ==  USB_OTG_DIEPCTL_EPENA);
 961:Drivers/STM32F4xx_HAL_Driver/Src/stm32f4xx_ll_usb.c ****     }
 962:Drivers/STM32F4xx_HAL_Driver/Src/stm32f4xx_ll_usb.c ****   }
 963:Drivers/STM32F4xx_HAL_Driver/Src/stm32f4xx_ll_usb.c ****   else /* OUT endpoint */
 964:Drivers/STM32F4xx_HAL_Driver/Src/stm32f4xx_ll_usb.c ****   {
 965:Drivers/STM32F4xx_HAL_Driver/Src/stm32f4xx_ll_usb.c ****     if (((USBx_OUTEP(ep->num)->DOEPCTL) & USB_OTG_DOEPCTL_EPENA) == USB_OTG_DOEPCTL_EPENA)
 966:Drivers/STM32F4xx_HAL_Driver/Src/stm32f4xx_ll_usb.c ****     {
 967:Drivers/STM32F4xx_HAL_Driver/Src/stm32f4xx_ll_usb.c ****       USBx_OUTEP(ep->num)->DOEPCTL |= (USB_OTG_DOEPCTL_SNAK);
 968:Drivers/STM32F4xx_HAL_Driver/Src/stm32f4xx_ll_usb.c ****       USBx_OUTEP(ep->num)->DOEPCTL |= (USB_OTG_DOEPCTL_EPDIS);
 969:Drivers/STM32F4xx_HAL_Driver/Src/stm32f4xx_ll_usb.c **** 
 970:Drivers/STM32F4xx_HAL_Driver/Src/stm32f4xx_ll_usb.c ****       do
 971:Drivers/STM32F4xx_HAL_Driver/Src/stm32f4xx_ll_usb.c ****       {
 972:Drivers/STM32F4xx_HAL_Driver/Src/stm32f4xx_ll_usb.c ****         count++;
 973:Drivers/STM32F4xx_HAL_Driver/Src/stm32f4xx_ll_usb.c **** 
 974:Drivers/STM32F4xx_HAL_Driver/Src/stm32f4xx_ll_usb.c ****         if (count > 10000U)
 975:Drivers/STM32F4xx_HAL_Driver/Src/stm32f4xx_ll_usb.c ****         {
 976:Drivers/STM32F4xx_HAL_Driver/Src/stm32f4xx_ll_usb.c ****           ret = HAL_ERROR;
 977:Drivers/STM32F4xx_HAL_Driver/Src/stm32f4xx_ll_usb.c ****           break;
 978:Drivers/STM32F4xx_HAL_Driver/Src/stm32f4xx_ll_usb.c ****         }
 979:Drivers/STM32F4xx_HAL_Driver/Src/stm32f4xx_ll_usb.c ****       } while (((USBx_OUTEP(ep->num)->DOEPCTL) & USB_OTG_DOEPCTL_EPENA) ==  USB_OTG_DOEPCTL_EPENA);
 980:Drivers/STM32F4xx_HAL_Driver/Src/stm32f4xx_ll_usb.c ****     }
 981:Drivers/STM32F4xx_HAL_Driver/Src/stm32f4xx_ll_usb.c ****   }
 982:Drivers/STM32F4xx_HAL_Driver/Src/stm32f4xx_ll_usb.c **** 
 983:Drivers/STM32F4xx_HAL_Driver/Src/stm32f4xx_ll_usb.c ****   return ret;
 984:Drivers/STM32F4xx_HAL_Driver/Src/stm32f4xx_ll_usb.c **** }
 985:Drivers/STM32F4xx_HAL_Driver/Src/stm32f4xx_ll_usb.c **** 
 986:Drivers/STM32F4xx_HAL_Driver/Src/stm32f4xx_ll_usb.c **** 
 987:Drivers/STM32F4xx_HAL_Driver/Src/stm32f4xx_ll_usb.c **** /**
 988:Drivers/STM32F4xx_HAL_Driver/Src/stm32f4xx_ll_usb.c ****   * @brief  USB_WritePacket : Writes a packet into the Tx FIFO associated
 989:Drivers/STM32F4xx_HAL_Driver/Src/stm32f4xx_ll_usb.c ****   *         with the EP/channel
 990:Drivers/STM32F4xx_HAL_Driver/Src/stm32f4xx_ll_usb.c ****   * @param  USBx  Selected device
 991:Drivers/STM32F4xx_HAL_Driver/Src/stm32f4xx_ll_usb.c ****   * @param  src   pointer to source buffer
 992:Drivers/STM32F4xx_HAL_Driver/Src/stm32f4xx_ll_usb.c ****   * @param  ch_ep_num  endpoint or host channel number
 993:Drivers/STM32F4xx_HAL_Driver/Src/stm32f4xx_ll_usb.c ****   * @param  len  Number of bytes to write
 994:Drivers/STM32F4xx_HAL_Driver/Src/stm32f4xx_ll_usb.c ****   * @param  dma USB dma enabled or disabled
 995:Drivers/STM32F4xx_HAL_Driver/Src/stm32f4xx_ll_usb.c ****   *          This parameter can be one of these values:
 996:Drivers/STM32F4xx_HAL_Driver/Src/stm32f4xx_ll_usb.c ****   *           0 : DMA feature not used
 997:Drivers/STM32F4xx_HAL_Driver/Src/stm32f4xx_ll_usb.c ****   *           1 : DMA feature used
 998:Drivers/STM32F4xx_HAL_Driver/Src/stm32f4xx_ll_usb.c ****   * @retval HAL status
 999:Drivers/STM32F4xx_HAL_Driver/Src/stm32f4xx_ll_usb.c ****   */
ARM GAS  /tmp/ccELzqP8.s 			page 19


1000:Drivers/STM32F4xx_HAL_Driver/Src/stm32f4xx_ll_usb.c **** HAL_StatusTypeDef USB_WritePacket(const USB_OTG_GlobalTypeDef *USBx, uint8_t *src,
1001:Drivers/STM32F4xx_HAL_Driver/Src/stm32f4xx_ll_usb.c ****                                   uint8_t ch_ep_num, uint16_t len, uint8_t dma)
1002:Drivers/STM32F4xx_HAL_Driver/Src/stm32f4xx_ll_usb.c **** {
1003:Drivers/STM32F4xx_HAL_Driver/Src/stm32f4xx_ll_usb.c ****   uint32_t USBx_BASE = (uint32_t)USBx;
1004:Drivers/STM32F4xx_HAL_Driver/Src/stm32f4xx_ll_usb.c ****   uint8_t *pSrc = src;
1005:Drivers/STM32F4xx_HAL_Driver/Src/stm32f4xx_ll_usb.c ****   uint32_t count32b;
1006:Drivers/STM32F4xx_HAL_Driver/Src/stm32f4xx_ll_usb.c ****   uint32_t i;
1007:Drivers/STM32F4xx_HAL_Driver/Src/stm32f4xx_ll_usb.c **** 
1008:Drivers/STM32F4xx_HAL_Driver/Src/stm32f4xx_ll_usb.c ****   if (dma == 0U)
1009:Drivers/STM32F4xx_HAL_Driver/Src/stm32f4xx_ll_usb.c ****   {
1010:Drivers/STM32F4xx_HAL_Driver/Src/stm32f4xx_ll_usb.c ****     count32b = ((uint32_t)len + 3U) / 4U;
1011:Drivers/STM32F4xx_HAL_Driver/Src/stm32f4xx_ll_usb.c ****     for (i = 0U; i < count32b; i++)
1012:Drivers/STM32F4xx_HAL_Driver/Src/stm32f4xx_ll_usb.c ****     {
1013:Drivers/STM32F4xx_HAL_Driver/Src/stm32f4xx_ll_usb.c ****       USBx_DFIFO((uint32_t)ch_ep_num) = __UNALIGNED_UINT32_READ(pSrc);
1014:Drivers/STM32F4xx_HAL_Driver/Src/stm32f4xx_ll_usb.c ****       pSrc++;
1015:Drivers/STM32F4xx_HAL_Driver/Src/stm32f4xx_ll_usb.c ****       pSrc++;
1016:Drivers/STM32F4xx_HAL_Driver/Src/stm32f4xx_ll_usb.c ****       pSrc++;
1017:Drivers/STM32F4xx_HAL_Driver/Src/stm32f4xx_ll_usb.c ****       pSrc++;
1018:Drivers/STM32F4xx_HAL_Driver/Src/stm32f4xx_ll_usb.c ****     }
1019:Drivers/STM32F4xx_HAL_Driver/Src/stm32f4xx_ll_usb.c ****   }
1020:Drivers/STM32F4xx_HAL_Driver/Src/stm32f4xx_ll_usb.c **** 
1021:Drivers/STM32F4xx_HAL_Driver/Src/stm32f4xx_ll_usb.c ****   return HAL_OK;
1022:Drivers/STM32F4xx_HAL_Driver/Src/stm32f4xx_ll_usb.c **** }
1023:Drivers/STM32F4xx_HAL_Driver/Src/stm32f4xx_ll_usb.c **** 
1024:Drivers/STM32F4xx_HAL_Driver/Src/stm32f4xx_ll_usb.c **** /**
1025:Drivers/STM32F4xx_HAL_Driver/Src/stm32f4xx_ll_usb.c ****   * @brief  USB_ReadPacket : read a packet from the RX FIFO
1026:Drivers/STM32F4xx_HAL_Driver/Src/stm32f4xx_ll_usb.c ****   * @param  USBx  Selected device
1027:Drivers/STM32F4xx_HAL_Driver/Src/stm32f4xx_ll_usb.c ****   * @param  dest  source pointer
1028:Drivers/STM32F4xx_HAL_Driver/Src/stm32f4xx_ll_usb.c ****   * @param  len  Number of bytes to read
1029:Drivers/STM32F4xx_HAL_Driver/Src/stm32f4xx_ll_usb.c ****   * @retval pointer to destination buffer
1030:Drivers/STM32F4xx_HAL_Driver/Src/stm32f4xx_ll_usb.c ****   */
1031:Drivers/STM32F4xx_HAL_Driver/Src/stm32f4xx_ll_usb.c **** void *USB_ReadPacket(const USB_OTG_GlobalTypeDef *USBx, uint8_t *dest, uint16_t len)
1032:Drivers/STM32F4xx_HAL_Driver/Src/stm32f4xx_ll_usb.c **** {
1033:Drivers/STM32F4xx_HAL_Driver/Src/stm32f4xx_ll_usb.c ****   uint32_t USBx_BASE = (uint32_t)USBx;
1034:Drivers/STM32F4xx_HAL_Driver/Src/stm32f4xx_ll_usb.c ****   uint8_t *pDest = dest;
1035:Drivers/STM32F4xx_HAL_Driver/Src/stm32f4xx_ll_usb.c ****   uint32_t pData;
1036:Drivers/STM32F4xx_HAL_Driver/Src/stm32f4xx_ll_usb.c ****   uint32_t i;
1037:Drivers/STM32F4xx_HAL_Driver/Src/stm32f4xx_ll_usb.c ****   uint32_t count32b = (uint32_t)len >> 2U;
1038:Drivers/STM32F4xx_HAL_Driver/Src/stm32f4xx_ll_usb.c ****   uint16_t remaining_bytes = len % 4U;
1039:Drivers/STM32F4xx_HAL_Driver/Src/stm32f4xx_ll_usb.c **** 
1040:Drivers/STM32F4xx_HAL_Driver/Src/stm32f4xx_ll_usb.c ****   for (i = 0U; i < count32b; i++)
1041:Drivers/STM32F4xx_HAL_Driver/Src/stm32f4xx_ll_usb.c ****   {
1042:Drivers/STM32F4xx_HAL_Driver/Src/stm32f4xx_ll_usb.c ****     __UNALIGNED_UINT32_WRITE(pDest, USBx_DFIFO(0U));
1043:Drivers/STM32F4xx_HAL_Driver/Src/stm32f4xx_ll_usb.c ****     pDest++;
1044:Drivers/STM32F4xx_HAL_Driver/Src/stm32f4xx_ll_usb.c ****     pDest++;
1045:Drivers/STM32F4xx_HAL_Driver/Src/stm32f4xx_ll_usb.c ****     pDest++;
1046:Drivers/STM32F4xx_HAL_Driver/Src/stm32f4xx_ll_usb.c ****     pDest++;
1047:Drivers/STM32F4xx_HAL_Driver/Src/stm32f4xx_ll_usb.c ****   }
1048:Drivers/STM32F4xx_HAL_Driver/Src/stm32f4xx_ll_usb.c **** 
1049:Drivers/STM32F4xx_HAL_Driver/Src/stm32f4xx_ll_usb.c ****   /* When Number of data is not word aligned, read the remaining byte */
1050:Drivers/STM32F4xx_HAL_Driver/Src/stm32f4xx_ll_usb.c ****   if (remaining_bytes != 0U)
1051:Drivers/STM32F4xx_HAL_Driver/Src/stm32f4xx_ll_usb.c ****   {
1052:Drivers/STM32F4xx_HAL_Driver/Src/stm32f4xx_ll_usb.c ****     i = 0U;
1053:Drivers/STM32F4xx_HAL_Driver/Src/stm32f4xx_ll_usb.c ****     __UNALIGNED_UINT32_WRITE(&pData, USBx_DFIFO(0U));
1054:Drivers/STM32F4xx_HAL_Driver/Src/stm32f4xx_ll_usb.c **** 
1055:Drivers/STM32F4xx_HAL_Driver/Src/stm32f4xx_ll_usb.c ****     do
1056:Drivers/STM32F4xx_HAL_Driver/Src/stm32f4xx_ll_usb.c ****     {
ARM GAS  /tmp/ccELzqP8.s 			page 20


1057:Drivers/STM32F4xx_HAL_Driver/Src/stm32f4xx_ll_usb.c ****       *(uint8_t *)pDest = (uint8_t)(pData >> (8U * (uint8_t)(i)));
1058:Drivers/STM32F4xx_HAL_Driver/Src/stm32f4xx_ll_usb.c ****       i++;
1059:Drivers/STM32F4xx_HAL_Driver/Src/stm32f4xx_ll_usb.c ****       pDest++;
1060:Drivers/STM32F4xx_HAL_Driver/Src/stm32f4xx_ll_usb.c ****       remaining_bytes--;
1061:Drivers/STM32F4xx_HAL_Driver/Src/stm32f4xx_ll_usb.c ****     } while (remaining_bytes != 0U);
1062:Drivers/STM32F4xx_HAL_Driver/Src/stm32f4xx_ll_usb.c ****   }
1063:Drivers/STM32F4xx_HAL_Driver/Src/stm32f4xx_ll_usb.c **** 
1064:Drivers/STM32F4xx_HAL_Driver/Src/stm32f4xx_ll_usb.c ****   return ((void *)pDest);
1065:Drivers/STM32F4xx_HAL_Driver/Src/stm32f4xx_ll_usb.c **** }
1066:Drivers/STM32F4xx_HAL_Driver/Src/stm32f4xx_ll_usb.c **** 
1067:Drivers/STM32F4xx_HAL_Driver/Src/stm32f4xx_ll_usb.c **** /**
1068:Drivers/STM32F4xx_HAL_Driver/Src/stm32f4xx_ll_usb.c ****   * @brief  USB_EPSetStall : set a stall condition over an EP
1069:Drivers/STM32F4xx_HAL_Driver/Src/stm32f4xx_ll_usb.c ****   * @param  USBx  Selected device
1070:Drivers/STM32F4xx_HAL_Driver/Src/stm32f4xx_ll_usb.c ****   * @param  ep pointer to endpoint structure
1071:Drivers/STM32F4xx_HAL_Driver/Src/stm32f4xx_ll_usb.c ****   * @retval HAL status
1072:Drivers/STM32F4xx_HAL_Driver/Src/stm32f4xx_ll_usb.c ****   */
1073:Drivers/STM32F4xx_HAL_Driver/Src/stm32f4xx_ll_usb.c **** HAL_StatusTypeDef USB_EPSetStall(const USB_OTG_GlobalTypeDef *USBx, const USB_OTG_EPTypeDef *ep)
1074:Drivers/STM32F4xx_HAL_Driver/Src/stm32f4xx_ll_usb.c **** {
1075:Drivers/STM32F4xx_HAL_Driver/Src/stm32f4xx_ll_usb.c ****   uint32_t USBx_BASE = (uint32_t)USBx;
1076:Drivers/STM32F4xx_HAL_Driver/Src/stm32f4xx_ll_usb.c ****   uint32_t epnum = (uint32_t)ep->num;
1077:Drivers/STM32F4xx_HAL_Driver/Src/stm32f4xx_ll_usb.c **** 
1078:Drivers/STM32F4xx_HAL_Driver/Src/stm32f4xx_ll_usb.c ****   if (ep->is_in == 1U)
1079:Drivers/STM32F4xx_HAL_Driver/Src/stm32f4xx_ll_usb.c ****   {
1080:Drivers/STM32F4xx_HAL_Driver/Src/stm32f4xx_ll_usb.c ****     if (((USBx_INEP(epnum)->DIEPCTL & USB_OTG_DIEPCTL_EPENA) == 0U) && (epnum != 0U))
1081:Drivers/STM32F4xx_HAL_Driver/Src/stm32f4xx_ll_usb.c ****     {
1082:Drivers/STM32F4xx_HAL_Driver/Src/stm32f4xx_ll_usb.c ****       USBx_INEP(epnum)->DIEPCTL &= ~(USB_OTG_DIEPCTL_EPDIS);
1083:Drivers/STM32F4xx_HAL_Driver/Src/stm32f4xx_ll_usb.c ****     }
1084:Drivers/STM32F4xx_HAL_Driver/Src/stm32f4xx_ll_usb.c ****     USBx_INEP(epnum)->DIEPCTL |= USB_OTG_DIEPCTL_STALL;
1085:Drivers/STM32F4xx_HAL_Driver/Src/stm32f4xx_ll_usb.c ****   }
1086:Drivers/STM32F4xx_HAL_Driver/Src/stm32f4xx_ll_usb.c ****   else
1087:Drivers/STM32F4xx_HAL_Driver/Src/stm32f4xx_ll_usb.c ****   {
1088:Drivers/STM32F4xx_HAL_Driver/Src/stm32f4xx_ll_usb.c ****     if (((USBx_OUTEP(epnum)->DOEPCTL & USB_OTG_DOEPCTL_EPENA) == 0U) && (epnum != 0U))
1089:Drivers/STM32F4xx_HAL_Driver/Src/stm32f4xx_ll_usb.c ****     {
1090:Drivers/STM32F4xx_HAL_Driver/Src/stm32f4xx_ll_usb.c ****       USBx_OUTEP(epnum)->DOEPCTL &= ~(USB_OTG_DOEPCTL_EPDIS);
1091:Drivers/STM32F4xx_HAL_Driver/Src/stm32f4xx_ll_usb.c ****     }
1092:Drivers/STM32F4xx_HAL_Driver/Src/stm32f4xx_ll_usb.c ****     USBx_OUTEP(epnum)->DOEPCTL |= USB_OTG_DOEPCTL_STALL;
1093:Drivers/STM32F4xx_HAL_Driver/Src/stm32f4xx_ll_usb.c ****   }
1094:Drivers/STM32F4xx_HAL_Driver/Src/stm32f4xx_ll_usb.c **** 
1095:Drivers/STM32F4xx_HAL_Driver/Src/stm32f4xx_ll_usb.c ****   return HAL_OK;
1096:Drivers/STM32F4xx_HAL_Driver/Src/stm32f4xx_ll_usb.c **** }
1097:Drivers/STM32F4xx_HAL_Driver/Src/stm32f4xx_ll_usb.c **** 
1098:Drivers/STM32F4xx_HAL_Driver/Src/stm32f4xx_ll_usb.c **** /**
1099:Drivers/STM32F4xx_HAL_Driver/Src/stm32f4xx_ll_usb.c ****   * @brief  USB_EPClearStall : Clear a stall condition over an EP
1100:Drivers/STM32F4xx_HAL_Driver/Src/stm32f4xx_ll_usb.c ****   * @param  USBx  Selected device
1101:Drivers/STM32F4xx_HAL_Driver/Src/stm32f4xx_ll_usb.c ****   * @param  ep pointer to endpoint structure
1102:Drivers/STM32F4xx_HAL_Driver/Src/stm32f4xx_ll_usb.c ****   * @retval HAL status
1103:Drivers/STM32F4xx_HAL_Driver/Src/stm32f4xx_ll_usb.c ****   */
1104:Drivers/STM32F4xx_HAL_Driver/Src/stm32f4xx_ll_usb.c **** HAL_StatusTypeDef USB_EPClearStall(const USB_OTG_GlobalTypeDef *USBx, const USB_OTG_EPTypeDef *ep)
1105:Drivers/STM32F4xx_HAL_Driver/Src/stm32f4xx_ll_usb.c **** {
1106:Drivers/STM32F4xx_HAL_Driver/Src/stm32f4xx_ll_usb.c ****   uint32_t USBx_BASE = (uint32_t)USBx;
1107:Drivers/STM32F4xx_HAL_Driver/Src/stm32f4xx_ll_usb.c ****   uint32_t epnum = (uint32_t)ep->num;
1108:Drivers/STM32F4xx_HAL_Driver/Src/stm32f4xx_ll_usb.c **** 
1109:Drivers/STM32F4xx_HAL_Driver/Src/stm32f4xx_ll_usb.c ****   if (ep->is_in == 1U)
1110:Drivers/STM32F4xx_HAL_Driver/Src/stm32f4xx_ll_usb.c ****   {
1111:Drivers/STM32F4xx_HAL_Driver/Src/stm32f4xx_ll_usb.c ****     USBx_INEP(epnum)->DIEPCTL &= ~USB_OTG_DIEPCTL_STALL;
1112:Drivers/STM32F4xx_HAL_Driver/Src/stm32f4xx_ll_usb.c ****     if ((ep->type == EP_TYPE_INTR) || (ep->type == EP_TYPE_BULK))
1113:Drivers/STM32F4xx_HAL_Driver/Src/stm32f4xx_ll_usb.c ****     {
ARM GAS  /tmp/ccELzqP8.s 			page 21


1114:Drivers/STM32F4xx_HAL_Driver/Src/stm32f4xx_ll_usb.c ****       USBx_INEP(epnum)->DIEPCTL |= USB_OTG_DIEPCTL_SD0PID_SEVNFRM; /* DATA0 */
1115:Drivers/STM32F4xx_HAL_Driver/Src/stm32f4xx_ll_usb.c ****     }
1116:Drivers/STM32F4xx_HAL_Driver/Src/stm32f4xx_ll_usb.c ****   }
1117:Drivers/STM32F4xx_HAL_Driver/Src/stm32f4xx_ll_usb.c ****   else
1118:Drivers/STM32F4xx_HAL_Driver/Src/stm32f4xx_ll_usb.c ****   {
1119:Drivers/STM32F4xx_HAL_Driver/Src/stm32f4xx_ll_usb.c ****     USBx_OUTEP(epnum)->DOEPCTL &= ~USB_OTG_DOEPCTL_STALL;
1120:Drivers/STM32F4xx_HAL_Driver/Src/stm32f4xx_ll_usb.c ****     if ((ep->type == EP_TYPE_INTR) || (ep->type == EP_TYPE_BULK))
1121:Drivers/STM32F4xx_HAL_Driver/Src/stm32f4xx_ll_usb.c ****     {
1122:Drivers/STM32F4xx_HAL_Driver/Src/stm32f4xx_ll_usb.c ****       USBx_OUTEP(epnum)->DOEPCTL |= USB_OTG_DOEPCTL_SD0PID_SEVNFRM; /* DATA0 */
1123:Drivers/STM32F4xx_HAL_Driver/Src/stm32f4xx_ll_usb.c ****     }
1124:Drivers/STM32F4xx_HAL_Driver/Src/stm32f4xx_ll_usb.c ****   }
1125:Drivers/STM32F4xx_HAL_Driver/Src/stm32f4xx_ll_usb.c ****   return HAL_OK;
1126:Drivers/STM32F4xx_HAL_Driver/Src/stm32f4xx_ll_usb.c **** }
1127:Drivers/STM32F4xx_HAL_Driver/Src/stm32f4xx_ll_usb.c **** 
1128:Drivers/STM32F4xx_HAL_Driver/Src/stm32f4xx_ll_usb.c **** /**
1129:Drivers/STM32F4xx_HAL_Driver/Src/stm32f4xx_ll_usb.c ****   * @brief  USB_StopDevice : Stop the usb device mode
1130:Drivers/STM32F4xx_HAL_Driver/Src/stm32f4xx_ll_usb.c ****   * @param  USBx  Selected device
1131:Drivers/STM32F4xx_HAL_Driver/Src/stm32f4xx_ll_usb.c ****   * @retval HAL status
1132:Drivers/STM32F4xx_HAL_Driver/Src/stm32f4xx_ll_usb.c ****   */
1133:Drivers/STM32F4xx_HAL_Driver/Src/stm32f4xx_ll_usb.c **** HAL_StatusTypeDef USB_StopDevice(USB_OTG_GlobalTypeDef *USBx)
1134:Drivers/STM32F4xx_HAL_Driver/Src/stm32f4xx_ll_usb.c **** {
1135:Drivers/STM32F4xx_HAL_Driver/Src/stm32f4xx_ll_usb.c ****   HAL_StatusTypeDef ret;
1136:Drivers/STM32F4xx_HAL_Driver/Src/stm32f4xx_ll_usb.c ****   uint32_t USBx_BASE = (uint32_t)USBx;
1137:Drivers/STM32F4xx_HAL_Driver/Src/stm32f4xx_ll_usb.c ****   uint32_t i;
1138:Drivers/STM32F4xx_HAL_Driver/Src/stm32f4xx_ll_usb.c **** 
1139:Drivers/STM32F4xx_HAL_Driver/Src/stm32f4xx_ll_usb.c ****   /* Clear Pending interrupt */
1140:Drivers/STM32F4xx_HAL_Driver/Src/stm32f4xx_ll_usb.c ****   for (i = 0U; i < 15U; i++)
1141:Drivers/STM32F4xx_HAL_Driver/Src/stm32f4xx_ll_usb.c ****   {
1142:Drivers/STM32F4xx_HAL_Driver/Src/stm32f4xx_ll_usb.c ****     USBx_INEP(i)->DIEPINT = 0xFB7FU;
1143:Drivers/STM32F4xx_HAL_Driver/Src/stm32f4xx_ll_usb.c ****     USBx_OUTEP(i)->DOEPINT = 0xFB7FU;
1144:Drivers/STM32F4xx_HAL_Driver/Src/stm32f4xx_ll_usb.c ****   }
1145:Drivers/STM32F4xx_HAL_Driver/Src/stm32f4xx_ll_usb.c **** 
1146:Drivers/STM32F4xx_HAL_Driver/Src/stm32f4xx_ll_usb.c ****   /* Clear interrupt masks */
1147:Drivers/STM32F4xx_HAL_Driver/Src/stm32f4xx_ll_usb.c ****   USBx_DEVICE->DIEPMSK  = 0U;
1148:Drivers/STM32F4xx_HAL_Driver/Src/stm32f4xx_ll_usb.c ****   USBx_DEVICE->DOEPMSK  = 0U;
1149:Drivers/STM32F4xx_HAL_Driver/Src/stm32f4xx_ll_usb.c ****   USBx_DEVICE->DAINTMSK = 0U;
1150:Drivers/STM32F4xx_HAL_Driver/Src/stm32f4xx_ll_usb.c **** 
1151:Drivers/STM32F4xx_HAL_Driver/Src/stm32f4xx_ll_usb.c ****   /* Flush the FIFO */
1152:Drivers/STM32F4xx_HAL_Driver/Src/stm32f4xx_ll_usb.c ****   ret = USB_FlushRxFifo(USBx);
1153:Drivers/STM32F4xx_HAL_Driver/Src/stm32f4xx_ll_usb.c ****   if (ret != HAL_OK)
1154:Drivers/STM32F4xx_HAL_Driver/Src/stm32f4xx_ll_usb.c ****   {
1155:Drivers/STM32F4xx_HAL_Driver/Src/stm32f4xx_ll_usb.c ****     return ret;
1156:Drivers/STM32F4xx_HAL_Driver/Src/stm32f4xx_ll_usb.c ****   }
1157:Drivers/STM32F4xx_HAL_Driver/Src/stm32f4xx_ll_usb.c **** 
1158:Drivers/STM32F4xx_HAL_Driver/Src/stm32f4xx_ll_usb.c ****   ret = USB_FlushTxFifo(USBx,  0x10U);
1159:Drivers/STM32F4xx_HAL_Driver/Src/stm32f4xx_ll_usb.c ****   if (ret != HAL_OK)
1160:Drivers/STM32F4xx_HAL_Driver/Src/stm32f4xx_ll_usb.c ****   {
1161:Drivers/STM32F4xx_HAL_Driver/Src/stm32f4xx_ll_usb.c ****     return ret;
1162:Drivers/STM32F4xx_HAL_Driver/Src/stm32f4xx_ll_usb.c ****   }
1163:Drivers/STM32F4xx_HAL_Driver/Src/stm32f4xx_ll_usb.c **** 
1164:Drivers/STM32F4xx_HAL_Driver/Src/stm32f4xx_ll_usb.c ****   return ret;
1165:Drivers/STM32F4xx_HAL_Driver/Src/stm32f4xx_ll_usb.c **** }
1166:Drivers/STM32F4xx_HAL_Driver/Src/stm32f4xx_ll_usb.c **** 
1167:Drivers/STM32F4xx_HAL_Driver/Src/stm32f4xx_ll_usb.c **** /**
1168:Drivers/STM32F4xx_HAL_Driver/Src/stm32f4xx_ll_usb.c ****   * @brief  USB_SetDevAddress : Stop the usb device mode
1169:Drivers/STM32F4xx_HAL_Driver/Src/stm32f4xx_ll_usb.c ****   * @param  USBx  Selected device
1170:Drivers/STM32F4xx_HAL_Driver/Src/stm32f4xx_ll_usb.c ****   * @param  address  new device address to be assigned
ARM GAS  /tmp/ccELzqP8.s 			page 22


1171:Drivers/STM32F4xx_HAL_Driver/Src/stm32f4xx_ll_usb.c ****   *          This parameter can be a value from 0 to 255
1172:Drivers/STM32F4xx_HAL_Driver/Src/stm32f4xx_ll_usb.c ****   * @retval HAL status
1173:Drivers/STM32F4xx_HAL_Driver/Src/stm32f4xx_ll_usb.c ****   */
1174:Drivers/STM32F4xx_HAL_Driver/Src/stm32f4xx_ll_usb.c **** HAL_StatusTypeDef USB_SetDevAddress(const USB_OTG_GlobalTypeDef *USBx, uint8_t address)
1175:Drivers/STM32F4xx_HAL_Driver/Src/stm32f4xx_ll_usb.c **** {
1176:Drivers/STM32F4xx_HAL_Driver/Src/stm32f4xx_ll_usb.c ****   uint32_t USBx_BASE = (uint32_t)USBx;
1177:Drivers/STM32F4xx_HAL_Driver/Src/stm32f4xx_ll_usb.c **** 
1178:Drivers/STM32F4xx_HAL_Driver/Src/stm32f4xx_ll_usb.c ****   USBx_DEVICE->DCFG &= ~(USB_OTG_DCFG_DAD);
1179:Drivers/STM32F4xx_HAL_Driver/Src/stm32f4xx_ll_usb.c ****   USBx_DEVICE->DCFG |= ((uint32_t)address << 4) & USB_OTG_DCFG_DAD;
1180:Drivers/STM32F4xx_HAL_Driver/Src/stm32f4xx_ll_usb.c **** 
1181:Drivers/STM32F4xx_HAL_Driver/Src/stm32f4xx_ll_usb.c ****   return HAL_OK;
1182:Drivers/STM32F4xx_HAL_Driver/Src/stm32f4xx_ll_usb.c **** }
1183:Drivers/STM32F4xx_HAL_Driver/Src/stm32f4xx_ll_usb.c **** 
1184:Drivers/STM32F4xx_HAL_Driver/Src/stm32f4xx_ll_usb.c **** /**
1185:Drivers/STM32F4xx_HAL_Driver/Src/stm32f4xx_ll_usb.c ****   * @brief  USB_DevConnect : Connect the USB device by enabling Rpu
1186:Drivers/STM32F4xx_HAL_Driver/Src/stm32f4xx_ll_usb.c ****   * @param  USBx  Selected device
1187:Drivers/STM32F4xx_HAL_Driver/Src/stm32f4xx_ll_usb.c ****   * @retval HAL status
1188:Drivers/STM32F4xx_HAL_Driver/Src/stm32f4xx_ll_usb.c ****   */
1189:Drivers/STM32F4xx_HAL_Driver/Src/stm32f4xx_ll_usb.c **** HAL_StatusTypeDef USB_DevConnect(const USB_OTG_GlobalTypeDef *USBx)
1190:Drivers/STM32F4xx_HAL_Driver/Src/stm32f4xx_ll_usb.c **** {
1191:Drivers/STM32F4xx_HAL_Driver/Src/stm32f4xx_ll_usb.c ****   uint32_t USBx_BASE = (uint32_t)USBx;
1192:Drivers/STM32F4xx_HAL_Driver/Src/stm32f4xx_ll_usb.c **** 
1193:Drivers/STM32F4xx_HAL_Driver/Src/stm32f4xx_ll_usb.c ****   /* In case phy is stopped, ensure to ungate and restore the phy CLK */
1194:Drivers/STM32F4xx_HAL_Driver/Src/stm32f4xx_ll_usb.c ****   USBx_PCGCCTL &= ~(USB_OTG_PCGCCTL_STOPCLK | USB_OTG_PCGCCTL_GATECLK);
1195:Drivers/STM32F4xx_HAL_Driver/Src/stm32f4xx_ll_usb.c **** 
1196:Drivers/STM32F4xx_HAL_Driver/Src/stm32f4xx_ll_usb.c ****   USBx_DEVICE->DCTL &= ~USB_OTG_DCTL_SDIS;
1197:Drivers/STM32F4xx_HAL_Driver/Src/stm32f4xx_ll_usb.c **** 
1198:Drivers/STM32F4xx_HAL_Driver/Src/stm32f4xx_ll_usb.c ****   return HAL_OK;
1199:Drivers/STM32F4xx_HAL_Driver/Src/stm32f4xx_ll_usb.c **** }
1200:Drivers/STM32F4xx_HAL_Driver/Src/stm32f4xx_ll_usb.c **** 
1201:Drivers/STM32F4xx_HAL_Driver/Src/stm32f4xx_ll_usb.c **** /**
1202:Drivers/STM32F4xx_HAL_Driver/Src/stm32f4xx_ll_usb.c ****   * @brief  USB_DevDisconnect : Disconnect the USB device by disabling Rpu
1203:Drivers/STM32F4xx_HAL_Driver/Src/stm32f4xx_ll_usb.c ****   * @param  USBx  Selected device
1204:Drivers/STM32F4xx_HAL_Driver/Src/stm32f4xx_ll_usb.c ****   * @retval HAL status
1205:Drivers/STM32F4xx_HAL_Driver/Src/stm32f4xx_ll_usb.c ****   */
1206:Drivers/STM32F4xx_HAL_Driver/Src/stm32f4xx_ll_usb.c **** HAL_StatusTypeDef USB_DevDisconnect(const USB_OTG_GlobalTypeDef *USBx)
1207:Drivers/STM32F4xx_HAL_Driver/Src/stm32f4xx_ll_usb.c **** {
1208:Drivers/STM32F4xx_HAL_Driver/Src/stm32f4xx_ll_usb.c ****   uint32_t USBx_BASE = (uint32_t)USBx;
1209:Drivers/STM32F4xx_HAL_Driver/Src/stm32f4xx_ll_usb.c **** 
1210:Drivers/STM32F4xx_HAL_Driver/Src/stm32f4xx_ll_usb.c ****   /* In case phy is stopped, ensure to ungate and restore the phy CLK */
1211:Drivers/STM32F4xx_HAL_Driver/Src/stm32f4xx_ll_usb.c ****   USBx_PCGCCTL &= ~(USB_OTG_PCGCCTL_STOPCLK | USB_OTG_PCGCCTL_GATECLK);
1212:Drivers/STM32F4xx_HAL_Driver/Src/stm32f4xx_ll_usb.c **** 
1213:Drivers/STM32F4xx_HAL_Driver/Src/stm32f4xx_ll_usb.c ****   USBx_DEVICE->DCTL |= USB_OTG_DCTL_SDIS;
1214:Drivers/STM32F4xx_HAL_Driver/Src/stm32f4xx_ll_usb.c **** 
1215:Drivers/STM32F4xx_HAL_Driver/Src/stm32f4xx_ll_usb.c ****   return HAL_OK;
1216:Drivers/STM32F4xx_HAL_Driver/Src/stm32f4xx_ll_usb.c **** }
1217:Drivers/STM32F4xx_HAL_Driver/Src/stm32f4xx_ll_usb.c **** 
1218:Drivers/STM32F4xx_HAL_Driver/Src/stm32f4xx_ll_usb.c **** /**
1219:Drivers/STM32F4xx_HAL_Driver/Src/stm32f4xx_ll_usb.c ****   * @brief  USB_ReadInterrupts: return the global USB interrupt status
1220:Drivers/STM32F4xx_HAL_Driver/Src/stm32f4xx_ll_usb.c ****   * @param  USBx  Selected device
1221:Drivers/STM32F4xx_HAL_Driver/Src/stm32f4xx_ll_usb.c ****   * @retval USB Global Interrupt status
1222:Drivers/STM32F4xx_HAL_Driver/Src/stm32f4xx_ll_usb.c ****   */
1223:Drivers/STM32F4xx_HAL_Driver/Src/stm32f4xx_ll_usb.c **** uint32_t USB_ReadInterrupts(USB_OTG_GlobalTypeDef const *USBx)
1224:Drivers/STM32F4xx_HAL_Driver/Src/stm32f4xx_ll_usb.c **** {
1225:Drivers/STM32F4xx_HAL_Driver/Src/stm32f4xx_ll_usb.c ****   uint32_t tmpreg;
1226:Drivers/STM32F4xx_HAL_Driver/Src/stm32f4xx_ll_usb.c **** 
1227:Drivers/STM32F4xx_HAL_Driver/Src/stm32f4xx_ll_usb.c ****   tmpreg = USBx->GINTSTS;
ARM GAS  /tmp/ccELzqP8.s 			page 23


1228:Drivers/STM32F4xx_HAL_Driver/Src/stm32f4xx_ll_usb.c ****   tmpreg &= USBx->GINTMSK;
1229:Drivers/STM32F4xx_HAL_Driver/Src/stm32f4xx_ll_usb.c **** 
1230:Drivers/STM32F4xx_HAL_Driver/Src/stm32f4xx_ll_usb.c ****   return tmpreg;
1231:Drivers/STM32F4xx_HAL_Driver/Src/stm32f4xx_ll_usb.c **** }
1232:Drivers/STM32F4xx_HAL_Driver/Src/stm32f4xx_ll_usb.c **** 
1233:Drivers/STM32F4xx_HAL_Driver/Src/stm32f4xx_ll_usb.c **** /**
1234:Drivers/STM32F4xx_HAL_Driver/Src/stm32f4xx_ll_usb.c ****   * @brief  USB_ReadChInterrupts: return USB channel interrupt status
1235:Drivers/STM32F4xx_HAL_Driver/Src/stm32f4xx_ll_usb.c ****   * @param  USBx  Selected device
1236:Drivers/STM32F4xx_HAL_Driver/Src/stm32f4xx_ll_usb.c ****   * @param  chnum Channel number
1237:Drivers/STM32F4xx_HAL_Driver/Src/stm32f4xx_ll_usb.c ****   * @retval USB Channel Interrupt status
1238:Drivers/STM32F4xx_HAL_Driver/Src/stm32f4xx_ll_usb.c ****   */
1239:Drivers/STM32F4xx_HAL_Driver/Src/stm32f4xx_ll_usb.c **** uint32_t USB_ReadChInterrupts(const USB_OTG_GlobalTypeDef *USBx, uint8_t chnum)
1240:Drivers/STM32F4xx_HAL_Driver/Src/stm32f4xx_ll_usb.c **** {
1241:Drivers/STM32F4xx_HAL_Driver/Src/stm32f4xx_ll_usb.c ****   uint32_t USBx_BASE = (uint32_t)USBx;
1242:Drivers/STM32F4xx_HAL_Driver/Src/stm32f4xx_ll_usb.c ****   uint32_t tmpreg;
1243:Drivers/STM32F4xx_HAL_Driver/Src/stm32f4xx_ll_usb.c **** 
1244:Drivers/STM32F4xx_HAL_Driver/Src/stm32f4xx_ll_usb.c ****   tmpreg = USBx_HC(chnum)->HCINT;
1245:Drivers/STM32F4xx_HAL_Driver/Src/stm32f4xx_ll_usb.c ****   tmpreg &= USBx_HC(chnum)->HCINTMSK;
1246:Drivers/STM32F4xx_HAL_Driver/Src/stm32f4xx_ll_usb.c **** 
1247:Drivers/STM32F4xx_HAL_Driver/Src/stm32f4xx_ll_usb.c ****   return tmpreg;
1248:Drivers/STM32F4xx_HAL_Driver/Src/stm32f4xx_ll_usb.c **** }
1249:Drivers/STM32F4xx_HAL_Driver/Src/stm32f4xx_ll_usb.c **** 
1250:Drivers/STM32F4xx_HAL_Driver/Src/stm32f4xx_ll_usb.c **** /**
1251:Drivers/STM32F4xx_HAL_Driver/Src/stm32f4xx_ll_usb.c ****   * @brief  USB_ReadDevAllOutEpInterrupt: return the USB device OUT endpoints interrupt status
1252:Drivers/STM32F4xx_HAL_Driver/Src/stm32f4xx_ll_usb.c ****   * @param  USBx  Selected device
1253:Drivers/STM32F4xx_HAL_Driver/Src/stm32f4xx_ll_usb.c ****   * @retval USB Device OUT EP interrupt status
1254:Drivers/STM32F4xx_HAL_Driver/Src/stm32f4xx_ll_usb.c ****   */
1255:Drivers/STM32F4xx_HAL_Driver/Src/stm32f4xx_ll_usb.c **** uint32_t USB_ReadDevAllOutEpInterrupt(const USB_OTG_GlobalTypeDef *USBx)
1256:Drivers/STM32F4xx_HAL_Driver/Src/stm32f4xx_ll_usb.c **** {
1257:Drivers/STM32F4xx_HAL_Driver/Src/stm32f4xx_ll_usb.c ****   uint32_t USBx_BASE = (uint32_t)USBx;
1258:Drivers/STM32F4xx_HAL_Driver/Src/stm32f4xx_ll_usb.c ****   uint32_t tmpreg;
1259:Drivers/STM32F4xx_HAL_Driver/Src/stm32f4xx_ll_usb.c **** 
1260:Drivers/STM32F4xx_HAL_Driver/Src/stm32f4xx_ll_usb.c ****   tmpreg  = USBx_DEVICE->DAINT;
1261:Drivers/STM32F4xx_HAL_Driver/Src/stm32f4xx_ll_usb.c ****   tmpreg &= USBx_DEVICE->DAINTMSK;
1262:Drivers/STM32F4xx_HAL_Driver/Src/stm32f4xx_ll_usb.c **** 
1263:Drivers/STM32F4xx_HAL_Driver/Src/stm32f4xx_ll_usb.c ****   return ((tmpreg & 0xffff0000U) >> 16);
1264:Drivers/STM32F4xx_HAL_Driver/Src/stm32f4xx_ll_usb.c **** }
1265:Drivers/STM32F4xx_HAL_Driver/Src/stm32f4xx_ll_usb.c **** 
1266:Drivers/STM32F4xx_HAL_Driver/Src/stm32f4xx_ll_usb.c **** /**
1267:Drivers/STM32F4xx_HAL_Driver/Src/stm32f4xx_ll_usb.c ****   * @brief  USB_ReadDevAllInEpInterrupt: return the USB device IN endpoints interrupt status
1268:Drivers/STM32F4xx_HAL_Driver/Src/stm32f4xx_ll_usb.c ****   * @param  USBx  Selected device
1269:Drivers/STM32F4xx_HAL_Driver/Src/stm32f4xx_ll_usb.c ****   * @retval USB Device IN EP interrupt status
1270:Drivers/STM32F4xx_HAL_Driver/Src/stm32f4xx_ll_usb.c ****   */
1271:Drivers/STM32F4xx_HAL_Driver/Src/stm32f4xx_ll_usb.c **** uint32_t USB_ReadDevAllInEpInterrupt(const USB_OTG_GlobalTypeDef *USBx)
1272:Drivers/STM32F4xx_HAL_Driver/Src/stm32f4xx_ll_usb.c **** {
1273:Drivers/STM32F4xx_HAL_Driver/Src/stm32f4xx_ll_usb.c ****   uint32_t USBx_BASE = (uint32_t)USBx;
1274:Drivers/STM32F4xx_HAL_Driver/Src/stm32f4xx_ll_usb.c ****   uint32_t tmpreg;
1275:Drivers/STM32F4xx_HAL_Driver/Src/stm32f4xx_ll_usb.c **** 
1276:Drivers/STM32F4xx_HAL_Driver/Src/stm32f4xx_ll_usb.c ****   tmpreg  = USBx_DEVICE->DAINT;
1277:Drivers/STM32F4xx_HAL_Driver/Src/stm32f4xx_ll_usb.c ****   tmpreg &= USBx_DEVICE->DAINTMSK;
1278:Drivers/STM32F4xx_HAL_Driver/Src/stm32f4xx_ll_usb.c **** 
1279:Drivers/STM32F4xx_HAL_Driver/Src/stm32f4xx_ll_usb.c ****   return ((tmpreg & 0xFFFFU));
1280:Drivers/STM32F4xx_HAL_Driver/Src/stm32f4xx_ll_usb.c **** }
1281:Drivers/STM32F4xx_HAL_Driver/Src/stm32f4xx_ll_usb.c **** 
1282:Drivers/STM32F4xx_HAL_Driver/Src/stm32f4xx_ll_usb.c **** /**
1283:Drivers/STM32F4xx_HAL_Driver/Src/stm32f4xx_ll_usb.c ****   * @brief  Returns Device OUT EP Interrupt register
1284:Drivers/STM32F4xx_HAL_Driver/Src/stm32f4xx_ll_usb.c ****   * @param  USBx  Selected device
ARM GAS  /tmp/ccELzqP8.s 			page 24


1285:Drivers/STM32F4xx_HAL_Driver/Src/stm32f4xx_ll_usb.c ****   * @param  epnum  endpoint number
1286:Drivers/STM32F4xx_HAL_Driver/Src/stm32f4xx_ll_usb.c ****   *          This parameter can be a value from 0 to 15
1287:Drivers/STM32F4xx_HAL_Driver/Src/stm32f4xx_ll_usb.c ****   * @retval Device OUT EP Interrupt register
1288:Drivers/STM32F4xx_HAL_Driver/Src/stm32f4xx_ll_usb.c ****   */
1289:Drivers/STM32F4xx_HAL_Driver/Src/stm32f4xx_ll_usb.c **** uint32_t USB_ReadDevOutEPInterrupt(const USB_OTG_GlobalTypeDef *USBx, uint8_t epnum)
1290:Drivers/STM32F4xx_HAL_Driver/Src/stm32f4xx_ll_usb.c **** {
1291:Drivers/STM32F4xx_HAL_Driver/Src/stm32f4xx_ll_usb.c ****   uint32_t USBx_BASE = (uint32_t)USBx;
1292:Drivers/STM32F4xx_HAL_Driver/Src/stm32f4xx_ll_usb.c ****   uint32_t tmpreg;
1293:Drivers/STM32F4xx_HAL_Driver/Src/stm32f4xx_ll_usb.c **** 
1294:Drivers/STM32F4xx_HAL_Driver/Src/stm32f4xx_ll_usb.c ****   tmpreg  = USBx_OUTEP((uint32_t)epnum)->DOEPINT;
1295:Drivers/STM32F4xx_HAL_Driver/Src/stm32f4xx_ll_usb.c ****   tmpreg &= USBx_DEVICE->DOEPMSK;
1296:Drivers/STM32F4xx_HAL_Driver/Src/stm32f4xx_ll_usb.c **** 
1297:Drivers/STM32F4xx_HAL_Driver/Src/stm32f4xx_ll_usb.c ****   return tmpreg;
1298:Drivers/STM32F4xx_HAL_Driver/Src/stm32f4xx_ll_usb.c **** }
1299:Drivers/STM32F4xx_HAL_Driver/Src/stm32f4xx_ll_usb.c **** 
1300:Drivers/STM32F4xx_HAL_Driver/Src/stm32f4xx_ll_usb.c **** /**
1301:Drivers/STM32F4xx_HAL_Driver/Src/stm32f4xx_ll_usb.c ****   * @brief  Returns Device IN EP Interrupt register
1302:Drivers/STM32F4xx_HAL_Driver/Src/stm32f4xx_ll_usb.c ****   * @param  USBx  Selected device
1303:Drivers/STM32F4xx_HAL_Driver/Src/stm32f4xx_ll_usb.c ****   * @param  epnum  endpoint number
1304:Drivers/STM32F4xx_HAL_Driver/Src/stm32f4xx_ll_usb.c ****   *          This parameter can be a value from 0 to 15
1305:Drivers/STM32F4xx_HAL_Driver/Src/stm32f4xx_ll_usb.c ****   * @retval Device IN EP Interrupt register
1306:Drivers/STM32F4xx_HAL_Driver/Src/stm32f4xx_ll_usb.c ****   */
1307:Drivers/STM32F4xx_HAL_Driver/Src/stm32f4xx_ll_usb.c **** uint32_t USB_ReadDevInEPInterrupt(const USB_OTG_GlobalTypeDef *USBx, uint8_t epnum)
1308:Drivers/STM32F4xx_HAL_Driver/Src/stm32f4xx_ll_usb.c **** {
1309:Drivers/STM32F4xx_HAL_Driver/Src/stm32f4xx_ll_usb.c ****   uint32_t USBx_BASE = (uint32_t)USBx;
1310:Drivers/STM32F4xx_HAL_Driver/Src/stm32f4xx_ll_usb.c ****   uint32_t tmpreg;
1311:Drivers/STM32F4xx_HAL_Driver/Src/stm32f4xx_ll_usb.c ****   uint32_t msk;
1312:Drivers/STM32F4xx_HAL_Driver/Src/stm32f4xx_ll_usb.c ****   uint32_t emp;
1313:Drivers/STM32F4xx_HAL_Driver/Src/stm32f4xx_ll_usb.c **** 
1314:Drivers/STM32F4xx_HAL_Driver/Src/stm32f4xx_ll_usb.c ****   msk = USBx_DEVICE->DIEPMSK;
1315:Drivers/STM32F4xx_HAL_Driver/Src/stm32f4xx_ll_usb.c ****   emp = USBx_DEVICE->DIEPEMPMSK;
1316:Drivers/STM32F4xx_HAL_Driver/Src/stm32f4xx_ll_usb.c ****   msk |= ((emp >> (epnum & EP_ADDR_MSK)) & 0x1U) << 7;
1317:Drivers/STM32F4xx_HAL_Driver/Src/stm32f4xx_ll_usb.c ****   tmpreg = USBx_INEP((uint32_t)epnum)->DIEPINT & msk;
1318:Drivers/STM32F4xx_HAL_Driver/Src/stm32f4xx_ll_usb.c **** 
1319:Drivers/STM32F4xx_HAL_Driver/Src/stm32f4xx_ll_usb.c ****   return tmpreg;
1320:Drivers/STM32F4xx_HAL_Driver/Src/stm32f4xx_ll_usb.c **** }
1321:Drivers/STM32F4xx_HAL_Driver/Src/stm32f4xx_ll_usb.c **** 
1322:Drivers/STM32F4xx_HAL_Driver/Src/stm32f4xx_ll_usb.c **** /**
1323:Drivers/STM32F4xx_HAL_Driver/Src/stm32f4xx_ll_usb.c ****   * @brief  USB_ClearInterrupts: clear a USB interrupt
1324:Drivers/STM32F4xx_HAL_Driver/Src/stm32f4xx_ll_usb.c ****   * @param  USBx  Selected device
1325:Drivers/STM32F4xx_HAL_Driver/Src/stm32f4xx_ll_usb.c ****   * @param  interrupt  flag
1326:Drivers/STM32F4xx_HAL_Driver/Src/stm32f4xx_ll_usb.c ****   * @retval None
1327:Drivers/STM32F4xx_HAL_Driver/Src/stm32f4xx_ll_usb.c ****   */
1328:Drivers/STM32F4xx_HAL_Driver/Src/stm32f4xx_ll_usb.c **** void  USB_ClearInterrupts(USB_OTG_GlobalTypeDef *USBx, uint32_t interrupt)
1329:Drivers/STM32F4xx_HAL_Driver/Src/stm32f4xx_ll_usb.c **** {
1330:Drivers/STM32F4xx_HAL_Driver/Src/stm32f4xx_ll_usb.c ****   USBx->GINTSTS &= interrupt;
1331:Drivers/STM32F4xx_HAL_Driver/Src/stm32f4xx_ll_usb.c **** }
1332:Drivers/STM32F4xx_HAL_Driver/Src/stm32f4xx_ll_usb.c **** 
1333:Drivers/STM32F4xx_HAL_Driver/Src/stm32f4xx_ll_usb.c **** /**
1334:Drivers/STM32F4xx_HAL_Driver/Src/stm32f4xx_ll_usb.c ****   * @brief  Returns USB core mode
1335:Drivers/STM32F4xx_HAL_Driver/Src/stm32f4xx_ll_usb.c ****   * @param  USBx  Selected device
1336:Drivers/STM32F4xx_HAL_Driver/Src/stm32f4xx_ll_usb.c ****   * @retval return core mode : Host or Device
1337:Drivers/STM32F4xx_HAL_Driver/Src/stm32f4xx_ll_usb.c ****   *          This parameter can be one of these values:
1338:Drivers/STM32F4xx_HAL_Driver/Src/stm32f4xx_ll_usb.c ****   *           1 : Host
1339:Drivers/STM32F4xx_HAL_Driver/Src/stm32f4xx_ll_usb.c ****   *           0 : Device
1340:Drivers/STM32F4xx_HAL_Driver/Src/stm32f4xx_ll_usb.c ****   */
1341:Drivers/STM32F4xx_HAL_Driver/Src/stm32f4xx_ll_usb.c **** uint32_t USB_GetMode(const USB_OTG_GlobalTypeDef *USBx)
ARM GAS  /tmp/ccELzqP8.s 			page 25


1342:Drivers/STM32F4xx_HAL_Driver/Src/stm32f4xx_ll_usb.c **** {
1343:Drivers/STM32F4xx_HAL_Driver/Src/stm32f4xx_ll_usb.c ****   return ((USBx->GINTSTS) & 0x1U);
1344:Drivers/STM32F4xx_HAL_Driver/Src/stm32f4xx_ll_usb.c **** }
1345:Drivers/STM32F4xx_HAL_Driver/Src/stm32f4xx_ll_usb.c **** 
1346:Drivers/STM32F4xx_HAL_Driver/Src/stm32f4xx_ll_usb.c **** /**
1347:Drivers/STM32F4xx_HAL_Driver/Src/stm32f4xx_ll_usb.c ****   * @brief  Activate EP0 for Setup transactions
1348:Drivers/STM32F4xx_HAL_Driver/Src/stm32f4xx_ll_usb.c ****   * @param  USBx  Selected device
1349:Drivers/STM32F4xx_HAL_Driver/Src/stm32f4xx_ll_usb.c ****   * @retval HAL status
1350:Drivers/STM32F4xx_HAL_Driver/Src/stm32f4xx_ll_usb.c ****   */
1351:Drivers/STM32F4xx_HAL_Driver/Src/stm32f4xx_ll_usb.c **** HAL_StatusTypeDef USB_ActivateSetup(const USB_OTG_GlobalTypeDef *USBx)
1352:Drivers/STM32F4xx_HAL_Driver/Src/stm32f4xx_ll_usb.c **** {
1353:Drivers/STM32F4xx_HAL_Driver/Src/stm32f4xx_ll_usb.c ****   uint32_t USBx_BASE = (uint32_t)USBx;
1354:Drivers/STM32F4xx_HAL_Driver/Src/stm32f4xx_ll_usb.c **** 
1355:Drivers/STM32F4xx_HAL_Driver/Src/stm32f4xx_ll_usb.c ****   /* Set the MPS of the IN EP0 to 64 bytes */
1356:Drivers/STM32F4xx_HAL_Driver/Src/stm32f4xx_ll_usb.c ****   USBx_INEP(0U)->DIEPCTL &= ~USB_OTG_DIEPCTL_MPSIZ;
1357:Drivers/STM32F4xx_HAL_Driver/Src/stm32f4xx_ll_usb.c **** 
1358:Drivers/STM32F4xx_HAL_Driver/Src/stm32f4xx_ll_usb.c ****   USBx_DEVICE->DCTL |= USB_OTG_DCTL_CGINAK;
1359:Drivers/STM32F4xx_HAL_Driver/Src/stm32f4xx_ll_usb.c **** 
1360:Drivers/STM32F4xx_HAL_Driver/Src/stm32f4xx_ll_usb.c ****   return HAL_OK;
1361:Drivers/STM32F4xx_HAL_Driver/Src/stm32f4xx_ll_usb.c **** }
1362:Drivers/STM32F4xx_HAL_Driver/Src/stm32f4xx_ll_usb.c **** 
1363:Drivers/STM32F4xx_HAL_Driver/Src/stm32f4xx_ll_usb.c **** /**
1364:Drivers/STM32F4xx_HAL_Driver/Src/stm32f4xx_ll_usb.c ****   * @brief  Prepare the EP0 to start the first control setup
1365:Drivers/STM32F4xx_HAL_Driver/Src/stm32f4xx_ll_usb.c ****   * @param  USBx  Selected device
1366:Drivers/STM32F4xx_HAL_Driver/Src/stm32f4xx_ll_usb.c ****   * @param  dma USB dma enabled or disabled
1367:Drivers/STM32F4xx_HAL_Driver/Src/stm32f4xx_ll_usb.c ****   *          This parameter can be one of these values:
1368:Drivers/STM32F4xx_HAL_Driver/Src/stm32f4xx_ll_usb.c ****   *           0 : DMA feature not used
1369:Drivers/STM32F4xx_HAL_Driver/Src/stm32f4xx_ll_usb.c ****   *           1 : DMA feature used
1370:Drivers/STM32F4xx_HAL_Driver/Src/stm32f4xx_ll_usb.c ****   * @param  psetup  pointer to setup packet
1371:Drivers/STM32F4xx_HAL_Driver/Src/stm32f4xx_ll_usb.c ****   * @retval HAL status
1372:Drivers/STM32F4xx_HAL_Driver/Src/stm32f4xx_ll_usb.c ****   */
1373:Drivers/STM32F4xx_HAL_Driver/Src/stm32f4xx_ll_usb.c **** HAL_StatusTypeDef USB_EP0_OutStart(const USB_OTG_GlobalTypeDef *USBx, uint8_t dma, const uint8_t *p
1374:Drivers/STM32F4xx_HAL_Driver/Src/stm32f4xx_ll_usb.c **** {
1375:Drivers/STM32F4xx_HAL_Driver/Src/stm32f4xx_ll_usb.c ****   uint32_t USBx_BASE = (uint32_t)USBx;
1376:Drivers/STM32F4xx_HAL_Driver/Src/stm32f4xx_ll_usb.c ****   uint32_t gSNPSiD = *(__IO const uint32_t *)(&USBx->CID + 0x1U);
1377:Drivers/STM32F4xx_HAL_Driver/Src/stm32f4xx_ll_usb.c **** 
1378:Drivers/STM32F4xx_HAL_Driver/Src/stm32f4xx_ll_usb.c ****   if (gSNPSiD > USB_OTG_CORE_ID_300A)
1379:Drivers/STM32F4xx_HAL_Driver/Src/stm32f4xx_ll_usb.c ****   {
1380:Drivers/STM32F4xx_HAL_Driver/Src/stm32f4xx_ll_usb.c ****     if ((USBx_OUTEP(0U)->DOEPCTL & USB_OTG_DOEPCTL_EPENA) == USB_OTG_DOEPCTL_EPENA)
1381:Drivers/STM32F4xx_HAL_Driver/Src/stm32f4xx_ll_usb.c ****     {
1382:Drivers/STM32F4xx_HAL_Driver/Src/stm32f4xx_ll_usb.c ****       return HAL_OK;
1383:Drivers/STM32F4xx_HAL_Driver/Src/stm32f4xx_ll_usb.c ****     }
1384:Drivers/STM32F4xx_HAL_Driver/Src/stm32f4xx_ll_usb.c ****   }
1385:Drivers/STM32F4xx_HAL_Driver/Src/stm32f4xx_ll_usb.c **** 
1386:Drivers/STM32F4xx_HAL_Driver/Src/stm32f4xx_ll_usb.c ****   USBx_OUTEP(0U)->DOEPTSIZ = 0U;
1387:Drivers/STM32F4xx_HAL_Driver/Src/stm32f4xx_ll_usb.c ****   USBx_OUTEP(0U)->DOEPTSIZ |= (USB_OTG_DOEPTSIZ_PKTCNT & (1U << 19));
1388:Drivers/STM32F4xx_HAL_Driver/Src/stm32f4xx_ll_usb.c ****   USBx_OUTEP(0U)->DOEPTSIZ |= (3U * 8U);
1389:Drivers/STM32F4xx_HAL_Driver/Src/stm32f4xx_ll_usb.c ****   USBx_OUTEP(0U)->DOEPTSIZ |=  USB_OTG_DOEPTSIZ_STUPCNT;
1390:Drivers/STM32F4xx_HAL_Driver/Src/stm32f4xx_ll_usb.c **** 
1391:Drivers/STM32F4xx_HAL_Driver/Src/stm32f4xx_ll_usb.c ****   if (dma == 1U)
1392:Drivers/STM32F4xx_HAL_Driver/Src/stm32f4xx_ll_usb.c ****   {
1393:Drivers/STM32F4xx_HAL_Driver/Src/stm32f4xx_ll_usb.c ****     USBx_OUTEP(0U)->DOEPDMA = (uint32_t)psetup;
1394:Drivers/STM32F4xx_HAL_Driver/Src/stm32f4xx_ll_usb.c ****     /* EP enable */
1395:Drivers/STM32F4xx_HAL_Driver/Src/stm32f4xx_ll_usb.c ****     USBx_OUTEP(0U)->DOEPCTL |= USB_OTG_DOEPCTL_EPENA | USB_OTG_DOEPCTL_USBAEP;
1396:Drivers/STM32F4xx_HAL_Driver/Src/stm32f4xx_ll_usb.c ****   }
1397:Drivers/STM32F4xx_HAL_Driver/Src/stm32f4xx_ll_usb.c **** 
1398:Drivers/STM32F4xx_HAL_Driver/Src/stm32f4xx_ll_usb.c ****   return HAL_OK;
ARM GAS  /tmp/ccELzqP8.s 			page 26


1399:Drivers/STM32F4xx_HAL_Driver/Src/stm32f4xx_ll_usb.c **** }
1400:Drivers/STM32F4xx_HAL_Driver/Src/stm32f4xx_ll_usb.c **** 
1401:Drivers/STM32F4xx_HAL_Driver/Src/stm32f4xx_ll_usb.c **** /**
1402:Drivers/STM32F4xx_HAL_Driver/Src/stm32f4xx_ll_usb.c ****   * @brief  Reset the USB Core (needed after USB clock settings change)
1403:Drivers/STM32F4xx_HAL_Driver/Src/stm32f4xx_ll_usb.c ****   * @param  USBx  Selected device
1404:Drivers/STM32F4xx_HAL_Driver/Src/stm32f4xx_ll_usb.c ****   * @retval HAL status
1405:Drivers/STM32F4xx_HAL_Driver/Src/stm32f4xx_ll_usb.c ****   */
1406:Drivers/STM32F4xx_HAL_Driver/Src/stm32f4xx_ll_usb.c **** static HAL_StatusTypeDef USB_CoreReset(USB_OTG_GlobalTypeDef *USBx)
1407:Drivers/STM32F4xx_HAL_Driver/Src/stm32f4xx_ll_usb.c **** {
  29              		.loc 1 1407 1 view -0
  30              		.cfi_startproc
  31              		@ args = 0, pretend = 0, frame = 8
  32              		@ frame_needed = 0, uses_anonymous_args = 0
  33              		@ link register save eliminated.
  34              		.loc 1 1407 1 is_stmt 0 view .LVU1
  35 0000 82B0     		sub	sp, sp, #8
  36              	.LCFI0:
  37              		.cfi_def_cfa_offset 8
1408:Drivers/STM32F4xx_HAL_Driver/Src/stm32f4xx_ll_usb.c ****   __IO uint32_t count = 0U;
  38              		.loc 1 1408 3 is_stmt 1 view .LVU2
  39              		.loc 1 1408 17 is_stmt 0 view .LVU3
  40 0002 0023     		movs	r3, #0
  41 0004 0193     		str	r3, [sp, #4]
  42              	.L3:
1409:Drivers/STM32F4xx_HAL_Driver/Src/stm32f4xx_ll_usb.c **** 
1410:Drivers/STM32F4xx_HAL_Driver/Src/stm32f4xx_ll_usb.c ****   /* Wait for AHB master IDLE state. */
1411:Drivers/STM32F4xx_HAL_Driver/Src/stm32f4xx_ll_usb.c ****   do
  43              		.loc 1 1411 3 is_stmt 1 view .LVU4
1412:Drivers/STM32F4xx_HAL_Driver/Src/stm32f4xx_ll_usb.c ****   {
1413:Drivers/STM32F4xx_HAL_Driver/Src/stm32f4xx_ll_usb.c ****     count++;
  44              		.loc 1 1413 5 view .LVU5
  45              		.loc 1 1413 10 is_stmt 0 view .LVU6
  46 0006 019B     		ldr	r3, [sp, #4]
  47 0008 0133     		adds	r3, r3, #1
  48 000a 0193     		str	r3, [sp, #4]
1414:Drivers/STM32F4xx_HAL_Driver/Src/stm32f4xx_ll_usb.c **** 
1415:Drivers/STM32F4xx_HAL_Driver/Src/stm32f4xx_ll_usb.c ****     if (count > HAL_USB_TIMEOUT)
  49              		.loc 1 1415 5 is_stmt 1 view .LVU7
  50              		.loc 1 1415 15 is_stmt 0 view .LVU8
  51 000c 019B     		ldr	r3, [sp, #4]
  52              		.loc 1 1415 8 view .LVU9
  53 000e B3F1706F 		cmp	r3, #251658240
  54 0012 1CD8     		bhi	.L7
1416:Drivers/STM32F4xx_HAL_Driver/Src/stm32f4xx_ll_usb.c ****     {
1417:Drivers/STM32F4xx_HAL_Driver/Src/stm32f4xx_ll_usb.c ****       return HAL_TIMEOUT;
1418:Drivers/STM32F4xx_HAL_Driver/Src/stm32f4xx_ll_usb.c ****     }
1419:Drivers/STM32F4xx_HAL_Driver/Src/stm32f4xx_ll_usb.c ****   } while ((USBx->GRSTCTL & USB_OTG_GRSTCTL_AHBIDL) == 0U);
  55              		.loc 1 1419 11 is_stmt 1 view .LVU10
  56              		.loc 1 1419 17 is_stmt 0 view .LVU11
  57 0014 0369     		ldr	r3, [r0, #16]
  58              		.loc 1 1419 3 view .LVU12
  59 0016 002B     		cmp	r3, #0
  60 0018 F5DA     		bge	.L3
1420:Drivers/STM32F4xx_HAL_Driver/Src/stm32f4xx_ll_usb.c **** 
1421:Drivers/STM32F4xx_HAL_Driver/Src/stm32f4xx_ll_usb.c ****   count = 10U;
  61              		.loc 1 1421 3 is_stmt 1 view .LVU13
  62              		.loc 1 1421 9 is_stmt 0 view .LVU14
ARM GAS  /tmp/ccELzqP8.s 			page 27


  63 001a 0A23     		movs	r3, #10
  64 001c 0193     		str	r3, [sp, #4]
1422:Drivers/STM32F4xx_HAL_Driver/Src/stm32f4xx_ll_usb.c **** 
1423:Drivers/STM32F4xx_HAL_Driver/Src/stm32f4xx_ll_usb.c ****   /* few cycles before setting core reset */
1424:Drivers/STM32F4xx_HAL_Driver/Src/stm32f4xx_ll_usb.c ****   while (count > 0U)
  65              		.loc 1 1424 3 is_stmt 1 view .LVU15
  66              		.loc 1 1424 9 is_stmt 0 view .LVU16
  67 001e 02E0     		b	.L4
  68              	.L5:
1425:Drivers/STM32F4xx_HAL_Driver/Src/stm32f4xx_ll_usb.c ****   {
1426:Drivers/STM32F4xx_HAL_Driver/Src/stm32f4xx_ll_usb.c ****     count--;
  69              		.loc 1 1426 5 is_stmt 1 view .LVU17
  70              		.loc 1 1426 10 is_stmt 0 view .LVU18
  71 0020 019B     		ldr	r3, [sp, #4]
  72 0022 013B     		subs	r3, r3, #1
  73 0024 0193     		str	r3, [sp, #4]
  74              	.L4:
1424:Drivers/STM32F4xx_HAL_Driver/Src/stm32f4xx_ll_usb.c ****   {
  75              		.loc 1 1424 9 is_stmt 1 view .LVU19
1424:Drivers/STM32F4xx_HAL_Driver/Src/stm32f4xx_ll_usb.c ****   {
  76              		.loc 1 1424 16 is_stmt 0 view .LVU20
  77 0026 019B     		ldr	r3, [sp, #4]
1424:Drivers/STM32F4xx_HAL_Driver/Src/stm32f4xx_ll_usb.c ****   {
  78              		.loc 1 1424 9 view .LVU21
  79 0028 002B     		cmp	r3, #0
  80 002a F9D1     		bne	.L5
1427:Drivers/STM32F4xx_HAL_Driver/Src/stm32f4xx_ll_usb.c ****   }
1428:Drivers/STM32F4xx_HAL_Driver/Src/stm32f4xx_ll_usb.c **** 
1429:Drivers/STM32F4xx_HAL_Driver/Src/stm32f4xx_ll_usb.c ****   /* Core Soft Reset */
1430:Drivers/STM32F4xx_HAL_Driver/Src/stm32f4xx_ll_usb.c ****   USBx->GRSTCTL |= USB_OTG_GRSTCTL_CSRST;
  81              		.loc 1 1430 3 is_stmt 1 view .LVU22
  82              		.loc 1 1430 17 is_stmt 0 view .LVU23
  83 002c 0369     		ldr	r3, [r0, #16]
  84 002e 43F00103 		orr	r3, r3, #1
  85 0032 0361     		str	r3, [r0, #16]
  86              	.L6:
1431:Drivers/STM32F4xx_HAL_Driver/Src/stm32f4xx_ll_usb.c **** 
1432:Drivers/STM32F4xx_HAL_Driver/Src/stm32f4xx_ll_usb.c ****   do
  87              		.loc 1 1432 3 is_stmt 1 view .LVU24
1433:Drivers/STM32F4xx_HAL_Driver/Src/stm32f4xx_ll_usb.c ****   {
1434:Drivers/STM32F4xx_HAL_Driver/Src/stm32f4xx_ll_usb.c ****     count++;
  88              		.loc 1 1434 5 view .LVU25
  89              		.loc 1 1434 10 is_stmt 0 view .LVU26
  90 0034 019B     		ldr	r3, [sp, #4]
  91 0036 0133     		adds	r3, r3, #1
  92 0038 0193     		str	r3, [sp, #4]
1435:Drivers/STM32F4xx_HAL_Driver/Src/stm32f4xx_ll_usb.c **** 
1436:Drivers/STM32F4xx_HAL_Driver/Src/stm32f4xx_ll_usb.c ****     if (count > HAL_USB_TIMEOUT)
  93              		.loc 1 1436 5 is_stmt 1 view .LVU27
  94              		.loc 1 1436 15 is_stmt 0 view .LVU28
  95 003a 019B     		ldr	r3, [sp, #4]
  96              		.loc 1 1436 8 view .LVU29
  97 003c B3F1706F 		cmp	r3, #251658240
  98 0040 08D8     		bhi	.L8
1437:Drivers/STM32F4xx_HAL_Driver/Src/stm32f4xx_ll_usb.c ****     {
1438:Drivers/STM32F4xx_HAL_Driver/Src/stm32f4xx_ll_usb.c ****       return HAL_TIMEOUT;
1439:Drivers/STM32F4xx_HAL_Driver/Src/stm32f4xx_ll_usb.c ****     }
ARM GAS  /tmp/ccELzqP8.s 			page 28


1440:Drivers/STM32F4xx_HAL_Driver/Src/stm32f4xx_ll_usb.c ****   } while ((USBx->GRSTCTL & USB_OTG_GRSTCTL_CSRST) == USB_OTG_GRSTCTL_CSRST);
  99              		.loc 1 1440 11 is_stmt 1 view .LVU30
 100              		.loc 1 1440 17 is_stmt 0 view .LVU31
 101 0042 0369     		ldr	r3, [r0, #16]
 102              		.loc 1 1440 3 view .LVU32
 103 0044 13F0010F 		tst	r3, #1
 104 0048 F4D1     		bne	.L6
1441:Drivers/STM32F4xx_HAL_Driver/Src/stm32f4xx_ll_usb.c **** 
1442:Drivers/STM32F4xx_HAL_Driver/Src/stm32f4xx_ll_usb.c ****   return HAL_OK;
 105              		.loc 1 1442 10 view .LVU33
 106 004a 0020     		movs	r0, #0
 107              	.LVL1:
 108              		.loc 1 1442 10 view .LVU34
 109 004c 00E0     		b	.L2
 110              	.LVL2:
 111              	.L7:
1417:Drivers/STM32F4xx_HAL_Driver/Src/stm32f4xx_ll_usb.c ****     }
 112              		.loc 1 1417 14 view .LVU35
 113 004e 0320     		movs	r0, #3
 114              	.LVL3:
 115              	.L2:
1443:Drivers/STM32F4xx_HAL_Driver/Src/stm32f4xx_ll_usb.c **** }
 116              		.loc 1 1443 1 view .LVU36
 117 0050 02B0     		add	sp, sp, #8
 118              	.LCFI1:
 119              		.cfi_remember_state
 120              		.cfi_def_cfa_offset 0
 121              		@ sp needed
 122 0052 7047     		bx	lr
 123              	.LVL4:
 124              	.L8:
 125              	.LCFI2:
 126              		.cfi_restore_state
1438:Drivers/STM32F4xx_HAL_Driver/Src/stm32f4xx_ll_usb.c ****     }
 127              		.loc 1 1438 14 view .LVU37
 128 0054 0320     		movs	r0, #3
 129              	.LVL5:
1438:Drivers/STM32F4xx_HAL_Driver/Src/stm32f4xx_ll_usb.c ****     }
 130              		.loc 1 1438 14 view .LVU38
 131 0056 FBE7     		b	.L2
 132              		.cfi_endproc
 133              	.LFE168:
 135              		.section	.text.USB_CoreInit,"ax",%progbits
 136              		.align	1
 137              		.global	USB_CoreInit
 138              		.syntax unified
 139              		.thumb
 140              		.thumb_func
 141              		.fpu fpv4-sp-d16
 143              	USB_CoreInit:
 144              	.LVL6:
 145              	.LFB134:
  84:Drivers/STM32F4xx_HAL_Driver/Src/stm32f4xx_ll_usb.c ****   HAL_StatusTypeDef ret;
 146              		.loc 1 84 1 is_stmt 1 view -0
 147              		.cfi_startproc
 148              		@ args = 20, pretend = 16, frame = 0
 149              		@ frame_needed = 0, uses_anonymous_args = 0
ARM GAS  /tmp/ccELzqP8.s 			page 29


  84:Drivers/STM32F4xx_HAL_Driver/Src/stm32f4xx_ll_usb.c ****   HAL_StatusTypeDef ret;
 150              		.loc 1 84 1 is_stmt 0 view .LVU40
 151 0000 84B0     		sub	sp, sp, #16
 152              	.LCFI3:
 153              		.cfi_def_cfa_offset 16
 154 0002 10B5     		push	{r4, lr}
 155              	.LCFI4:
 156              		.cfi_def_cfa_offset 24
 157              		.cfi_offset 4, -24
 158              		.cfi_offset 14, -20
 159 0004 0446     		mov	r4, r0
 160 0006 03A8     		add	r0, sp, #12
 161 0008 80E80E00 		stm	r0, {r1, r2, r3}
  85:Drivers/STM32F4xx_HAL_Driver/Src/stm32f4xx_ll_usb.c ****   if (cfg.phy_itface == USB_OTG_ULPI_PHY)
 162              		.loc 1 85 3 is_stmt 1 view .LVU41
  86:Drivers/STM32F4xx_HAL_Driver/Src/stm32f4xx_ll_usb.c ****   {
 163              		.loc 1 86 3 view .LVU42
  86:Drivers/STM32F4xx_HAL_Driver/Src/stm32f4xx_ll_usb.c ****   {
 164              		.loc 1 86 10 is_stmt 0 view .LVU43
 165 000c 9DF81130 		ldrb	r3, [sp, #17]	@ zero_extendqisi2
  86:Drivers/STM32F4xx_HAL_Driver/Src/stm32f4xx_ll_usb.c ****   {
 166              		.loc 1 86 6 view .LVU44
 167 0010 012B     		cmp	r3, #1
 168 0012 21D1     		bne	.L11
  88:Drivers/STM32F4xx_HAL_Driver/Src/stm32f4xx_ll_usb.c **** 
 169              		.loc 1 88 5 is_stmt 1 view .LVU45
  88:Drivers/STM32F4xx_HAL_Driver/Src/stm32f4xx_ll_usb.c **** 
 170              		.loc 1 88 17 is_stmt 0 view .LVU46
 171 0014 A36B     		ldr	r3, [r4, #56]
 172 0016 23F48033 		bic	r3, r3, #65536
 173 001a A363     		str	r3, [r4, #56]
  91:Drivers/STM32F4xx_HAL_Driver/Src/stm32f4xx_ll_usb.c **** 
 174              		.loc 1 91 5 is_stmt 1 view .LVU47
  91:Drivers/STM32F4xx_HAL_Driver/Src/stm32f4xx_ll_usb.c **** 
 175              		.loc 1 91 19 is_stmt 0 view .LVU48
 176 001c E368     		ldr	r3, [r4, #12]
 177 001e 23F48403 		bic	r3, r3, #4325376
 178 0022 23F04003 		bic	r3, r3, #64
 179 0026 E360     		str	r3, [r4, #12]
  94:Drivers/STM32F4xx_HAL_Driver/Src/stm32f4xx_ll_usb.c ****     if (cfg.use_external_vbus == 1U)
 180              		.loc 1 94 5 is_stmt 1 view .LVU49
  94:Drivers/STM32F4xx_HAL_Driver/Src/stm32f4xx_ll_usb.c ****     if (cfg.use_external_vbus == 1U)
 181              		.loc 1 94 19 is_stmt 0 view .LVU50
 182 0028 E368     		ldr	r3, [r4, #12]
 183 002a 23F44013 		bic	r3, r3, #3145728
 184 002e E360     		str	r3, [r4, #12]
  95:Drivers/STM32F4xx_HAL_Driver/Src/stm32f4xx_ll_usb.c ****     {
 185              		.loc 1 95 5 is_stmt 1 view .LVU51
  95:Drivers/STM32F4xx_HAL_Driver/Src/stm32f4xx_ll_usb.c ****     {
 186              		.loc 1 95 12 is_stmt 0 view .LVU52
 187 0030 9DF81830 		ldrb	r3, [sp, #24]	@ zero_extendqisi2
  95:Drivers/STM32F4xx_HAL_Driver/Src/stm32f4xx_ll_usb.c ****     {
 188              		.loc 1 95 8 view .LVU53
 189 0034 012B     		cmp	r3, #1
 190 0036 0AD0     		beq	.L17
 191              	.L12:
 101:Drivers/STM32F4xx_HAL_Driver/Src/stm32f4xx_ll_usb.c ****   }
ARM GAS  /tmp/ccELzqP8.s 			page 30


 192              		.loc 1 101 5 is_stmt 1 view .LVU54
 101:Drivers/STM32F4xx_HAL_Driver/Src/stm32f4xx_ll_usb.c ****   }
 193              		.loc 1 101 11 is_stmt 0 view .LVU55
 194 0038 2046     		mov	r0, r4
 195              	.LVL7:
 101:Drivers/STM32F4xx_HAL_Driver/Src/stm32f4xx_ll_usb.c ****   }
 196              		.loc 1 101 11 view .LVU56
 197 003a FFF7FEFF 		bl	USB_CoreReset
 198              	.LVL8:
 199              	.L13:
 123:Drivers/STM32F4xx_HAL_Driver/Src/stm32f4xx_ll_usb.c ****   {
 200              		.loc 1 123 3 is_stmt 1 view .LVU57
 123:Drivers/STM32F4xx_HAL_Driver/Src/stm32f4xx_ll_usb.c ****   {
 201              		.loc 1 123 10 is_stmt 0 view .LVU58
 202 003e 9DF80E30 		ldrb	r3, [sp, #14]	@ zero_extendqisi2
 123:Drivers/STM32F4xx_HAL_Driver/Src/stm32f4xx_ll_usb.c ****   {
 203              		.loc 1 123 6 view .LVU59
 204 0042 012B     		cmp	r3, #1
 205 0044 1CD0     		beq	.L18
 206              	.L15:
 129:Drivers/STM32F4xx_HAL_Driver/Src/stm32f4xx_ll_usb.c **** }
 207              		.loc 1 129 3 is_stmt 1 view .LVU60
 130:Drivers/STM32F4xx_HAL_Driver/Src/stm32f4xx_ll_usb.c **** 
 208              		.loc 1 130 1 is_stmt 0 view .LVU61
 209 0046 BDE81040 		pop	{r4, lr}
 210              	.LCFI5:
 211              		.cfi_remember_state
 212              		.cfi_restore 14
 213              		.cfi_restore 4
 214              		.cfi_def_cfa_offset 16
 215              	.LVL9:
 130:Drivers/STM32F4xx_HAL_Driver/Src/stm32f4xx_ll_usb.c **** 
 216              		.loc 1 130 1 view .LVU62
 217 004a 04B0     		add	sp, sp, #16
 218              	.LCFI6:
 219              		.cfi_def_cfa_offset 0
 220 004c 7047     		bx	lr
 221              	.LVL10:
 222              	.L17:
 223              	.LCFI7:
 224              		.cfi_restore_state
  97:Drivers/STM32F4xx_HAL_Driver/Src/stm32f4xx_ll_usb.c ****     }
 225              		.loc 1 97 7 is_stmt 1 view .LVU63
  97:Drivers/STM32F4xx_HAL_Driver/Src/stm32f4xx_ll_usb.c ****     }
 226              		.loc 1 97 21 is_stmt 0 view .LVU64
 227 004e E368     		ldr	r3, [r4, #12]
 228 0050 43F48013 		orr	r3, r3, #1048576
 229 0054 E360     		str	r3, [r4, #12]
 230 0056 EFE7     		b	.L12
 231              	.L11:
 106:Drivers/STM32F4xx_HAL_Driver/Src/stm32f4xx_ll_usb.c **** 
 232              		.loc 1 106 5 is_stmt 1 view .LVU65
 106:Drivers/STM32F4xx_HAL_Driver/Src/stm32f4xx_ll_usb.c **** 
 233              		.loc 1 106 19 is_stmt 0 view .LVU66
 234 0058 E368     		ldr	r3, [r4, #12]
 235 005a 43F04003 		orr	r3, r3, #64
 236 005e E360     		str	r3, [r4, #12]
ARM GAS  /tmp/ccELzqP8.s 			page 31


 109:Drivers/STM32F4xx_HAL_Driver/Src/stm32f4xx_ll_usb.c **** 
 237              		.loc 1 109 5 is_stmt 1 view .LVU67
 109:Drivers/STM32F4xx_HAL_Driver/Src/stm32f4xx_ll_usb.c **** 
 238              		.loc 1 109 11 is_stmt 0 view .LVU68
 239 0060 2046     		mov	r0, r4
 240              	.LVL11:
 109:Drivers/STM32F4xx_HAL_Driver/Src/stm32f4xx_ll_usb.c **** 
 241              		.loc 1 109 11 view .LVU69
 242 0062 FFF7FEFF 		bl	USB_CoreReset
 243              	.LVL12:
 111:Drivers/STM32F4xx_HAL_Driver/Src/stm32f4xx_ll_usb.c ****     {
 244              		.loc 1 111 5 is_stmt 1 view .LVU70
 111:Drivers/STM32F4xx_HAL_Driver/Src/stm32f4xx_ll_usb.c ****     {
 245              		.loc 1 111 12 is_stmt 0 view .LVU71
 246 0066 9DF81530 		ldrb	r3, [sp, #21]	@ zero_extendqisi2
 111:Drivers/STM32F4xx_HAL_Driver/Src/stm32f4xx_ll_usb.c ****     {
 247              		.loc 1 111 8 view .LVU72
 248 006a 23B9     		cbnz	r3, .L14
 114:Drivers/STM32F4xx_HAL_Driver/Src/stm32f4xx_ll_usb.c ****     }
 249              		.loc 1 114 7 is_stmt 1 view .LVU73
 114:Drivers/STM32F4xx_HAL_Driver/Src/stm32f4xx_ll_usb.c ****     }
 250              		.loc 1 114 19 is_stmt 0 view .LVU74
 251 006c A36B     		ldr	r3, [r4, #56]
 252 006e 43F48033 		orr	r3, r3, #65536
 253 0072 A363     		str	r3, [r4, #56]
 254 0074 E3E7     		b	.L13
 255              	.L14:
 119:Drivers/STM32F4xx_HAL_Driver/Src/stm32f4xx_ll_usb.c ****     }
 256              		.loc 1 119 7 is_stmt 1 view .LVU75
 119:Drivers/STM32F4xx_HAL_Driver/Src/stm32f4xx_ll_usb.c ****     }
 257              		.loc 1 119 19 is_stmt 0 view .LVU76
 258 0076 A36B     		ldr	r3, [r4, #56]
 259 0078 23F48033 		bic	r3, r3, #65536
 260 007c A363     		str	r3, [r4, #56]
 261 007e DEE7     		b	.L13
 262              	.L18:
 125:Drivers/STM32F4xx_HAL_Driver/Src/stm32f4xx_ll_usb.c ****     USBx->GAHBCFG |= USB_OTG_GAHBCFG_DMAEN;
 263              		.loc 1 125 5 is_stmt 1 view .LVU77
 125:Drivers/STM32F4xx_HAL_Driver/Src/stm32f4xx_ll_usb.c ****     USBx->GAHBCFG |= USB_OTG_GAHBCFG_DMAEN;
 264              		.loc 1 125 19 is_stmt 0 view .LVU78
 265 0080 A368     		ldr	r3, [r4, #8]
 266 0082 43F00603 		orr	r3, r3, #6
 267 0086 A360     		str	r3, [r4, #8]
 126:Drivers/STM32F4xx_HAL_Driver/Src/stm32f4xx_ll_usb.c ****   }
 268              		.loc 1 126 5 is_stmt 1 view .LVU79
 126:Drivers/STM32F4xx_HAL_Driver/Src/stm32f4xx_ll_usb.c ****   }
 269              		.loc 1 126 19 is_stmt 0 view .LVU80
 270 0088 A368     		ldr	r3, [r4, #8]
 271 008a 43F02003 		orr	r3, r3, #32
 272 008e A360     		str	r3, [r4, #8]
 273 0090 D9E7     		b	.L15
 274              		.cfi_endproc
 275              	.LFE134:
 277              		.section	.text.USB_SetTurnaroundTime,"ax",%progbits
 278              		.align	1
 279              		.global	USB_SetTurnaroundTime
 280              		.syntax unified
ARM GAS  /tmp/ccELzqP8.s 			page 32


 281              		.thumb
 282              		.thumb_func
 283              		.fpu fpv4-sp-d16
 285              	USB_SetTurnaroundTime:
 286              	.LVL13:
 287              	.LFB135:
 141:Drivers/STM32F4xx_HAL_Driver/Src/stm32f4xx_ll_usb.c ****   uint32_t UsbTrd;
 288              		.loc 1 141 1 is_stmt 1 view -0
 289              		.cfi_startproc
 290              		@ args = 0, pretend = 0, frame = 0
 291              		@ frame_needed = 0, uses_anonymous_args = 0
 292              		@ link register save eliminated.
 142:Drivers/STM32F4xx_HAL_Driver/Src/stm32f4xx_ll_usb.c **** 
 293              		.loc 1 142 3 view .LVU82
 148:Drivers/STM32F4xx_HAL_Driver/Src/stm32f4xx_ll_usb.c ****   {
 294              		.loc 1 148 3 view .LVU83
 148:Drivers/STM32F4xx_HAL_Driver/Src/stm32f4xx_ll_usb.c ****   {
 295              		.loc 1 148 6 is_stmt 0 view .LVU84
 296 0000 022A     		cmp	r2, #2
 297 0002 0AD0     		beq	.L31
 203:Drivers/STM32F4xx_HAL_Driver/Src/stm32f4xx_ll_usb.c ****   }
 298              		.loc 1 203 12 view .LVU85
 299 0004 0921     		movs	r1, #9
 300              	.LVL14:
 301              	.L20:
 210:Drivers/STM32F4xx_HAL_Driver/Src/stm32f4xx_ll_usb.c ****   USBx->GUSBCFG |= (uint32_t)((UsbTrd << 10) & USB_OTG_GUSBCFG_TRDT);
 302              		.loc 1 210 3 is_stmt 1 view .LVU86
 210:Drivers/STM32F4xx_HAL_Driver/Src/stm32f4xx_ll_usb.c ****   USBx->GUSBCFG |= (uint32_t)((UsbTrd << 10) & USB_OTG_GUSBCFG_TRDT);
 303              		.loc 1 210 17 is_stmt 0 view .LVU87
 304 0006 C268     		ldr	r2, [r0, #12]
 305 0008 22F47052 		bic	r2, r2, #15360
 306 000c C260     		str	r2, [r0, #12]
 211:Drivers/STM32F4xx_HAL_Driver/Src/stm32f4xx_ll_usb.c **** 
 307              		.loc 1 211 3 is_stmt 1 view .LVU88
 211:Drivers/STM32F4xx_HAL_Driver/Src/stm32f4xx_ll_usb.c **** 
 308              		.loc 1 211 17 is_stmt 0 view .LVU89
 309 000e C368     		ldr	r3, [r0, #12]
 310 0010 43EA8123 		orr	r3, r3, r1, lsl #10
 311 0014 C360     		str	r3, [r0, #12]
 213:Drivers/STM32F4xx_HAL_Driver/Src/stm32f4xx_ll_usb.c **** }
 312              		.loc 1 213 3 is_stmt 1 view .LVU90
 214:Drivers/STM32F4xx_HAL_Driver/Src/stm32f4xx_ll_usb.c **** 
 313              		.loc 1 214 1 is_stmt 0 view .LVU91
 314 0016 0020     		movs	r0, #0
 315              	.LVL15:
 214:Drivers/STM32F4xx_HAL_Driver/Src/stm32f4xx_ll_usb.c **** 
 316              		.loc 1 214 1 view .LVU92
 317 0018 7047     		bx	lr
 318              	.LVL16:
 319              	.L31:
 150:Drivers/STM32F4xx_HAL_Driver/Src/stm32f4xx_ll_usb.c ****     {
 320              		.loc 1 150 5 is_stmt 1 view .LVU93
 150:Drivers/STM32F4xx_HAL_Driver/Src/stm32f4xx_ll_usb.c ****     {
 321              		.loc 1 150 29 is_stmt 0 view .LVU94
 322 001a 234B     		ldr	r3, .L32
 323 001c 0B44     		add	r3, r3, r1
 150:Drivers/STM32F4xx_HAL_Driver/Src/stm32f4xx_ll_usb.c ****     {
ARM GAS  /tmp/ccELzqP8.s 			page 33


 324              		.loc 1 150 8 view .LVU95
 325 001e 234A     		ldr	r2, .L32+4
 326              	.LVL17:
 150:Drivers/STM32F4xx_HAL_Driver/Src/stm32f4xx_ll_usb.c ****     {
 327              		.loc 1 150 8 view .LVU96
 328 0020 9342     		cmp	r3, r2
 329 0022 2FD9     		bls	.L22
 155:Drivers/STM32F4xx_HAL_Driver/Src/stm32f4xx_ll_usb.c ****     {
 330              		.loc 1 155 10 is_stmt 1 view .LVU97
 155:Drivers/STM32F4xx_HAL_Driver/Src/stm32f4xx_ll_usb.c ****     {
 331              		.loc 1 155 34 is_stmt 0 view .LVU98
 332 0024 224B     		ldr	r3, .L32+8
 333 0026 0B44     		add	r3, r3, r1
 155:Drivers/STM32F4xx_HAL_Driver/Src/stm32f4xx_ll_usb.c ****     {
 334              		.loc 1 155 13 view .LVU99
 335 0028 224A     		ldr	r2, .L32+12
 336 002a 9342     		cmp	r3, r2
 337 002c 2CD9     		bls	.L23
 160:Drivers/STM32F4xx_HAL_Driver/Src/stm32f4xx_ll_usb.c ****     {
 338              		.loc 1 160 10 is_stmt 1 view .LVU100
 160:Drivers/STM32F4xx_HAL_Driver/Src/stm32f4xx_ll_usb.c ****     {
 339              		.loc 1 160 34 is_stmt 0 view .LVU101
 340 002e A1F57403 		sub	r3, r1, #15990784
 341 0032 A3F51053 		sub	r3, r3, #9216
 160:Drivers/STM32F4xx_HAL_Driver/Src/stm32f4xx_ll_usb.c ****     {
 342              		.loc 1 160 13 view .LVU102
 343 0036 204A     		ldr	r2, .L32+16
 344 0038 9342     		cmp	r3, r2
 345 003a 27D9     		bls	.L24
 165:Drivers/STM32F4xx_HAL_Driver/Src/stm32f4xx_ll_usb.c ****     {
 346              		.loc 1 165 10 is_stmt 1 view .LVU103
 165:Drivers/STM32F4xx_HAL_Driver/Src/stm32f4xx_ll_usb.c ****     {
 347              		.loc 1 165 34 is_stmt 0 view .LVU104
 348 003c A1F18373 		sub	r3, r1, #17170432
 349 0040 A3F5E743 		sub	r3, r3, #29568
 165:Drivers/STM32F4xx_HAL_Driver/Src/stm32f4xx_ll_usb.c ****     {
 350              		.loc 1 165 13 view .LVU105
 351 0044 1D4A     		ldr	r2, .L32+20
 352 0046 9342     		cmp	r3, r2
 353 0048 22D3     		bcc	.L25
 170:Drivers/STM32F4xx_HAL_Driver/Src/stm32f4xx_ll_usb.c ****     {
 354              		.loc 1 170 10 is_stmt 1 view .LVU106
 170:Drivers/STM32F4xx_HAL_Driver/Src/stm32f4xx_ll_usb.c ****     {
 355              		.loc 1 170 34 is_stmt 0 view .LVU107
 356 004a 1D4B     		ldr	r3, .L32+24
 357 004c 0B44     		add	r3, r3, r1
 170:Drivers/STM32F4xx_HAL_Driver/Src/stm32f4xx_ll_usb.c ****     {
 358              		.loc 1 170 13 view .LVU108
 359 004e 1D4A     		ldr	r2, .L32+28
 360 0050 9342     		cmp	r3, r2
 361 0052 1FD9     		bls	.L26
 175:Drivers/STM32F4xx_HAL_Driver/Src/stm32f4xx_ll_usb.c ****     {
 362              		.loc 1 175 10 is_stmt 1 view .LVU109
 175:Drivers/STM32F4xx_HAL_Driver/Src/stm32f4xx_ll_usb.c ****     {
 363              		.loc 1 175 34 is_stmt 0 view .LVU110
 364 0054 1C4B     		ldr	r3, .L32+32
 365 0056 0B44     		add	r3, r3, r1
ARM GAS  /tmp/ccELzqP8.s 			page 34


 175:Drivers/STM32F4xx_HAL_Driver/Src/stm32f4xx_ll_usb.c ****     {
 366              		.loc 1 175 13 view .LVU111
 367 0058 1C4A     		ldr	r2, .L32+36
 368 005a 9342     		cmp	r3, r2
 369 005c 1CD3     		bcc	.L27
 180:Drivers/STM32F4xx_HAL_Driver/Src/stm32f4xx_ll_usb.c ****     {
 370              		.loc 1 180 10 is_stmt 1 view .LVU112
 180:Drivers/STM32F4xx_HAL_Driver/Src/stm32f4xx_ll_usb.c ****     {
 371              		.loc 1 180 34 is_stmt 0 view .LVU113
 372 005e 1C4B     		ldr	r3, .L32+40
 373 0060 0B44     		add	r3, r3, r1
 180:Drivers/STM32F4xx_HAL_Driver/Src/stm32f4xx_ll_usb.c ****     {
 374              		.loc 1 180 13 view .LVU114
 375 0062 1C4A     		ldr	r2, .L32+44
 376 0064 9342     		cmp	r3, r2
 377 0066 19D3     		bcc	.L28
 185:Drivers/STM32F4xx_HAL_Driver/Src/stm32f4xx_ll_usb.c ****     {
 378              		.loc 1 185 10 is_stmt 1 view .LVU115
 185:Drivers/STM32F4xx_HAL_Driver/Src/stm32f4xx_ll_usb.c ****     {
 379              		.loc 1 185 34 is_stmt 0 view .LVU116
 380 0068 A1F1B773 		sub	r3, r1, #23986176
 381 006c A3F55853 		sub	r3, r3, #13824
 185:Drivers/STM32F4xx_HAL_Driver/Src/stm32f4xx_ll_usb.c ****     {
 382              		.loc 1 185 13 view .LVU117
 383 0070 194A     		ldr	r2, .L32+48
 384 0072 9342     		cmp	r3, r2
 385 0074 14D3     		bcc	.L29
 190:Drivers/STM32F4xx_HAL_Driver/Src/stm32f4xx_ll_usb.c ****     {
 386              		.loc 1 190 10 is_stmt 1 view .LVU118
 190:Drivers/STM32F4xx_HAL_Driver/Src/stm32f4xx_ll_usb.c ****     {
 387              		.loc 1 190 34 is_stmt 0 view .LVU119
 388 0076 194B     		ldr	r3, .L32+52
 389 0078 0B44     		add	r3, r3, r1
 190:Drivers/STM32F4xx_HAL_Driver/Src/stm32f4xx_ll_usb.c ****     {
 390              		.loc 1 190 13 view .LVU120
 391 007a 194A     		ldr	r2, .L32+56
 392 007c 9342     		cmp	r3, r2
 393 007e 11D2     		bcs	.L30
 193:Drivers/STM32F4xx_HAL_Driver/Src/stm32f4xx_ll_usb.c ****     }
 394              		.loc 1 193 14 view .LVU121
 395 0080 0721     		movs	r1, #7
 396              	.LVL18:
 193:Drivers/STM32F4xx_HAL_Driver/Src/stm32f4xx_ll_usb.c ****     }
 397              		.loc 1 193 14 view .LVU122
 398 0082 C0E7     		b	.L20
 399              	.LVL19:
 400              	.L22:
 153:Drivers/STM32F4xx_HAL_Driver/Src/stm32f4xx_ll_usb.c ****     }
 401              		.loc 1 153 14 view .LVU123
 402 0084 0F21     		movs	r1, #15
 403              	.LVL20:
 153:Drivers/STM32F4xx_HAL_Driver/Src/stm32f4xx_ll_usb.c ****     }
 404              		.loc 1 153 14 view .LVU124
 405 0086 BEE7     		b	.L20
 406              	.LVL21:
 407              	.L23:
 158:Drivers/STM32F4xx_HAL_Driver/Src/stm32f4xx_ll_usb.c ****     }
ARM GAS  /tmp/ccELzqP8.s 			page 35


 408              		.loc 1 158 14 view .LVU125
 409 0088 0E21     		movs	r1, #14
 410              	.LVL22:
 158:Drivers/STM32F4xx_HAL_Driver/Src/stm32f4xx_ll_usb.c ****     }
 411              		.loc 1 158 14 view .LVU126
 412 008a BCE7     		b	.L20
 413              	.LVL23:
 414              	.L24:
 163:Drivers/STM32F4xx_HAL_Driver/Src/stm32f4xx_ll_usb.c ****     }
 415              		.loc 1 163 14 view .LVU127
 416 008c 0D21     		movs	r1, #13
 417              	.LVL24:
 163:Drivers/STM32F4xx_HAL_Driver/Src/stm32f4xx_ll_usb.c ****     }
 418              		.loc 1 163 14 view .LVU128
 419 008e BAE7     		b	.L20
 420              	.LVL25:
 421              	.L25:
 168:Drivers/STM32F4xx_HAL_Driver/Src/stm32f4xx_ll_usb.c ****     }
 422              		.loc 1 168 14 view .LVU129
 423 0090 0C21     		movs	r1, #12
 424              	.LVL26:
 168:Drivers/STM32F4xx_HAL_Driver/Src/stm32f4xx_ll_usb.c ****     }
 425              		.loc 1 168 14 view .LVU130
 426 0092 B8E7     		b	.L20
 427              	.LVL27:
 428              	.L26:
 173:Drivers/STM32F4xx_HAL_Driver/Src/stm32f4xx_ll_usb.c ****     }
 429              		.loc 1 173 14 view .LVU131
 430 0094 0B21     		movs	r1, #11
 431              	.LVL28:
 173:Drivers/STM32F4xx_HAL_Driver/Src/stm32f4xx_ll_usb.c ****     }
 432              		.loc 1 173 14 view .LVU132
 433 0096 B6E7     		b	.L20
 434              	.LVL29:
 435              	.L27:
 178:Drivers/STM32F4xx_HAL_Driver/Src/stm32f4xx_ll_usb.c ****     }
 436              		.loc 1 178 14 view .LVU133
 437 0098 0A21     		movs	r1, #10
 438              	.LVL30:
 178:Drivers/STM32F4xx_HAL_Driver/Src/stm32f4xx_ll_usb.c ****     }
 439              		.loc 1 178 14 view .LVU134
 440 009a B4E7     		b	.L20
 441              	.LVL31:
 442              	.L28:
 183:Drivers/STM32F4xx_HAL_Driver/Src/stm32f4xx_ll_usb.c ****     }
 443              		.loc 1 183 14 view .LVU135
 444 009c 0921     		movs	r1, #9
 445              	.LVL32:
 183:Drivers/STM32F4xx_HAL_Driver/Src/stm32f4xx_ll_usb.c ****     }
 446              		.loc 1 183 14 view .LVU136
 447 009e B2E7     		b	.L20
 448              	.LVL33:
 449              	.L29:
 188:Drivers/STM32F4xx_HAL_Driver/Src/stm32f4xx_ll_usb.c ****     }
 450              		.loc 1 188 14 view .LVU137
 451 00a0 0821     		movs	r1, #8
 452              	.LVL34:
ARM GAS  /tmp/ccELzqP8.s 			page 36


 188:Drivers/STM32F4xx_HAL_Driver/Src/stm32f4xx_ll_usb.c ****     }
 453              		.loc 1 188 14 view .LVU138
 454 00a2 B0E7     		b	.L20
 455              	.LVL35:
 456              	.L30:
 198:Drivers/STM32F4xx_HAL_Driver/Src/stm32f4xx_ll_usb.c ****     }
 457              		.loc 1 198 14 view .LVU139
 458 00a4 0621     		movs	r1, #6
 459              	.LVL36:
 198:Drivers/STM32F4xx_HAL_Driver/Src/stm32f4xx_ll_usb.c ****     }
 460              		.loc 1 198 14 view .LVU140
 461 00a6 AEE7     		b	.L20
 462              	.L33:
 463              		.align	2
 464              	.L32:
 465 00a8 405327FF 		.word	-14200000
 466 00ac FF340C00 		.word	799999
 467 00b0 401E1BFF 		.word	-15000000
 468 00b4 3F420F00 		.word	999999
 469 00b8 7F4F1200 		.word	1199999
 470 00bc 20D61300 		.word	1300000
 471 00c0 60B6E5FE 		.word	-18500000
 472 00c4 5FE31600 		.word	1499999
 473 00c8 00D3CEFE 		.word	-20000000
 474 00cc 40771B00 		.word	1800000
 475 00d0 C05BB3FE 		.word	-21800000
 476 00d4 C0912100 		.word	2200000
 477 00d8 20753800 		.word	3700000
 478 00dc E05459FE 		.word	-27700000
 479 00e0 E09C4100 		.word	4300000
 480              		.cfi_endproc
 481              	.LFE135:
 483              		.section	.text.USB_EnableGlobalInt,"ax",%progbits
 484              		.align	1
 485              		.global	USB_EnableGlobalInt
 486              		.syntax unified
 487              		.thumb
 488              		.thumb_func
 489              		.fpu fpv4-sp-d16
 491              	USB_EnableGlobalInt:
 492              	.LVL37:
 493              	.LFB136:
 223:Drivers/STM32F4xx_HAL_Driver/Src/stm32f4xx_ll_usb.c ****   USBx->GAHBCFG |= USB_OTG_GAHBCFG_GINT;
 494              		.loc 1 223 1 is_stmt 1 view -0
 495              		.cfi_startproc
 496              		@ args = 0, pretend = 0, frame = 0
 497              		@ frame_needed = 0, uses_anonymous_args = 0
 498              		@ link register save eliminated.
 224:Drivers/STM32F4xx_HAL_Driver/Src/stm32f4xx_ll_usb.c ****   return HAL_OK;
 499              		.loc 1 224 3 view .LVU142
 224:Drivers/STM32F4xx_HAL_Driver/Src/stm32f4xx_ll_usb.c ****   return HAL_OK;
 500              		.loc 1 224 17 is_stmt 0 view .LVU143
 501 0000 8368     		ldr	r3, [r0, #8]
 502 0002 43F00103 		orr	r3, r3, #1
 503 0006 8360     		str	r3, [r0, #8]
 225:Drivers/STM32F4xx_HAL_Driver/Src/stm32f4xx_ll_usb.c **** }
 504              		.loc 1 225 3 is_stmt 1 view .LVU144
ARM GAS  /tmp/ccELzqP8.s 			page 37


 226:Drivers/STM32F4xx_HAL_Driver/Src/stm32f4xx_ll_usb.c **** 
 505              		.loc 1 226 1 is_stmt 0 view .LVU145
 506 0008 0020     		movs	r0, #0
 507              	.LVL38:
 226:Drivers/STM32F4xx_HAL_Driver/Src/stm32f4xx_ll_usb.c **** 
 508              		.loc 1 226 1 view .LVU146
 509 000a 7047     		bx	lr
 510              		.cfi_endproc
 511              	.LFE136:
 513              		.section	.text.USB_DisableGlobalInt,"ax",%progbits
 514              		.align	1
 515              		.global	USB_DisableGlobalInt
 516              		.syntax unified
 517              		.thumb
 518              		.thumb_func
 519              		.fpu fpv4-sp-d16
 521              	USB_DisableGlobalInt:
 522              	.LVL39:
 523              	.LFB137:
 235:Drivers/STM32F4xx_HAL_Driver/Src/stm32f4xx_ll_usb.c ****   USBx->GAHBCFG &= ~USB_OTG_GAHBCFG_GINT;
 524              		.loc 1 235 1 is_stmt 1 view -0
 525              		.cfi_startproc
 526              		@ args = 0, pretend = 0, frame = 0
 527              		@ frame_needed = 0, uses_anonymous_args = 0
 528              		@ link register save eliminated.
 236:Drivers/STM32F4xx_HAL_Driver/Src/stm32f4xx_ll_usb.c ****   return HAL_OK;
 529              		.loc 1 236 3 view .LVU148
 236:Drivers/STM32F4xx_HAL_Driver/Src/stm32f4xx_ll_usb.c ****   return HAL_OK;
 530              		.loc 1 236 17 is_stmt 0 view .LVU149
 531 0000 8368     		ldr	r3, [r0, #8]
 532 0002 23F00103 		bic	r3, r3, #1
 533 0006 8360     		str	r3, [r0, #8]
 237:Drivers/STM32F4xx_HAL_Driver/Src/stm32f4xx_ll_usb.c **** }
 534              		.loc 1 237 3 is_stmt 1 view .LVU150
 238:Drivers/STM32F4xx_HAL_Driver/Src/stm32f4xx_ll_usb.c **** 
 535              		.loc 1 238 1 is_stmt 0 view .LVU151
 536 0008 0020     		movs	r0, #0
 537              	.LVL40:
 238:Drivers/STM32F4xx_HAL_Driver/Src/stm32f4xx_ll_usb.c **** 
 538              		.loc 1 238 1 view .LVU152
 539 000a 7047     		bx	lr
 540              		.cfi_endproc
 541              	.LFE137:
 543              		.section	.text.USB_FlushTxFifo,"ax",%progbits
 544              		.align	1
 545              		.global	USB_FlushTxFifo
 546              		.syntax unified
 547              		.thumb
 548              		.thumb_func
 549              		.fpu fpv4-sp-d16
 551              	USB_FlushTxFifo:
 552              	.LVL41:
 553              	.LFB140:
 474:Drivers/STM32F4xx_HAL_Driver/Src/stm32f4xx_ll_usb.c ****   __IO uint32_t count = 0U;
 554              		.loc 1 474 1 is_stmt 1 view -0
 555              		.cfi_startproc
 556              		@ args = 0, pretend = 0, frame = 8
ARM GAS  /tmp/ccELzqP8.s 			page 38


 557              		@ frame_needed = 0, uses_anonymous_args = 0
 558              		@ link register save eliminated.
 474:Drivers/STM32F4xx_HAL_Driver/Src/stm32f4xx_ll_usb.c ****   __IO uint32_t count = 0U;
 559              		.loc 1 474 1 is_stmt 0 view .LVU154
 560 0000 82B0     		sub	sp, sp, #8
 561              	.LCFI8:
 562              		.cfi_def_cfa_offset 8
 475:Drivers/STM32F4xx_HAL_Driver/Src/stm32f4xx_ll_usb.c **** 
 563              		.loc 1 475 3 is_stmt 1 view .LVU155
 475:Drivers/STM32F4xx_HAL_Driver/Src/stm32f4xx_ll_usb.c **** 
 564              		.loc 1 475 17 is_stmt 0 view .LVU156
 565 0002 0023     		movs	r3, #0
 566 0004 0193     		str	r3, [sp, #4]
 567              	.L38:
 478:Drivers/STM32F4xx_HAL_Driver/Src/stm32f4xx_ll_usb.c ****   {
 568              		.loc 1 478 3 is_stmt 1 view .LVU157
 480:Drivers/STM32F4xx_HAL_Driver/Src/stm32f4xx_ll_usb.c **** 
 569              		.loc 1 480 5 view .LVU158
 480:Drivers/STM32F4xx_HAL_Driver/Src/stm32f4xx_ll_usb.c **** 
 570              		.loc 1 480 10 is_stmt 0 view .LVU159
 571 0006 019B     		ldr	r3, [sp, #4]
 572 0008 0133     		adds	r3, r3, #1
 573 000a 0193     		str	r3, [sp, #4]
 482:Drivers/STM32F4xx_HAL_Driver/Src/stm32f4xx_ll_usb.c ****     {
 574              		.loc 1 482 5 is_stmt 1 view .LVU160
 482:Drivers/STM32F4xx_HAL_Driver/Src/stm32f4xx_ll_usb.c ****     {
 575              		.loc 1 482 15 is_stmt 0 view .LVU161
 576 000c 019B     		ldr	r3, [sp, #4]
 482:Drivers/STM32F4xx_HAL_Driver/Src/stm32f4xx_ll_usb.c ****     {
 577              		.loc 1 482 8 view .LVU162
 578 000e B3F1706F 		cmp	r3, #251658240
 579 0012 15D8     		bhi	.L40
 486:Drivers/STM32F4xx_HAL_Driver/Src/stm32f4xx_ll_usb.c **** 
 580              		.loc 1 486 11 is_stmt 1 view .LVU163
 486:Drivers/STM32F4xx_HAL_Driver/Src/stm32f4xx_ll_usb.c **** 
 581              		.loc 1 486 17 is_stmt 0 view .LVU164
 582 0014 0369     		ldr	r3, [r0, #16]
 486:Drivers/STM32F4xx_HAL_Driver/Src/stm32f4xx_ll_usb.c **** 
 583              		.loc 1 486 3 view .LVU165
 584 0016 002B     		cmp	r3, #0
 585 0018 F5DA     		bge	.L38
 489:Drivers/STM32F4xx_HAL_Driver/Src/stm32f4xx_ll_usb.c ****   USBx->GRSTCTL = (USB_OTG_GRSTCTL_TXFFLSH | (num << 6));
 586              		.loc 1 489 3 is_stmt 1 view .LVU166
 489:Drivers/STM32F4xx_HAL_Driver/Src/stm32f4xx_ll_usb.c ****   USBx->GRSTCTL = (USB_OTG_GRSTCTL_TXFFLSH | (num << 6));
 587              		.loc 1 489 9 is_stmt 0 view .LVU167
 588 001a 0023     		movs	r3, #0
 589 001c 0193     		str	r3, [sp, #4]
 490:Drivers/STM32F4xx_HAL_Driver/Src/stm32f4xx_ll_usb.c **** 
 590              		.loc 1 490 3 is_stmt 1 view .LVU168
 490:Drivers/STM32F4xx_HAL_Driver/Src/stm32f4xx_ll_usb.c **** 
 591              		.loc 1 490 51 is_stmt 0 view .LVU169
 592 001e 8901     		lsls	r1, r1, #6
 593              	.LVL42:
 490:Drivers/STM32F4xx_HAL_Driver/Src/stm32f4xx_ll_usb.c **** 
 594              		.loc 1 490 44 view .LVU170
 595 0020 41F02001 		orr	r1, r1, #32
 490:Drivers/STM32F4xx_HAL_Driver/Src/stm32f4xx_ll_usb.c **** 
ARM GAS  /tmp/ccELzqP8.s 			page 39


 596              		.loc 1 490 17 view .LVU171
 597 0024 0161     		str	r1, [r0, #16]
 598              	.L39:
 492:Drivers/STM32F4xx_HAL_Driver/Src/stm32f4xx_ll_usb.c ****   {
 599              		.loc 1 492 3 is_stmt 1 view .LVU172
 494:Drivers/STM32F4xx_HAL_Driver/Src/stm32f4xx_ll_usb.c **** 
 600              		.loc 1 494 5 view .LVU173
 494:Drivers/STM32F4xx_HAL_Driver/Src/stm32f4xx_ll_usb.c **** 
 601              		.loc 1 494 10 is_stmt 0 view .LVU174
 602 0026 019B     		ldr	r3, [sp, #4]
 603 0028 0133     		adds	r3, r3, #1
 604 002a 0193     		str	r3, [sp, #4]
 496:Drivers/STM32F4xx_HAL_Driver/Src/stm32f4xx_ll_usb.c ****     {
 605              		.loc 1 496 5 is_stmt 1 view .LVU175
 496:Drivers/STM32F4xx_HAL_Driver/Src/stm32f4xx_ll_usb.c ****     {
 606              		.loc 1 496 15 is_stmt 0 view .LVU176
 607 002c 019B     		ldr	r3, [sp, #4]
 496:Drivers/STM32F4xx_HAL_Driver/Src/stm32f4xx_ll_usb.c ****     {
 608              		.loc 1 496 8 view .LVU177
 609 002e B3F1706F 		cmp	r3, #251658240
 610 0032 08D8     		bhi	.L41
 500:Drivers/STM32F4xx_HAL_Driver/Src/stm32f4xx_ll_usb.c **** 
 611              		.loc 1 500 11 is_stmt 1 view .LVU178
 500:Drivers/STM32F4xx_HAL_Driver/Src/stm32f4xx_ll_usb.c **** 
 612              		.loc 1 500 17 is_stmt 0 view .LVU179
 613 0034 0369     		ldr	r3, [r0, #16]
 500:Drivers/STM32F4xx_HAL_Driver/Src/stm32f4xx_ll_usb.c **** 
 614              		.loc 1 500 3 view .LVU180
 615 0036 13F0200F 		tst	r3, #32
 616 003a F4D1     		bne	.L39
 502:Drivers/STM32F4xx_HAL_Driver/Src/stm32f4xx_ll_usb.c **** }
 617              		.loc 1 502 10 view .LVU181
 618 003c 0020     		movs	r0, #0
 619              	.LVL43:
 502:Drivers/STM32F4xx_HAL_Driver/Src/stm32f4xx_ll_usb.c **** }
 620              		.loc 1 502 10 view .LVU182
 621 003e 00E0     		b	.L37
 622              	.LVL44:
 623              	.L40:
 484:Drivers/STM32F4xx_HAL_Driver/Src/stm32f4xx_ll_usb.c ****     }
 624              		.loc 1 484 14 view .LVU183
 625 0040 0320     		movs	r0, #3
 626              	.LVL45:
 627              	.L37:
 503:Drivers/STM32F4xx_HAL_Driver/Src/stm32f4xx_ll_usb.c **** 
 628              		.loc 1 503 1 view .LVU184
 629 0042 02B0     		add	sp, sp, #8
 630              	.LCFI9:
 631              		.cfi_remember_state
 632              		.cfi_def_cfa_offset 0
 633              		@ sp needed
 634 0044 7047     		bx	lr
 635              	.LVL46:
 636              	.L41:
 637              	.LCFI10:
 638              		.cfi_restore_state
 498:Drivers/STM32F4xx_HAL_Driver/Src/stm32f4xx_ll_usb.c ****     }
ARM GAS  /tmp/ccELzqP8.s 			page 40


 639              		.loc 1 498 14 view .LVU185
 640 0046 0320     		movs	r0, #3
 641              	.LVL47:
 498:Drivers/STM32F4xx_HAL_Driver/Src/stm32f4xx_ll_usb.c ****     }
 642              		.loc 1 498 14 view .LVU186
 643 0048 FBE7     		b	.L37
 644              		.cfi_endproc
 645              	.LFE140:
 647              		.section	.text.USB_FlushRxFifo,"ax",%progbits
 648              		.align	1
 649              		.global	USB_FlushRxFifo
 650              		.syntax unified
 651              		.thumb
 652              		.thumb_func
 653              		.fpu fpv4-sp-d16
 655              	USB_FlushRxFifo:
 656              	.LVL48:
 657              	.LFB141:
 511:Drivers/STM32F4xx_HAL_Driver/Src/stm32f4xx_ll_usb.c ****   __IO uint32_t count = 0U;
 658              		.loc 1 511 1 is_stmt 1 view -0
 659              		.cfi_startproc
 660              		@ args = 0, pretend = 0, frame = 8
 661              		@ frame_needed = 0, uses_anonymous_args = 0
 662              		@ link register save eliminated.
 511:Drivers/STM32F4xx_HAL_Driver/Src/stm32f4xx_ll_usb.c ****   __IO uint32_t count = 0U;
 663              		.loc 1 511 1 is_stmt 0 view .LVU188
 664 0000 82B0     		sub	sp, sp, #8
 665              	.LCFI11:
 666              		.cfi_def_cfa_offset 8
 512:Drivers/STM32F4xx_HAL_Driver/Src/stm32f4xx_ll_usb.c **** 
 667              		.loc 1 512 3 is_stmt 1 view .LVU189
 512:Drivers/STM32F4xx_HAL_Driver/Src/stm32f4xx_ll_usb.c **** 
 668              		.loc 1 512 17 is_stmt 0 view .LVU190
 669 0002 0023     		movs	r3, #0
 670 0004 0193     		str	r3, [sp, #4]
 671              	.L45:
 515:Drivers/STM32F4xx_HAL_Driver/Src/stm32f4xx_ll_usb.c ****   {
 672              		.loc 1 515 3 is_stmt 1 view .LVU191
 517:Drivers/STM32F4xx_HAL_Driver/Src/stm32f4xx_ll_usb.c **** 
 673              		.loc 1 517 5 view .LVU192
 517:Drivers/STM32F4xx_HAL_Driver/Src/stm32f4xx_ll_usb.c **** 
 674              		.loc 1 517 10 is_stmt 0 view .LVU193
 675 0006 019B     		ldr	r3, [sp, #4]
 676 0008 0133     		adds	r3, r3, #1
 677 000a 0193     		str	r3, [sp, #4]
 519:Drivers/STM32F4xx_HAL_Driver/Src/stm32f4xx_ll_usb.c ****     {
 678              		.loc 1 519 5 is_stmt 1 view .LVU194
 519:Drivers/STM32F4xx_HAL_Driver/Src/stm32f4xx_ll_usb.c ****     {
 679              		.loc 1 519 15 is_stmt 0 view .LVU195
 680 000c 019B     		ldr	r3, [sp, #4]
 519:Drivers/STM32F4xx_HAL_Driver/Src/stm32f4xx_ll_usb.c ****     {
 681              		.loc 1 519 8 view .LVU196
 682 000e B3F1706F 		cmp	r3, #251658240
 683 0012 13D8     		bhi	.L47
 523:Drivers/STM32F4xx_HAL_Driver/Src/stm32f4xx_ll_usb.c **** 
 684              		.loc 1 523 11 is_stmt 1 view .LVU197
 523:Drivers/STM32F4xx_HAL_Driver/Src/stm32f4xx_ll_usb.c **** 
ARM GAS  /tmp/ccELzqP8.s 			page 41


 685              		.loc 1 523 17 is_stmt 0 view .LVU198
 686 0014 0369     		ldr	r3, [r0, #16]
 523:Drivers/STM32F4xx_HAL_Driver/Src/stm32f4xx_ll_usb.c **** 
 687              		.loc 1 523 3 view .LVU199
 688 0016 002B     		cmp	r3, #0
 689 0018 F5DA     		bge	.L45
 526:Drivers/STM32F4xx_HAL_Driver/Src/stm32f4xx_ll_usb.c ****   USBx->GRSTCTL = USB_OTG_GRSTCTL_RXFFLSH;
 690              		.loc 1 526 3 is_stmt 1 view .LVU200
 526:Drivers/STM32F4xx_HAL_Driver/Src/stm32f4xx_ll_usb.c ****   USBx->GRSTCTL = USB_OTG_GRSTCTL_RXFFLSH;
 691              		.loc 1 526 9 is_stmt 0 view .LVU201
 692 001a 0023     		movs	r3, #0
 693 001c 0193     		str	r3, [sp, #4]
 527:Drivers/STM32F4xx_HAL_Driver/Src/stm32f4xx_ll_usb.c **** 
 694              		.loc 1 527 3 is_stmt 1 view .LVU202
 527:Drivers/STM32F4xx_HAL_Driver/Src/stm32f4xx_ll_usb.c **** 
 695              		.loc 1 527 17 is_stmt 0 view .LVU203
 696 001e 1023     		movs	r3, #16
 697 0020 0361     		str	r3, [r0, #16]
 698              	.L46:
 529:Drivers/STM32F4xx_HAL_Driver/Src/stm32f4xx_ll_usb.c ****   {
 699              		.loc 1 529 3 is_stmt 1 view .LVU204
 531:Drivers/STM32F4xx_HAL_Driver/Src/stm32f4xx_ll_usb.c **** 
 700              		.loc 1 531 5 view .LVU205
 531:Drivers/STM32F4xx_HAL_Driver/Src/stm32f4xx_ll_usb.c **** 
 701              		.loc 1 531 10 is_stmt 0 view .LVU206
 702 0022 019B     		ldr	r3, [sp, #4]
 703 0024 0133     		adds	r3, r3, #1
 704 0026 0193     		str	r3, [sp, #4]
 533:Drivers/STM32F4xx_HAL_Driver/Src/stm32f4xx_ll_usb.c ****     {
 705              		.loc 1 533 5 is_stmt 1 view .LVU207
 533:Drivers/STM32F4xx_HAL_Driver/Src/stm32f4xx_ll_usb.c ****     {
 706              		.loc 1 533 15 is_stmt 0 view .LVU208
 707 0028 019B     		ldr	r3, [sp, #4]
 533:Drivers/STM32F4xx_HAL_Driver/Src/stm32f4xx_ll_usb.c ****     {
 708              		.loc 1 533 8 view .LVU209
 709 002a B3F1706F 		cmp	r3, #251658240
 710 002e 08D8     		bhi	.L48
 537:Drivers/STM32F4xx_HAL_Driver/Src/stm32f4xx_ll_usb.c **** 
 711              		.loc 1 537 11 is_stmt 1 view .LVU210
 537:Drivers/STM32F4xx_HAL_Driver/Src/stm32f4xx_ll_usb.c **** 
 712              		.loc 1 537 17 is_stmt 0 view .LVU211
 713 0030 0369     		ldr	r3, [r0, #16]
 537:Drivers/STM32F4xx_HAL_Driver/Src/stm32f4xx_ll_usb.c **** 
 714              		.loc 1 537 3 view .LVU212
 715 0032 13F0100F 		tst	r3, #16
 716 0036 F4D1     		bne	.L46
 539:Drivers/STM32F4xx_HAL_Driver/Src/stm32f4xx_ll_usb.c **** }
 717              		.loc 1 539 10 view .LVU213
 718 0038 0020     		movs	r0, #0
 719              	.LVL49:
 539:Drivers/STM32F4xx_HAL_Driver/Src/stm32f4xx_ll_usb.c **** }
 720              		.loc 1 539 10 view .LVU214
 721 003a 00E0     		b	.L44
 722              	.LVL50:
 723              	.L47:
 521:Drivers/STM32F4xx_HAL_Driver/Src/stm32f4xx_ll_usb.c ****     }
 724              		.loc 1 521 14 view .LVU215
ARM GAS  /tmp/ccELzqP8.s 			page 42


 725 003c 0320     		movs	r0, #3
 726              	.LVL51:
 727              	.L44:
 540:Drivers/STM32F4xx_HAL_Driver/Src/stm32f4xx_ll_usb.c **** 
 728              		.loc 1 540 1 view .LVU216
 729 003e 02B0     		add	sp, sp, #8
 730              	.LCFI12:
 731              		.cfi_remember_state
 732              		.cfi_def_cfa_offset 0
 733              		@ sp needed
 734 0040 7047     		bx	lr
 735              	.LVL52:
 736              	.L48:
 737              	.LCFI13:
 738              		.cfi_restore_state
 535:Drivers/STM32F4xx_HAL_Driver/Src/stm32f4xx_ll_usb.c ****     }
 739              		.loc 1 535 14 view .LVU217
 740 0042 0320     		movs	r0, #3
 741              	.LVL53:
 535:Drivers/STM32F4xx_HAL_Driver/Src/stm32f4xx_ll_usb.c ****     }
 742              		.loc 1 535 14 view .LVU218
 743 0044 FBE7     		b	.L44
 744              		.cfi_endproc
 745              	.LFE141:
 747              		.section	.text.USB_SetDevSpeed,"ax",%progbits
 748              		.align	1
 749              		.global	USB_SetDevSpeed
 750              		.syntax unified
 751              		.thumb
 752              		.thumb_func
 753              		.fpu fpv4-sp-d16
 755              	USB_SetDevSpeed:
 756              	.LVL54:
 757              	.LFB142:
 554:Drivers/STM32F4xx_HAL_Driver/Src/stm32f4xx_ll_usb.c ****   uint32_t USBx_BASE = (uint32_t)USBx;
 758              		.loc 1 554 1 is_stmt 1 view -0
 759              		.cfi_startproc
 760              		@ args = 0, pretend = 0, frame = 0
 761              		@ frame_needed = 0, uses_anonymous_args = 0
 762              		@ link register save eliminated.
 555:Drivers/STM32F4xx_HAL_Driver/Src/stm32f4xx_ll_usb.c **** 
 763              		.loc 1 555 3 view .LVU220
 557:Drivers/STM32F4xx_HAL_Driver/Src/stm32f4xx_ll_usb.c ****   return HAL_OK;
 764              		.loc 1 557 3 view .LVU221
 557:Drivers/STM32F4xx_HAL_Driver/Src/stm32f4xx_ll_usb.c ****   return HAL_OK;
 765              		.loc 1 557 21 is_stmt 0 view .LVU222
 766 0000 D0F80038 		ldr	r3, [r0, #2048]
 767 0004 1943     		orrs	r1, r1, r3
 768              	.LVL55:
 557:Drivers/STM32F4xx_HAL_Driver/Src/stm32f4xx_ll_usb.c ****   return HAL_OK;
 769              		.loc 1 557 21 view .LVU223
 770 0006 C0F80018 		str	r1, [r0, #2048]
 558:Drivers/STM32F4xx_HAL_Driver/Src/stm32f4xx_ll_usb.c **** }
 771              		.loc 1 558 3 is_stmt 1 view .LVU224
 559:Drivers/STM32F4xx_HAL_Driver/Src/stm32f4xx_ll_usb.c **** 
 772              		.loc 1 559 1 is_stmt 0 view .LVU225
 773 000a 0020     		movs	r0, #0
ARM GAS  /tmp/ccELzqP8.s 			page 43


 774              	.LVL56:
 559:Drivers/STM32F4xx_HAL_Driver/Src/stm32f4xx_ll_usb.c **** 
 775              		.loc 1 559 1 view .LVU226
 776 000c 7047     		bx	lr
 777              		.cfi_endproc
 778              	.LFE142:
 780              		.section	.text.USB_DevInit,"ax",%progbits
 781              		.align	1
 782              		.global	USB_DevInit
 783              		.syntax unified
 784              		.thumb
 785              		.thumb_func
 786              		.fpu fpv4-sp-d16
 788              	USB_DevInit:
 789              	.LVL57:
 790              	.LFB139:
 297:Drivers/STM32F4xx_HAL_Driver/Src/stm32f4xx_ll_usb.c ****   HAL_StatusTypeDef ret = HAL_OK;
 791              		.loc 1 297 1 is_stmt 1 view -0
 792              		.cfi_startproc
 793              		@ args = 20, pretend = 16, frame = 0
 794              		@ frame_needed = 0, uses_anonymous_args = 0
 297:Drivers/STM32F4xx_HAL_Driver/Src/stm32f4xx_ll_usb.c ****   HAL_StatusTypeDef ret = HAL_OK;
 795              		.loc 1 297 1 is_stmt 0 view .LVU228
 796 0000 84B0     		sub	sp, sp, #16
 797              	.LCFI14:
 798              		.cfi_def_cfa_offset 16
 799 0002 F8B5     		push	{r3, r4, r5, r6, r7, lr}
 800              	.LCFI15:
 801              		.cfi_def_cfa_offset 40
 802              		.cfi_offset 3, -40
 803              		.cfi_offset 4, -36
 804              		.cfi_offset 5, -32
 805              		.cfi_offset 6, -28
 806              		.cfi_offset 7, -24
 807              		.cfi_offset 14, -20
 808 0004 0446     		mov	r4, r0
 809 0006 07A8     		add	r0, sp, #28
 810 0008 80E80E00 		stm	r0, {r1, r2, r3}
 298:Drivers/STM32F4xx_HAL_Driver/Src/stm32f4xx_ll_usb.c ****   uint32_t USBx_BASE = (uint32_t)USBx;
 811              		.loc 1 298 3 is_stmt 1 view .LVU229
 812              	.LVL58:
 299:Drivers/STM32F4xx_HAL_Driver/Src/stm32f4xx_ll_usb.c ****   uint32_t i;
 813              		.loc 1 299 3 view .LVU230
 300:Drivers/STM32F4xx_HAL_Driver/Src/stm32f4xx_ll_usb.c **** 
 814              		.loc 1 300 3 view .LVU231
 302:Drivers/STM32F4xx_HAL_Driver/Src/stm32f4xx_ll_usb.c ****   {
 815              		.loc 1 302 3 view .LVU232
 302:Drivers/STM32F4xx_HAL_Driver/Src/stm32f4xx_ll_usb.c ****   {
 816              		.loc 1 302 10 is_stmt 0 view .LVU233
 817 000c 0023     		movs	r3, #0
 302:Drivers/STM32F4xx_HAL_Driver/Src/stm32f4xx_ll_usb.c ****   {
 818              		.loc 1 302 3 view .LVU234
 819 000e 06E0     		b	.L52
 820              	.LVL59:
 821              	.L53:
 304:Drivers/STM32F4xx_HAL_Driver/Src/stm32f4xx_ll_usb.c ****   }
 822              		.loc 1 304 5 is_stmt 1 discriminator 3 view .LVU235
ARM GAS  /tmp/ccELzqP8.s 			page 44


 304:Drivers/STM32F4xx_HAL_Driver/Src/stm32f4xx_ll_usb.c ****   }
 823              		.loc 1 304 22 is_stmt 0 discriminator 3 view .LVU236
 824 0010 03F14002 		add	r2, r3, #64
 825 0014 04EB8202 		add	r2, r4, r2, lsl #2
 826 0018 0021     		movs	r1, #0
 827 001a 5160     		str	r1, [r2, #4]
 302:Drivers/STM32F4xx_HAL_Driver/Src/stm32f4xx_ll_usb.c ****   {
 828              		.loc 1 302 25 is_stmt 1 discriminator 3 view .LVU237
 302:Drivers/STM32F4xx_HAL_Driver/Src/stm32f4xx_ll_usb.c ****   {
 829              		.loc 1 302 26 is_stmt 0 discriminator 3 view .LVU238
 830 001c 0133     		adds	r3, r3, #1
 831              	.LVL60:
 832              	.L52:
 302:Drivers/STM32F4xx_HAL_Driver/Src/stm32f4xx_ll_usb.c ****   {
 833              		.loc 1 302 16 is_stmt 1 discriminator 1 view .LVU239
 302:Drivers/STM32F4xx_HAL_Driver/Src/stm32f4xx_ll_usb.c ****   {
 834              		.loc 1 302 3 is_stmt 0 discriminator 1 view .LVU240
 835 001e 0E2B     		cmp	r3, #14
 836 0020 F6D9     		bls	.L53
 311:Drivers/STM32F4xx_HAL_Driver/Src/stm32f4xx_ll_usb.c ****   {
 837              		.loc 1 311 3 is_stmt 1 view .LVU241
 311:Drivers/STM32F4xx_HAL_Driver/Src/stm32f4xx_ll_usb.c ****   {
 838              		.loc 1 311 10 is_stmt 0 view .LVU242
 839 0022 9DF82660 		ldrb	r6, [sp, #38]	@ zero_extendqisi2
 311:Drivers/STM32F4xx_HAL_Driver/Src/stm32f4xx_ll_usb.c ****   {
 840              		.loc 1 311 6 view .LVU243
 841 0026 06BB     		cbnz	r6, .L54
 313:Drivers/STM32F4xx_HAL_Driver/Src/stm32f4xx_ll_usb.c **** 
 842              		.loc 1 313 5 is_stmt 1 view .LVU244
 313:Drivers/STM32F4xx_HAL_Driver/Src/stm32f4xx_ll_usb.c **** 
 843              		.loc 1 313 23 is_stmt 0 view .LVU245
 844 0028 D4F80438 		ldr	r3, [r4, #2052]
 845              	.LVL61:
 313:Drivers/STM32F4xx_HAL_Driver/Src/stm32f4xx_ll_usb.c **** 
 846              		.loc 1 313 23 view .LVU246
 847 002c 43F00203 		orr	r3, r3, #2
 848 0030 C4F80438 		str	r3, [r4, #2052]
 316:Drivers/STM32F4xx_HAL_Driver/Src/stm32f4xx_ll_usb.c **** 
 849              		.loc 1 316 5 is_stmt 1 view .LVU247
 316:Drivers/STM32F4xx_HAL_Driver/Src/stm32f4xx_ll_usb.c **** 
 850              		.loc 1 316 17 is_stmt 0 view .LVU248
 851 0034 A36B     		ldr	r3, [r4, #56]
 852 0036 23F40013 		bic	r3, r3, #2097152
 853 003a A363     		str	r3, [r4, #56]
 319:Drivers/STM32F4xx_HAL_Driver/Src/stm32f4xx_ll_usb.c ****     USBx->GOTGCTL |= USB_OTG_GOTGCTL_BVALOVAL;
 854              		.loc 1 319 5 is_stmt 1 view .LVU249
 319:Drivers/STM32F4xx_HAL_Driver/Src/stm32f4xx_ll_usb.c ****     USBx->GOTGCTL |= USB_OTG_GOTGCTL_BVALOVAL;
 855              		.loc 1 319 19 is_stmt 0 view .LVU250
 856 003c 2368     		ldr	r3, [r4]
 857 003e 43F04003 		orr	r3, r3, #64
 858 0042 2360     		str	r3, [r4]
 320:Drivers/STM32F4xx_HAL_Driver/Src/stm32f4xx_ll_usb.c ****   }
 859              		.loc 1 320 5 is_stmt 1 view .LVU251
 320:Drivers/STM32F4xx_HAL_Driver/Src/stm32f4xx_ll_usb.c ****   }
 860              		.loc 1 320 19 is_stmt 0 view .LVU252
 861 0044 2368     		ldr	r3, [r4]
 862 0046 43F08003 		orr	r3, r3, #128
ARM GAS  /tmp/ccELzqP8.s 			page 45


 863 004a 2360     		str	r3, [r4]
 864              	.L55:
 351:Drivers/STM32F4xx_HAL_Driver/Src/stm32f4xx_ll_usb.c **** 
 865              		.loc 1 351 3 is_stmt 1 view .LVU253
 351:Drivers/STM32F4xx_HAL_Driver/Src/stm32f4xx_ll_usb.c **** 
 866              		.loc 1 351 16 is_stmt 0 view .LVU254
 867 004c 0023     		movs	r3, #0
 868 004e C4F8003E 		str	r3, [r4, #3584]
 353:Drivers/STM32F4xx_HAL_Driver/Src/stm32f4xx_ll_usb.c ****   {
 869              		.loc 1 353 3 is_stmt 1 view .LVU255
 353:Drivers/STM32F4xx_HAL_Driver/Src/stm32f4xx_ll_usb.c ****   {
 870              		.loc 1 353 10 is_stmt 0 view .LVU256
 871 0052 9DF82130 		ldrb	r3, [sp, #33]	@ zero_extendqisi2
 353:Drivers/STM32F4xx_HAL_Driver/Src/stm32f4xx_ll_usb.c ****   {
 872              		.loc 1 353 6 view .LVU257
 873 0056 012B     		cmp	r3, #1
 874 0058 11D1     		bne	.L56
 355:Drivers/STM32F4xx_HAL_Driver/Src/stm32f4xx_ll_usb.c ****     {
 875              		.loc 1 355 5 is_stmt 1 view .LVU258
 355:Drivers/STM32F4xx_HAL_Driver/Src/stm32f4xx_ll_usb.c ****     {
 876              		.loc 1 355 12 is_stmt 0 view .LVU259
 877 005a 9DF81F30 		ldrb	r3, [sp, #31]	@ zero_extendqisi2
 355:Drivers/STM32F4xx_HAL_Driver/Src/stm32f4xx_ll_usb.c ****     {
 878              		.loc 1 355 8 view .LVU260
 879 005e 4BB9     		cbnz	r3, .L57
 358:Drivers/STM32F4xx_HAL_Driver/Src/stm32f4xx_ll_usb.c ****     }
 880              		.loc 1 358 7 is_stmt 1 view .LVU261
 358:Drivers/STM32F4xx_HAL_Driver/Src/stm32f4xx_ll_usb.c ****     }
 881              		.loc 1 358 13 is_stmt 0 view .LVU262
 882 0060 0021     		movs	r1, #0
 883 0062 2046     		mov	r0, r4
 884              	.LVL62:
 358:Drivers/STM32F4xx_HAL_Driver/Src/stm32f4xx_ll_usb.c ****     }
 885              		.loc 1 358 13 view .LVU263
 886 0064 FFF7FEFF 		bl	USB_SetDevSpeed
 887              	.LVL63:
 888 0068 0DE0     		b	.L58
 889              	.LVL64:
 890              	.L54:
 325:Drivers/STM32F4xx_HAL_Driver/Src/stm32f4xx_ll_usb.c ****   }
 891              		.loc 1 325 5 is_stmt 1 view .LVU264
 325:Drivers/STM32F4xx_HAL_Driver/Src/stm32f4xx_ll_usb.c ****   }
 892              		.loc 1 325 17 is_stmt 0 view .LVU265
 893 006a A36B     		ldr	r3, [r4, #56]
 894              	.LVL65:
 325:Drivers/STM32F4xx_HAL_Driver/Src/stm32f4xx_ll_usb.c ****   }
 895              		.loc 1 325 17 view .LVU266
 896 006c 43F40013 		orr	r3, r3, #2097152
 897 0070 A363     		str	r3, [r4, #56]
 898 0072 EBE7     		b	.L55
 899              	.L57:
 363:Drivers/STM32F4xx_HAL_Driver/Src/stm32f4xx_ll_usb.c ****     }
 900              		.loc 1 363 7 is_stmt 1 view .LVU267
 363:Drivers/STM32F4xx_HAL_Driver/Src/stm32f4xx_ll_usb.c ****     }
 901              		.loc 1 363 13 is_stmt 0 view .LVU268
 902 0074 0121     		movs	r1, #1
 903 0076 2046     		mov	r0, r4
ARM GAS  /tmp/ccELzqP8.s 			page 46


 904              	.LVL66:
 363:Drivers/STM32F4xx_HAL_Driver/Src/stm32f4xx_ll_usb.c ****     }
 905              		.loc 1 363 13 view .LVU269
 906 0078 FFF7FEFF 		bl	USB_SetDevSpeed
 907              	.LVL67:
 908 007c 03E0     		b	.L58
 909              	.LVL68:
 910              	.L56:
 369:Drivers/STM32F4xx_HAL_Driver/Src/stm32f4xx_ll_usb.c ****   }
 911              		.loc 1 369 5 is_stmt 1 view .LVU270
 369:Drivers/STM32F4xx_HAL_Driver/Src/stm32f4xx_ll_usb.c ****   }
 912              		.loc 1 369 11 is_stmt 0 view .LVU271
 913 007e 0321     		movs	r1, #3
 914 0080 2046     		mov	r0, r4
 915              	.LVL69:
 369:Drivers/STM32F4xx_HAL_Driver/Src/stm32f4xx_ll_usb.c ****   }
 916              		.loc 1 369 11 view .LVU272
 917 0082 FFF7FEFF 		bl	USB_SetDevSpeed
 918              	.LVL70:
 919              	.L58:
 373:Drivers/STM32F4xx_HAL_Driver/Src/stm32f4xx_ll_usb.c ****   {
 920              		.loc 1 373 3 is_stmt 1 view .LVU273
 373:Drivers/STM32F4xx_HAL_Driver/Src/stm32f4xx_ll_usb.c ****   {
 921              		.loc 1 373 7 is_stmt 0 view .LVU274
 922 0086 1021     		movs	r1, #16
 923 0088 2046     		mov	r0, r4
 924 008a FFF7FEFF 		bl	USB_FlushTxFifo
 925              	.LVL71:
 373:Drivers/STM32F4xx_HAL_Driver/Src/stm32f4xx_ll_usb.c ****   {
 926              		.loc 1 373 6 view .LVU275
 927 008e 0546     		mov	r5, r0
 928 0090 00B1     		cbz	r0, .L59
 375:Drivers/STM32F4xx_HAL_Driver/Src/stm32f4xx_ll_usb.c ****   }
 929              		.loc 1 375 9 view .LVU276
 930 0092 0125     		movs	r5, #1
 931              	.L59:
 932              	.LVL72:
 378:Drivers/STM32F4xx_HAL_Driver/Src/stm32f4xx_ll_usb.c ****   {
 933              		.loc 1 378 3 is_stmt 1 view .LVU277
 378:Drivers/STM32F4xx_HAL_Driver/Src/stm32f4xx_ll_usb.c ****   {
 934              		.loc 1 378 7 is_stmt 0 view .LVU278
 935 0094 2046     		mov	r0, r4
 936 0096 FFF7FEFF 		bl	USB_FlushRxFifo
 937              	.LVL73:
 378:Drivers/STM32F4xx_HAL_Driver/Src/stm32f4xx_ll_usb.c ****   {
 938              		.loc 1 378 6 view .LVU279
 939 009a 00B1     		cbz	r0, .L60
 380:Drivers/STM32F4xx_HAL_Driver/Src/stm32f4xx_ll_usb.c ****   }
 940              		.loc 1 380 9 view .LVU280
 941 009c 0125     		movs	r5, #1
 942              	.LVL74:
 943              	.L60:
 384:Drivers/STM32F4xx_HAL_Driver/Src/stm32f4xx_ll_usb.c ****   USBx_DEVICE->DOEPMSK = 0U;
 944              		.loc 1 384 3 is_stmt 1 view .LVU281
 945 009e 04F5006C 		add	ip, r4, #2048
 384:Drivers/STM32F4xx_HAL_Driver/Src/stm32f4xx_ll_usb.c ****   USBx_DEVICE->DOEPMSK = 0U;
 946              		.loc 1 384 24 is_stmt 0 view .LVU282
ARM GAS  /tmp/ccELzqP8.s 			page 47


 947 00a2 0023     		movs	r3, #0
 948 00a4 CCF81030 		str	r3, [ip, #16]
 385:Drivers/STM32F4xx_HAL_Driver/Src/stm32f4xx_ll_usb.c ****   USBx_DEVICE->DAINTMSK = 0U;
 949              		.loc 1 385 3 is_stmt 1 view .LVU283
 385:Drivers/STM32F4xx_HAL_Driver/Src/stm32f4xx_ll_usb.c ****   USBx_DEVICE->DAINTMSK = 0U;
 950              		.loc 1 385 24 is_stmt 0 view .LVU284
 951 00a8 CCF81430 		str	r3, [ip, #20]
 386:Drivers/STM32F4xx_HAL_Driver/Src/stm32f4xx_ll_usb.c **** 
 952              		.loc 1 386 3 is_stmt 1 view .LVU285
 386:Drivers/STM32F4xx_HAL_Driver/Src/stm32f4xx_ll_usb.c **** 
 953              		.loc 1 386 25 is_stmt 0 view .LVU286
 954 00ac CCF81C30 		str	r3, [ip, #28]
 388:Drivers/STM32F4xx_HAL_Driver/Src/stm32f4xx_ll_usb.c ****   {
 955              		.loc 1 388 3 is_stmt 1 view .LVU287
 956              	.LVL75:
 388:Drivers/STM32F4xx_HAL_Driver/Src/stm32f4xx_ll_usb.c ****   {
 957              		.loc 1 388 3 is_stmt 0 view .LVU288
 958 00b0 0AE0     		b	.L61
 959              	.LVL76:
 960              	.L78:
 392:Drivers/STM32F4xx_HAL_Driver/Src/stm32f4xx_ll_usb.c ****       {
 961              		.loc 1 392 7 is_stmt 1 view .LVU289
 392:Drivers/STM32F4xx_HAL_Driver/Src/stm32f4xx_ll_usb.c ****       {
 962              		.loc 1 392 10 is_stmt 0 view .LVU290
 963 00b2 CBB9     		cbnz	r3, .L63
 394:Drivers/STM32F4xx_HAL_Driver/Src/stm32f4xx_ll_usb.c ****       }
 964              		.loc 1 394 9 is_stmt 1 view .LVU291
 394:Drivers/STM32F4xx_HAL_Driver/Src/stm32f4xx_ll_usb.c ****       }
 965              		.loc 1 394 31 is_stmt 0 view .LVU292
 966 00b4 4FF00060 		mov	r0, #134217728
 967 00b8 C2F80009 		str	r0, [r2, #2304]
 968              	.L64:
 406:Drivers/STM32F4xx_HAL_Driver/Src/stm32f4xx_ll_usb.c ****     USBx_INEP(i)->DIEPINT  = 0xFB7FU;
 969              		.loc 1 406 5 is_stmt 1 discriminator 2 view .LVU293
 406:Drivers/STM32F4xx_HAL_Driver/Src/stm32f4xx_ll_usb.c ****     USBx_INEP(i)->DIEPINT  = 0xFB7FU;
 970              		.loc 1 406 28 is_stmt 0 discriminator 2 view .LVU294
 971 00bc 0022     		movs	r2, #0
 972 00be 0A61     		str	r2, [r1, #16]
 407:Drivers/STM32F4xx_HAL_Driver/Src/stm32f4xx_ll_usb.c ****   }
 973              		.loc 1 407 5 is_stmt 1 discriminator 2 view .LVU295
 407:Drivers/STM32F4xx_HAL_Driver/Src/stm32f4xx_ll_usb.c ****   }
 974              		.loc 1 407 28 is_stmt 0 discriminator 2 view .LVU296
 975 00c0 4FF67F32 		movw	r2, #64383
 976 00c4 8A60     		str	r2, [r1, #8]
 388:Drivers/STM32F4xx_HAL_Driver/Src/stm32f4xx_ll_usb.c ****   {
 977              		.loc 1 388 39 is_stmt 1 discriminator 2 view .LVU297
 388:Drivers/STM32F4xx_HAL_Driver/Src/stm32f4xx_ll_usb.c ****   {
 978              		.loc 1 388 40 is_stmt 0 discriminator 2 view .LVU298
 979 00c6 0133     		adds	r3, r3, #1
 980              	.LVL77:
 981              	.L61:
 388:Drivers/STM32F4xx_HAL_Driver/Src/stm32f4xx_ll_usb.c ****   {
 982              		.loc 1 388 16 is_stmt 1 discriminator 1 view .LVU299
 388:Drivers/STM32F4xx_HAL_Driver/Src/stm32f4xx_ll_usb.c ****   {
 983              		.loc 1 388 23 is_stmt 0 discriminator 1 view .LVU300
 984 00c8 9DF81C10 		ldrb	r1, [sp, #28]	@ zero_extendqisi2
 388:Drivers/STM32F4xx_HAL_Driver/Src/stm32f4xx_ll_usb.c ****   {
ARM GAS  /tmp/ccELzqP8.s 			page 48


 985              		.loc 1 388 3 discriminator 1 view .LVU301
 986 00cc 9942     		cmp	r1, r3
 987 00ce 10D9     		bls	.L77
 390:Drivers/STM32F4xx_HAL_Driver/Src/stm32f4xx_ll_usb.c ****     {
 988              		.loc 1 390 5 is_stmt 1 view .LVU302
 390:Drivers/STM32F4xx_HAL_Driver/Src/stm32f4xx_ll_usb.c ****     {
 989              		.loc 1 390 10 is_stmt 0 view .LVU303
 990 00d0 04EB4312 		add	r2, r4, r3, lsl #5
 991 00d4 02F51061 		add	r1, r2, #2304
 390:Drivers/STM32F4xx_HAL_Driver/Src/stm32f4xx_ll_usb.c ****     {
 992              		.loc 1 390 22 view .LVU304
 993 00d8 D2F80009 		ldr	r0, [r2, #2304]
 390:Drivers/STM32F4xx_HAL_Driver/Src/stm32f4xx_ll_usb.c ****     {
 994              		.loc 1 390 8 view .LVU305
 995 00dc 0028     		cmp	r0, #0
 996 00de E8DB     		blt	.L78
 403:Drivers/STM32F4xx_HAL_Driver/Src/stm32f4xx_ll_usb.c ****     }
 997              		.loc 1 403 7 is_stmt 1 view .LVU306
 403:Drivers/STM32F4xx_HAL_Driver/Src/stm32f4xx_ll_usb.c ****     }
 998              		.loc 1 403 29 is_stmt 0 view .LVU307
 999 00e0 0020     		movs	r0, #0
 1000 00e2 C2F80009 		str	r0, [r2, #2304]
 1001 00e6 E9E7     		b	.L64
 1002              	.L63:
 398:Drivers/STM32F4xx_HAL_Driver/Src/stm32f4xx_ll_usb.c ****       }
 1003              		.loc 1 398 9 is_stmt 1 view .LVU308
 398:Drivers/STM32F4xx_HAL_Driver/Src/stm32f4xx_ll_usb.c ****       }
 1004              		.loc 1 398 31 is_stmt 0 view .LVU309
 1005 00e8 4FF09040 		mov	r0, #1207959552
 1006 00ec C2F80009 		str	r0, [r2, #2304]
 1007 00f0 E4E7     		b	.L64
 1008              	.L77:
 410:Drivers/STM32F4xx_HAL_Driver/Src/stm32f4xx_ll_usb.c ****   {
 1009              		.loc 1 410 10 view .LVU310
 1010 00f2 0023     		movs	r3, #0
 1011              	.LVL78:
 410:Drivers/STM32F4xx_HAL_Driver/Src/stm32f4xx_ll_usb.c ****   {
 1012              		.loc 1 410 10 view .LVU311
 1013 00f4 0AE0     		b	.L66
 1014              	.LVL79:
 1015              	.L81:
 414:Drivers/STM32F4xx_HAL_Driver/Src/stm32f4xx_ll_usb.c ****       {
 1016              		.loc 1 414 7 is_stmt 1 view .LVU312
 414:Drivers/STM32F4xx_HAL_Driver/Src/stm32f4xx_ll_usb.c ****       {
 1017              		.loc 1 414 10 is_stmt 0 view .LVU313
 1018 00f6 BBB1     		cbz	r3, .L79
 420:Drivers/STM32F4xx_HAL_Driver/Src/stm32f4xx_ll_usb.c ****       }
 1019              		.loc 1 420 9 is_stmt 1 view .LVU314
 420:Drivers/STM32F4xx_HAL_Driver/Src/stm32f4xx_ll_usb.c ****       }
 1020              		.loc 1 420 32 is_stmt 0 view .LVU315
 1021 00f8 4FF09047 		mov	r7, #1207959552
 1022 00fc C2F8007B 		str	r7, [r2, #2816]
 1023              	.L69:
 428:Drivers/STM32F4xx_HAL_Driver/Src/stm32f4xx_ll_usb.c ****     USBx_OUTEP(i)->DOEPINT  = 0xFB7FU;
 1024              		.loc 1 428 5 is_stmt 1 discriminator 2 view .LVU316
 428:Drivers/STM32F4xx_HAL_Driver/Src/stm32f4xx_ll_usb.c ****     USBx_OUTEP(i)->DOEPINT  = 0xFB7FU;
 1025              		.loc 1 428 29 is_stmt 0 discriminator 2 view .LVU317
ARM GAS  /tmp/ccELzqP8.s 			page 49


 1026 0100 0022     		movs	r2, #0
 1027 0102 0261     		str	r2, [r0, #16]
 429:Drivers/STM32F4xx_HAL_Driver/Src/stm32f4xx_ll_usb.c ****   }
 1028              		.loc 1 429 5 is_stmt 1 discriminator 2 view .LVU318
 429:Drivers/STM32F4xx_HAL_Driver/Src/stm32f4xx_ll_usb.c ****   }
 1029              		.loc 1 429 29 is_stmt 0 discriminator 2 view .LVU319
 1030 0104 4FF67F32 		movw	r2, #64383
 1031 0108 8260     		str	r2, [r0, #8]
 410:Drivers/STM32F4xx_HAL_Driver/Src/stm32f4xx_ll_usb.c ****   {
 1032              		.loc 1 410 39 is_stmt 1 discriminator 2 view .LVU320
 410:Drivers/STM32F4xx_HAL_Driver/Src/stm32f4xx_ll_usb.c ****   {
 1033              		.loc 1 410 40 is_stmt 0 discriminator 2 view .LVU321
 1034 010a 0133     		adds	r3, r3, #1
 1035              	.LVL80:
 1036              	.L66:
 410:Drivers/STM32F4xx_HAL_Driver/Src/stm32f4xx_ll_usb.c ****   {
 1037              		.loc 1 410 16 is_stmt 1 discriminator 1 view .LVU322
 410:Drivers/STM32F4xx_HAL_Driver/Src/stm32f4xx_ll_usb.c ****   {
 1038              		.loc 1 410 3 is_stmt 0 discriminator 1 view .LVU323
 1039 010c 9942     		cmp	r1, r3
 1040 010e 10D9     		bls	.L80
 412:Drivers/STM32F4xx_HAL_Driver/Src/stm32f4xx_ll_usb.c ****     {
 1041              		.loc 1 412 5 is_stmt 1 view .LVU324
 412:Drivers/STM32F4xx_HAL_Driver/Src/stm32f4xx_ll_usb.c ****     {
 1042              		.loc 1 412 10 is_stmt 0 view .LVU325
 1043 0110 04EB4312 		add	r2, r4, r3, lsl #5
 1044 0114 02F53060 		add	r0, r2, #2816
 412:Drivers/STM32F4xx_HAL_Driver/Src/stm32f4xx_ll_usb.c ****     {
 1045              		.loc 1 412 23 view .LVU326
 1046 0118 D2F8007B 		ldr	r7, [r2, #2816]
 412:Drivers/STM32F4xx_HAL_Driver/Src/stm32f4xx_ll_usb.c ****     {
 1047              		.loc 1 412 8 view .LVU327
 1048 011c 002F     		cmp	r7, #0
 1049 011e EADB     		blt	.L81
 425:Drivers/STM32F4xx_HAL_Driver/Src/stm32f4xx_ll_usb.c ****     }
 1050              		.loc 1 425 7 is_stmt 1 view .LVU328
 425:Drivers/STM32F4xx_HAL_Driver/Src/stm32f4xx_ll_usb.c ****     }
 1051              		.loc 1 425 30 is_stmt 0 view .LVU329
 1052 0120 0027     		movs	r7, #0
 1053 0122 C2F8007B 		str	r7, [r2, #2816]
 1054 0126 EBE7     		b	.L69
 1055              	.L79:
 416:Drivers/STM32F4xx_HAL_Driver/Src/stm32f4xx_ll_usb.c ****       }
 1056              		.loc 1 416 9 is_stmt 1 view .LVU330
 416:Drivers/STM32F4xx_HAL_Driver/Src/stm32f4xx_ll_usb.c ****       }
 1057              		.loc 1 416 32 is_stmt 0 view .LVU331
 1058 0128 4FF00067 		mov	r7, #134217728
 1059 012c C2F8007B 		str	r7, [r2, #2816]
 1060 0130 E6E7     		b	.L69
 1061              	.L80:
 432:Drivers/STM32F4xx_HAL_Driver/Src/stm32f4xx_ll_usb.c **** 
 1062              		.loc 1 432 3 is_stmt 1 view .LVU332
 432:Drivers/STM32F4xx_HAL_Driver/Src/stm32f4xx_ll_usb.c **** 
 1063              		.loc 1 432 24 is_stmt 0 view .LVU333
 1064 0132 DCF81030 		ldr	r3, [ip, #16]
 1065              	.LVL81:
 432:Drivers/STM32F4xx_HAL_Driver/Src/stm32f4xx_ll_usb.c **** 
ARM GAS  /tmp/ccELzqP8.s 			page 50


 1066              		.loc 1 432 24 view .LVU334
 1067 0136 23F48073 		bic	r3, r3, #256
 1068 013a CCF81030 		str	r3, [ip, #16]
 435:Drivers/STM32F4xx_HAL_Driver/Src/stm32f4xx_ll_usb.c **** 
 1069              		.loc 1 435 3 is_stmt 1 view .LVU335
 435:Drivers/STM32F4xx_HAL_Driver/Src/stm32f4xx_ll_usb.c **** 
 1070              		.loc 1 435 17 is_stmt 0 view .LVU336
 1071 013e 0023     		movs	r3, #0
 1072 0140 A361     		str	r3, [r4, #24]
 438:Drivers/STM32F4xx_HAL_Driver/Src/stm32f4xx_ll_usb.c **** 
 1073              		.loc 1 438 3 is_stmt 1 view .LVU337
 438:Drivers/STM32F4xx_HAL_Driver/Src/stm32f4xx_ll_usb.c **** 
 1074              		.loc 1 438 17 is_stmt 0 view .LVU338
 1075 0142 6FF08043 		mvn	r3, #1073741824
 1076 0146 6361     		str	r3, [r4, #20]
 441:Drivers/STM32F4xx_HAL_Driver/Src/stm32f4xx_ll_usb.c ****   {
 1077              		.loc 1 441 3 is_stmt 1 view .LVU339
 441:Drivers/STM32F4xx_HAL_Driver/Src/stm32f4xx_ll_usb.c ****   {
 1078              		.loc 1 441 10 is_stmt 0 view .LVU340
 1079 0148 9DF81E30 		ldrb	r3, [sp, #30]	@ zero_extendqisi2
 441:Drivers/STM32F4xx_HAL_Driver/Src/stm32f4xx_ll_usb.c ****   {
 1080              		.loc 1 441 6 view .LVU341
 1081 014c 1BB9     		cbnz	r3, .L71
 443:Drivers/STM32F4xx_HAL_Driver/Src/stm32f4xx_ll_usb.c ****   }
 1082              		.loc 1 443 5 is_stmt 1 view .LVU342
 443:Drivers/STM32F4xx_HAL_Driver/Src/stm32f4xx_ll_usb.c ****   }
 1083              		.loc 1 443 19 is_stmt 0 view .LVU343
 1084 014e A369     		ldr	r3, [r4, #24]
 1085 0150 43F01003 		orr	r3, r3, #16
 1086 0154 A361     		str	r3, [r4, #24]
 1087              	.L71:
 447:Drivers/STM32F4xx_HAL_Driver/Src/stm32f4xx_ll_usb.c ****                    USB_OTG_GINTMSK_ENUMDNEM | USB_OTG_GINTMSK_IEPINT |
 1088              		.loc 1 447 3 is_stmt 1 view .LVU344
 447:Drivers/STM32F4xx_HAL_Driver/Src/stm32f4xx_ll_usb.c ****                    USB_OTG_GINTMSK_ENUMDNEM | USB_OTG_GINTMSK_IEPINT |
 1089              		.loc 1 447 17 is_stmt 0 view .LVU345
 1090 0156 A269     		ldr	r2, [r4, #24]
 1091 0158 0B4B     		ldr	r3, .L83
 1092 015a 1343     		orrs	r3, r3, r2
 1093 015c A361     		str	r3, [r4, #24]
 452:Drivers/STM32F4xx_HAL_Driver/Src/stm32f4xx_ll_usb.c ****   {
 1094              		.loc 1 452 3 is_stmt 1 view .LVU346
 452:Drivers/STM32F4xx_HAL_Driver/Src/stm32f4xx_ll_usb.c ****   {
 1095              		.loc 1 452 10 is_stmt 0 view .LVU347
 1096 015e 9DF82230 		ldrb	r3, [sp, #34]	@ zero_extendqisi2
 452:Drivers/STM32F4xx_HAL_Driver/Src/stm32f4xx_ll_usb.c ****   {
 1097              		.loc 1 452 6 view .LVU348
 1098 0162 1BB1     		cbz	r3, .L72
 454:Drivers/STM32F4xx_HAL_Driver/Src/stm32f4xx_ll_usb.c ****   }
 1099              		.loc 1 454 5 is_stmt 1 view .LVU349
 454:Drivers/STM32F4xx_HAL_Driver/Src/stm32f4xx_ll_usb.c ****   }
 1100              		.loc 1 454 19 is_stmt 0 view .LVU350
 1101 0164 A369     		ldr	r3, [r4, #24]
 1102 0166 43F00803 		orr	r3, r3, #8
 1103 016a A361     		str	r3, [r4, #24]
 1104              	.L72:
 457:Drivers/STM32F4xx_HAL_Driver/Src/stm32f4xx_ll_usb.c ****   {
 1105              		.loc 1 457 3 is_stmt 1 view .LVU351
ARM GAS  /tmp/ccELzqP8.s 			page 51


 457:Drivers/STM32F4xx_HAL_Driver/Src/stm32f4xx_ll_usb.c ****   {
 1106              		.loc 1 457 6 is_stmt 0 view .LVU352
 1107 016c 012E     		cmp	r6, #1
 1108 016e 04D0     		beq	.L82
 1109              	.L73:
 462:Drivers/STM32F4xx_HAL_Driver/Src/stm32f4xx_ll_usb.c **** }
 1110              		.loc 1 462 3 is_stmt 1 view .LVU353
 463:Drivers/STM32F4xx_HAL_Driver/Src/stm32f4xx_ll_usb.c **** 
 1111              		.loc 1 463 1 is_stmt 0 view .LVU354
 1112 0170 2846     		mov	r0, r5
 1113 0172 BDE8F840 		pop	{r3, r4, r5, r6, r7, lr}
 1114              	.LCFI16:
 1115              		.cfi_remember_state
 1116              		.cfi_restore 14
 1117              		.cfi_restore 7
 1118              		.cfi_restore 6
 1119              		.cfi_restore 5
 1120              		.cfi_restore 4
 1121              		.cfi_restore 3
 1122              		.cfi_def_cfa_offset 16
 1123              	.LVL82:
 463:Drivers/STM32F4xx_HAL_Driver/Src/stm32f4xx_ll_usb.c **** 
 1124              		.loc 1 463 1 view .LVU355
 1125 0176 04B0     		add	sp, sp, #16
 1126              	.LCFI17:
 1127              		.cfi_def_cfa_offset 0
 1128 0178 7047     		bx	lr
 1129              	.LVL83:
 1130              	.L82:
 1131              	.LCFI18:
 1132              		.cfi_restore_state
 459:Drivers/STM32F4xx_HAL_Driver/Src/stm32f4xx_ll_usb.c ****   }
 1133              		.loc 1 459 5 is_stmt 1 view .LVU356
 459:Drivers/STM32F4xx_HAL_Driver/Src/stm32f4xx_ll_usb.c ****   }
 1134              		.loc 1 459 19 is_stmt 0 view .LVU357
 1135 017a A369     		ldr	r3, [r4, #24]
 1136 017c 43F08043 		orr	r3, r3, #1073741824
 1137 0180 43F00403 		orr	r3, r3, #4
 1138 0184 A361     		str	r3, [r4, #24]
 1139 0186 F3E7     		b	.L73
 1140              	.L84:
 1141              		.align	2
 1142              	.L83:
 1143 0188 00383C80 		.word	-2143537152
 1144              		.cfi_endproc
 1145              	.LFE139:
 1147              		.section	.text.USB_GetDevSpeed,"ax",%progbits
 1148              		.align	1
 1149              		.global	USB_GetDevSpeed
 1150              		.syntax unified
 1151              		.thumb
 1152              		.thumb_func
 1153              		.fpu fpv4-sp-d16
 1155              	USB_GetDevSpeed:
 1156              	.LVL84:
 1157              	.LFB143:
 570:Drivers/STM32F4xx_HAL_Driver/Src/stm32f4xx_ll_usb.c ****   uint32_t USBx_BASE = (uint32_t)USBx;
ARM GAS  /tmp/ccELzqP8.s 			page 52


 1158              		.loc 1 570 1 is_stmt 1 view -0
 1159              		.cfi_startproc
 1160              		@ args = 0, pretend = 0, frame = 0
 1161              		@ frame_needed = 0, uses_anonymous_args = 0
 1162              		@ link register save eliminated.
 571:Drivers/STM32F4xx_HAL_Driver/Src/stm32f4xx_ll_usb.c ****   uint8_t speed;
 1163              		.loc 1 571 3 view .LVU359
 572:Drivers/STM32F4xx_HAL_Driver/Src/stm32f4xx_ll_usb.c ****   uint32_t DevEnumSpeed = USBx_DEVICE->DSTS & USB_OTG_DSTS_ENUMSPD;
 1164              		.loc 1 572 3 view .LVU360
 573:Drivers/STM32F4xx_HAL_Driver/Src/stm32f4xx_ll_usb.c **** 
 1165              		.loc 1 573 3 view .LVU361
 573:Drivers/STM32F4xx_HAL_Driver/Src/stm32f4xx_ll_usb.c **** 
 1166              		.loc 1 573 38 is_stmt 0 view .LVU362
 1167 0000 D0F80838 		ldr	r3, [r0, #2056]
 1168              	.LVL85:
 575:Drivers/STM32F4xx_HAL_Driver/Src/stm32f4xx_ll_usb.c ****   {
 1169              		.loc 1 575 3 is_stmt 1 view .LVU363
 575:Drivers/STM32F4xx_HAL_Driver/Src/stm32f4xx_ll_usb.c ****   {
 1170              		.loc 1 575 6 is_stmt 0 view .LVU364
 1171 0004 13F00603 		ands	r3, r3, #6
 1172              	.LVL86:
 575:Drivers/STM32F4xx_HAL_Driver/Src/stm32f4xx_ll_usb.c ****   {
 1173              		.loc 1 575 6 view .LVU365
 1174 0008 07D0     		beq	.L87
 579:Drivers/STM32F4xx_HAL_Driver/Src/stm32f4xx_ll_usb.c ****            (DevEnumSpeed == DSTS_ENUMSPD_FS_PHY_48MHZ))
 1175              		.loc 1 579 8 is_stmt 1 view .LVU366
 579:Drivers/STM32F4xx_HAL_Driver/Src/stm32f4xx_ll_usb.c ****            (DevEnumSpeed == DSTS_ENUMSPD_FS_PHY_48MHZ))
 1176              		.loc 1 579 11 is_stmt 0 view .LVU367
 1177 000a 022B     		cmp	r3, #2
 1178 000c 07D0     		beq	.L88
 579:Drivers/STM32F4xx_HAL_Driver/Src/stm32f4xx_ll_usb.c ****            (DevEnumSpeed == DSTS_ENUMSPD_FS_PHY_48MHZ))
 1179              		.loc 1 579 65 discriminator 1 view .LVU368
 1180 000e 062B     		cmp	r3, #6
 1181 0010 01D0     		beq	.L90
 586:Drivers/STM32F4xx_HAL_Driver/Src/stm32f4xx_ll_usb.c ****   }
 1182              		.loc 1 586 11 view .LVU369
 1183 0012 0F20     		movs	r0, #15
 1184              	.LVL87:
 589:Drivers/STM32F4xx_HAL_Driver/Src/stm32f4xx_ll_usb.c **** }
 1185              		.loc 1 589 3 is_stmt 1 view .LVU370
 590:Drivers/STM32F4xx_HAL_Driver/Src/stm32f4xx_ll_usb.c **** 
 1186              		.loc 1 590 1 is_stmt 0 view .LVU371
 1187 0014 7047     		bx	lr
 1188              	.LVL88:
 1189              	.L90:
 582:Drivers/STM32F4xx_HAL_Driver/Src/stm32f4xx_ll_usb.c ****   }
 1190              		.loc 1 582 11 view .LVU372
 1191 0016 0220     		movs	r0, #2
 1192              	.LVL89:
 582:Drivers/STM32F4xx_HAL_Driver/Src/stm32f4xx_ll_usb.c ****   }
 1193              		.loc 1 582 11 view .LVU373
 1194 0018 7047     		bx	lr
 1195              	.LVL90:
 1196              	.L87:
 577:Drivers/STM32F4xx_HAL_Driver/Src/stm32f4xx_ll_usb.c ****   }
 1197              		.loc 1 577 11 view .LVU374
 1198 001a 0020     		movs	r0, #0
ARM GAS  /tmp/ccELzqP8.s 			page 53


 1199              	.LVL91:
 577:Drivers/STM32F4xx_HAL_Driver/Src/stm32f4xx_ll_usb.c ****   }
 1200              		.loc 1 577 11 view .LVU375
 1201 001c 7047     		bx	lr
 1202              	.LVL92:
 1203              	.L88:
 582:Drivers/STM32F4xx_HAL_Driver/Src/stm32f4xx_ll_usb.c ****   }
 1204              		.loc 1 582 11 view .LVU376
 1205 001e 0220     		movs	r0, #2
 1206              	.LVL93:
 582:Drivers/STM32F4xx_HAL_Driver/Src/stm32f4xx_ll_usb.c ****   }
 1207              		.loc 1 582 11 view .LVU377
 1208 0020 7047     		bx	lr
 1209              		.cfi_endproc
 1210              	.LFE143:
 1212              		.section	.text.USB_ActivateEndpoint,"ax",%progbits
 1213              		.align	1
 1214              		.global	USB_ActivateEndpoint
 1215              		.syntax unified
 1216              		.thumb
 1217              		.thumb_func
 1218              		.fpu fpv4-sp-d16
 1220              	USB_ActivateEndpoint:
 1221              	.LVL94:
 1222              	.LFB144:
 599:Drivers/STM32F4xx_HAL_Driver/Src/stm32f4xx_ll_usb.c ****   uint32_t USBx_BASE = (uint32_t)USBx;
 1223              		.loc 1 599 1 is_stmt 1 view -0
 1224              		.cfi_startproc
 1225              		@ args = 0, pretend = 0, frame = 0
 1226              		@ frame_needed = 0, uses_anonymous_args = 0
 599:Drivers/STM32F4xx_HAL_Driver/Src/stm32f4xx_ll_usb.c ****   uint32_t USBx_BASE = (uint32_t)USBx;
 1227              		.loc 1 599 1 is_stmt 0 view .LVU379
 1228 0000 10B5     		push	{r4, lr}
 1229              	.LCFI19:
 1230              		.cfi_def_cfa_offset 8
 1231              		.cfi_offset 4, -8
 1232              		.cfi_offset 14, -4
 600:Drivers/STM32F4xx_HAL_Driver/Src/stm32f4xx_ll_usb.c ****   uint32_t epnum = (uint32_t)ep->num;
 1233              		.loc 1 600 3 is_stmt 1 view .LVU380
 1234              	.LVL95:
 601:Drivers/STM32F4xx_HAL_Driver/Src/stm32f4xx_ll_usb.c **** 
 1235              		.loc 1 601 3 view .LVU381
 601:Drivers/STM32F4xx_HAL_Driver/Src/stm32f4xx_ll_usb.c **** 
 1236              		.loc 1 601 32 is_stmt 0 view .LVU382
 1237 0002 91F800C0 		ldrb	ip, [r1]	@ zero_extendqisi2
 1238              	.LVL96:
 603:Drivers/STM32F4xx_HAL_Driver/Src/stm32f4xx_ll_usb.c ****   {
 1239              		.loc 1 603 3 is_stmt 1 view .LVU383
 603:Drivers/STM32F4xx_HAL_Driver/Src/stm32f4xx_ll_usb.c ****   {
 1240              		.loc 1 603 9 is_stmt 0 view .LVU384
 1241 0006 4B78     		ldrb	r3, [r1, #1]	@ zero_extendqisi2
 603:Drivers/STM32F4xx_HAL_Driver/Src/stm32f4xx_ll_usb.c ****   {
 1242              		.loc 1 603 6 view .LVU385
 1243 0008 012B     		cmp	r3, #1
 1244 000a 23D0     		beq	.L95
 617:Drivers/STM32F4xx_HAL_Driver/Src/stm32f4xx_ll_usb.c **** 
 1245              		.loc 1 617 5 is_stmt 1 view .LVU386
ARM GAS  /tmp/ccELzqP8.s 			page 54


 617:Drivers/STM32F4xx_HAL_Driver/Src/stm32f4xx_ll_usb.c **** 
 1246              		.loc 1 617 27 is_stmt 0 view .LVU387
 1247 000c 00F5006E 		add	lr, r0, #2048
 1248 0010 D0F81C38 		ldr	r3, [r0, #2076]
 617:Drivers/STM32F4xx_HAL_Driver/Src/stm32f4xx_ll_usb.c **** 
 1249              		.loc 1 617 82 view .LVU388
 1250 0014 0CF00F04 		and	r4, ip, #15
 617:Drivers/STM32F4xx_HAL_Driver/Src/stm32f4xx_ll_usb.c **** 
 1251              		.loc 1 617 55 view .LVU389
 1252 0018 0122     		movs	r2, #1
 1253 001a A240     		lsls	r2, r2, r4
 617:Drivers/STM32F4xx_HAL_Driver/Src/stm32f4xx_ll_usb.c **** 
 1254              		.loc 1 617 27 view .LVU390
 1255 001c 43EA0243 		orr	r3, r3, r2, lsl #16
 1256 0020 C0F81C38 		str	r3, [r0, #2076]
 619:Drivers/STM32F4xx_HAL_Driver/Src/stm32f4xx_ll_usb.c ****     {
 1257              		.loc 1 619 5 is_stmt 1 view .LVU391
 619:Drivers/STM32F4xx_HAL_Driver/Src/stm32f4xx_ll_usb.c ****     {
 1258              		.loc 1 619 11 is_stmt 0 view .LVU392
 1259 0024 00EB4C10 		add	r0, r0, ip, lsl #5
 1260              	.LVL97:
 619:Drivers/STM32F4xx_HAL_Driver/Src/stm32f4xx_ll_usb.c ****     {
 1261              		.loc 1 619 28 view .LVU393
 1262 0028 D0F8003B 		ldr	r3, [r0, #2816]
 619:Drivers/STM32F4xx_HAL_Driver/Src/stm32f4xx_ll_usb.c ****     {
 1263              		.loc 1 619 8 view .LVU394
 1264 002c 13F4004F 		tst	r3, #32768
 1265 0030 0ED1     		bne	.L93
 621:Drivers/STM32F4xx_HAL_Driver/Src/stm32f4xx_ll_usb.c ****                                     ((uint32_t)ep->type << 18) |
 1266              		.loc 1 621 7 is_stmt 1 view .LVU395
 621:Drivers/STM32F4xx_HAL_Driver/Src/stm32f4xx_ll_usb.c ****                                     ((uint32_t)ep->type << 18) |
 1267              		.loc 1 621 34 is_stmt 0 view .LVU396
 1268 0032 D0F8003B 		ldr	r3, [r0, #2816]
 621:Drivers/STM32F4xx_HAL_Driver/Src/stm32f4xx_ll_usb.c ****                                     ((uint32_t)ep->type << 18) |
 1269              		.loc 1 621 40 view .LVU397
 1270 0036 8A68     		ldr	r2, [r1, #8]
 621:Drivers/STM32F4xx_HAL_Driver/Src/stm32f4xx_ll_usb.c ****                                     ((uint32_t)ep->type << 18) |
 1271              		.loc 1 621 52 view .LVU398
 1272 0038 C2F30A02 		ubfx	r2, r2, #0, #11
 622:Drivers/STM32F4xx_HAL_Driver/Src/stm32f4xx_ll_usb.c ****                                     USB_OTG_DIEPCTL_SD0PID_SEVNFRM |
 1273              		.loc 1 622 50 view .LVU399
 1274 003c 0979     		ldrb	r1, [r1, #4]	@ zero_extendqisi2
 1275              	.LVL98:
 621:Drivers/STM32F4xx_HAL_Driver/Src/stm32f4xx_ll_usb.c ****                                     ((uint32_t)ep->type << 18) |
 1276              		.loc 1 621 77 view .LVU400
 1277 003e 42EA8142 		orr	r2, r2, r1, lsl #18
 621:Drivers/STM32F4xx_HAL_Driver/Src/stm32f4xx_ll_usb.c ****                                     ((uint32_t)ep->type << 18) |
 1278              		.loc 1 621 34 view .LVU401
 1279 0042 1343     		orrs	r3, r3, r2
 1280 0044 43F08053 		orr	r3, r3, #268435456
 1281 0048 43F40043 		orr	r3, r3, #32768
 1282 004c C0F8003B 		str	r3, [r0, #2816]
 1283              	.LVL99:
 1284              	.L93:
 627:Drivers/STM32F4xx_HAL_Driver/Src/stm32f4xx_ll_usb.c **** }
 1285              		.loc 1 627 3 is_stmt 1 view .LVU402
 628:Drivers/STM32F4xx_HAL_Driver/Src/stm32f4xx_ll_usb.c **** 
ARM GAS  /tmp/ccELzqP8.s 			page 55


 1286              		.loc 1 628 1 is_stmt 0 view .LVU403
 1287 0050 0020     		movs	r0, #0
 1288 0052 10BD     		pop	{r4, pc}
 1289              	.LVL100:
 1290              	.L95:
 605:Drivers/STM32F4xx_HAL_Driver/Src/stm32f4xx_ll_usb.c **** 
 1291              		.loc 1 605 5 is_stmt 1 view .LVU404
 605:Drivers/STM32F4xx_HAL_Driver/Src/stm32f4xx_ll_usb.c **** 
 1292              		.loc 1 605 27 is_stmt 0 view .LVU405
 1293 0054 D0F81C28 		ldr	r2, [r0, #2076]
 605:Drivers/STM32F4xx_HAL_Driver/Src/stm32f4xx_ll_usb.c **** 
 1294              		.loc 1 605 81 view .LVU406
 1295 0058 0CF00F0E 		and	lr, ip, #15
 605:Drivers/STM32F4xx_HAL_Driver/Src/stm32f4xx_ll_usb.c **** 
 1296              		.loc 1 605 54 view .LVU407
 1297 005c 03FA0EF3 		lsl	r3, r3, lr
 605:Drivers/STM32F4xx_HAL_Driver/Src/stm32f4xx_ll_usb.c **** 
 1298              		.loc 1 605 52 view .LVU408
 1299 0060 9BB2     		uxth	r3, r3
 605:Drivers/STM32F4xx_HAL_Driver/Src/stm32f4xx_ll_usb.c **** 
 1300              		.loc 1 605 27 view .LVU409
 1301 0062 1343     		orrs	r3, r3, r2
 1302 0064 C0F81C38 		str	r3, [r0, #2076]
 607:Drivers/STM32F4xx_HAL_Driver/Src/stm32f4xx_ll_usb.c ****     {
 1303              		.loc 1 607 5 is_stmt 1 view .LVU410
 607:Drivers/STM32F4xx_HAL_Driver/Src/stm32f4xx_ll_usb.c ****     {
 1304              		.loc 1 607 10 is_stmt 0 view .LVU411
 1305 0068 00EB4C10 		add	r0, r0, ip, lsl #5
 1306              	.LVL101:
 607:Drivers/STM32F4xx_HAL_Driver/Src/stm32f4xx_ll_usb.c ****     {
 1307              		.loc 1 607 26 view .LVU412
 1308 006c D0F80039 		ldr	r3, [r0, #2304]
 607:Drivers/STM32F4xx_HAL_Driver/Src/stm32f4xx_ll_usb.c ****     {
 1309              		.loc 1 607 8 view .LVU413
 1310 0070 13F4004F 		tst	r3, #32768
 1311 0074 ECD1     		bne	.L93
 609:Drivers/STM32F4xx_HAL_Driver/Src/stm32f4xx_ll_usb.c ****                                    ((uint32_t)ep->type << 18) | (epnum << 22) |
 1312              		.loc 1 609 7 is_stmt 1 view .LVU414
 609:Drivers/STM32F4xx_HAL_Driver/Src/stm32f4xx_ll_usb.c ****                                    ((uint32_t)ep->type << 18) | (epnum << 22) |
 1313              		.loc 1 609 33 is_stmt 0 view .LVU415
 1314 0076 D0F80039 		ldr	r3, [r0, #2304]
 609:Drivers/STM32F4xx_HAL_Driver/Src/stm32f4xx_ll_usb.c ****                                    ((uint32_t)ep->type << 18) | (epnum << 22) |
 1315              		.loc 1 609 39 view .LVU416
 1316 007a 8A68     		ldr	r2, [r1, #8]
 609:Drivers/STM32F4xx_HAL_Driver/Src/stm32f4xx_ll_usb.c ****                                    ((uint32_t)ep->type << 18) | (epnum << 22) |
 1317              		.loc 1 609 51 view .LVU417
 1318 007c C2F30A02 		ubfx	r2, r2, #0, #11
 610:Drivers/STM32F4xx_HAL_Driver/Src/stm32f4xx_ll_usb.c ****                                    USB_OTG_DIEPCTL_SD0PID_SEVNFRM |
 1319              		.loc 1 610 49 view .LVU418
 1320 0080 0979     		ldrb	r1, [r1, #4]	@ zero_extendqisi2
 1321              	.LVL102:
 609:Drivers/STM32F4xx_HAL_Driver/Src/stm32f4xx_ll_usb.c ****                                    ((uint32_t)ep->type << 18) | (epnum << 22) |
 1322              		.loc 1 609 76 view .LVU419
 1323 0082 42EA8142 		orr	r2, r2, r1, lsl #18
 610:Drivers/STM32F4xx_HAL_Driver/Src/stm32f4xx_ll_usb.c ****                                    USB_OTG_DIEPCTL_SD0PID_SEVNFRM |
 1324              		.loc 1 610 63 view .LVU420
 1325 0086 42EA8C5C 		orr	ip, r2, ip, lsl #22
ARM GAS  /tmp/ccELzqP8.s 			page 56


 1326              	.LVL103:
 609:Drivers/STM32F4xx_HAL_Driver/Src/stm32f4xx_ll_usb.c ****                                    ((uint32_t)ep->type << 18) | (epnum << 22) |
 1327              		.loc 1 609 33 view .LVU421
 1328 008a 43EA0C03 		orr	r3, r3, ip
 1329 008e 43F08053 		orr	r3, r3, #268435456
 1330 0092 43F40043 		orr	r3, r3, #32768
 1331 0096 C0F80039 		str	r3, [r0, #2304]
 1332 009a D9E7     		b	.L93
 1333              		.cfi_endproc
 1334              	.LFE144:
 1336              		.section	.text.USB_ActivateDedicatedEndpoint,"ax",%progbits
 1337              		.align	1
 1338              		.global	USB_ActivateDedicatedEndpoint
 1339              		.syntax unified
 1340              		.thumb
 1341              		.thumb_func
 1342              		.fpu fpv4-sp-d16
 1344              	USB_ActivateDedicatedEndpoint:
 1345              	.LVL104:
 1346              	.LFB145:
 637:Drivers/STM32F4xx_HAL_Driver/Src/stm32f4xx_ll_usb.c ****   uint32_t USBx_BASE = (uint32_t)USBx;
 1347              		.loc 1 637 1 is_stmt 1 view -0
 1348              		.cfi_startproc
 1349              		@ args = 0, pretend = 0, frame = 0
 1350              		@ frame_needed = 0, uses_anonymous_args = 0
 637:Drivers/STM32F4xx_HAL_Driver/Src/stm32f4xx_ll_usb.c ****   uint32_t USBx_BASE = (uint32_t)USBx;
 1351              		.loc 1 637 1 is_stmt 0 view .LVU423
 1352 0000 10B5     		push	{r4, lr}
 1353              	.LCFI20:
 1354              		.cfi_def_cfa_offset 8
 1355              		.cfi_offset 4, -8
 1356              		.cfi_offset 14, -4
 638:Drivers/STM32F4xx_HAL_Driver/Src/stm32f4xx_ll_usb.c ****   uint32_t epnum = (uint32_t)ep->num;
 1357              		.loc 1 638 3 is_stmt 1 view .LVU424
 1358              	.LVL105:
 639:Drivers/STM32F4xx_HAL_Driver/Src/stm32f4xx_ll_usb.c **** 
 1359              		.loc 1 639 3 view .LVU425
 639:Drivers/STM32F4xx_HAL_Driver/Src/stm32f4xx_ll_usb.c **** 
 1360              		.loc 1 639 32 is_stmt 0 view .LVU426
 1361 0002 0A78     		ldrb	r2, [r1]	@ zero_extendqisi2
 1362              	.LVL106:
 642:Drivers/STM32F4xx_HAL_Driver/Src/stm32f4xx_ll_usb.c ****   {
 1363              		.loc 1 642 3 is_stmt 1 view .LVU427
 642:Drivers/STM32F4xx_HAL_Driver/Src/stm32f4xx_ll_usb.c ****   {
 1364              		.loc 1 642 9 is_stmt 0 view .LVU428
 1365 0004 4B78     		ldrb	r3, [r1, #1]	@ zero_extendqisi2
 642:Drivers/STM32F4xx_HAL_Driver/Src/stm32f4xx_ll_usb.c ****   {
 1366              		.loc 1 642 6 view .LVU429
 1367 0006 012B     		cmp	r3, #1
 1368 0008 23D0     		beq	.L102
 656:Drivers/STM32F4xx_HAL_Driver/Src/stm32f4xx_ll_usb.c ****     {
 1369              		.loc 1 656 5 is_stmt 1 view .LVU430
 656:Drivers/STM32F4xx_HAL_Driver/Src/stm32f4xx_ll_usb.c ****     {
 1370              		.loc 1 656 11 is_stmt 0 view .LVU431
 1371 000a 00EB421C 		add	ip, r0, r2, lsl #5
 656:Drivers/STM32F4xx_HAL_Driver/Src/stm32f4xx_ll_usb.c ****     {
 1372              		.loc 1 656 28 view .LVU432
ARM GAS  /tmp/ccELzqP8.s 			page 57


 1373 000e DCF8003B 		ldr	r3, [ip, #2816]
 656:Drivers/STM32F4xx_HAL_Driver/Src/stm32f4xx_ll_usb.c ****     {
 1374              		.loc 1 656 8 view .LVU433
 1375 0012 13F4004F 		tst	r3, #32768
 1376 0016 0FD1     		bne	.L100
 658:Drivers/STM32F4xx_HAL_Driver/Src/stm32f4xx_ll_usb.c ****                                     ((uint32_t)ep->type << 18) | (epnum << 22) |
 1377              		.loc 1 658 7 is_stmt 1 view .LVU434
 658:Drivers/STM32F4xx_HAL_Driver/Src/stm32f4xx_ll_usb.c ****                                     ((uint32_t)ep->type << 18) | (epnum << 22) |
 1378              		.loc 1 658 34 is_stmt 0 view .LVU435
 1379 0018 DCF8004B 		ldr	r4, [ip, #2816]
 658:Drivers/STM32F4xx_HAL_Driver/Src/stm32f4xx_ll_usb.c ****                                     ((uint32_t)ep->type << 18) | (epnum << 22) |
 1380              		.loc 1 658 40 view .LVU436
 1381 001c 8B68     		ldr	r3, [r1, #8]
 658:Drivers/STM32F4xx_HAL_Driver/Src/stm32f4xx_ll_usb.c ****                                     ((uint32_t)ep->type << 18) | (epnum << 22) |
 1382              		.loc 1 658 52 view .LVU437
 1383 001e C3F30A03 		ubfx	r3, r3, #0, #11
 659:Drivers/STM32F4xx_HAL_Driver/Src/stm32f4xx_ll_usb.c ****                                     USB_OTG_DOEPCTL_USBAEP;
 1384              		.loc 1 659 50 view .LVU438
 1385 0022 91F804E0 		ldrb	lr, [r1, #4]	@ zero_extendqisi2
 658:Drivers/STM32F4xx_HAL_Driver/Src/stm32f4xx_ll_usb.c ****                                     ((uint32_t)ep->type << 18) | (epnum << 22) |
 1386              		.loc 1 658 77 view .LVU439
 1387 0026 43EA8E43 		orr	r3, r3, lr, lsl #18
 659:Drivers/STM32F4xx_HAL_Driver/Src/stm32f4xx_ll_usb.c ****                                     USB_OTG_DOEPCTL_USBAEP;
 1388              		.loc 1 659 64 view .LVU440
 1389 002a 43EA8253 		orr	r3, r3, r2, lsl #22
 658:Drivers/STM32F4xx_HAL_Driver/Src/stm32f4xx_ll_usb.c ****                                     ((uint32_t)ep->type << 18) | (epnum << 22) |
 1390              		.loc 1 658 34 view .LVU441
 1391 002e 2343     		orrs	r3, r3, r4
 1392 0030 43F40043 		orr	r3, r3, #32768
 1393 0034 CCF8003B 		str	r3, [ip, #2816]
 1394              	.L100:
 663:Drivers/STM32F4xx_HAL_Driver/Src/stm32f4xx_ll_usb.c ****   }
 1395              		.loc 1 663 5 is_stmt 1 view .LVU442
 663:Drivers/STM32F4xx_HAL_Driver/Src/stm32f4xx_ll_usb.c ****   }
 1396              		.loc 1 663 27 is_stmt 0 view .LVU443
 1397 0038 D0F83C38 		ldr	r3, [r0, #2108]
 663:Drivers/STM32F4xx_HAL_Driver/Src/stm32f4xx_ll_usb.c ****   }
 1398              		.loc 1 663 76 view .LVU444
 1399 003c 0A78     		ldrb	r2, [r1]	@ zero_extendqisi2
 1400              	.LVL107:
 663:Drivers/STM32F4xx_HAL_Driver/Src/stm32f4xx_ll_usb.c ****   }
 1401              		.loc 1 663 82 view .LVU445
 1402 003e 02F00F01 		and	r1, r2, #15
 1403              	.LVL108:
 663:Drivers/STM32F4xx_HAL_Driver/Src/stm32f4xx_ll_usb.c ****   }
 1404              		.loc 1 663 55 view .LVU446
 1405 0042 0122     		movs	r2, #1
 1406 0044 8A40     		lsls	r2, r2, r1
 663:Drivers/STM32F4xx_HAL_Driver/Src/stm32f4xx_ll_usb.c ****   }
 1407              		.loc 1 663 27 view .LVU447
 1408 0046 43EA0243 		orr	r3, r3, r2, lsl #16
 1409 004a C0F83C38 		str	r3, [r0, #2108]
 1410              	.L99:
 666:Drivers/STM32F4xx_HAL_Driver/Src/stm32f4xx_ll_usb.c **** }
 1411              		.loc 1 666 3 is_stmt 1 view .LVU448
 667:Drivers/STM32F4xx_HAL_Driver/Src/stm32f4xx_ll_usb.c **** 
 1412              		.loc 1 667 1 is_stmt 0 view .LVU449
ARM GAS  /tmp/ccELzqP8.s 			page 58


 1413 004e 0020     		movs	r0, #0
 1414              	.LVL109:
 667:Drivers/STM32F4xx_HAL_Driver/Src/stm32f4xx_ll_usb.c **** 
 1415              		.loc 1 667 1 view .LVU450
 1416 0050 10BD     		pop	{r4, pc}
 1417              	.LVL110:
 1418              	.L102:
 644:Drivers/STM32F4xx_HAL_Driver/Src/stm32f4xx_ll_usb.c ****     {
 1419              		.loc 1 644 5 is_stmt 1 view .LVU451
 644:Drivers/STM32F4xx_HAL_Driver/Src/stm32f4xx_ll_usb.c ****     {
 1420              		.loc 1 644 11 is_stmt 0 view .LVU452
 1421 0052 00EB421C 		add	ip, r0, r2, lsl #5
 644:Drivers/STM32F4xx_HAL_Driver/Src/stm32f4xx_ll_usb.c ****     {
 1422              		.loc 1 644 27 view .LVU453
 1423 0056 DCF80039 		ldr	r3, [ip, #2304]
 644:Drivers/STM32F4xx_HAL_Driver/Src/stm32f4xx_ll_usb.c ****     {
 1424              		.loc 1 644 8 view .LVU454
 1425 005a 13F4004F 		tst	r3, #32768
 1426 005e 11D1     		bne	.L98
 646:Drivers/STM32F4xx_HAL_Driver/Src/stm32f4xx_ll_usb.c ****                                    ((uint32_t)ep->type << 18) | (epnum << 22) |
 1427              		.loc 1 646 7 is_stmt 1 view .LVU455
 646:Drivers/STM32F4xx_HAL_Driver/Src/stm32f4xx_ll_usb.c ****                                    ((uint32_t)ep->type << 18) | (epnum << 22) |
 1428              		.loc 1 646 33 is_stmt 0 view .LVU456
 1429 0060 DCF80039 		ldr	r3, [ip, #2304]
 646:Drivers/STM32F4xx_HAL_Driver/Src/stm32f4xx_ll_usb.c ****                                    ((uint32_t)ep->type << 18) | (epnum << 22) |
 1430              		.loc 1 646 39 view .LVU457
 1431 0064 8C68     		ldr	r4, [r1, #8]
 646:Drivers/STM32F4xx_HAL_Driver/Src/stm32f4xx_ll_usb.c ****                                    ((uint32_t)ep->type << 18) | (epnum << 22) |
 1432              		.loc 1 646 51 view .LVU458
 1433 0066 C4F30A04 		ubfx	r4, r4, #0, #11
 647:Drivers/STM32F4xx_HAL_Driver/Src/stm32f4xx_ll_usb.c ****                                    USB_OTG_DIEPCTL_SD0PID_SEVNFRM |
 1434              		.loc 1 647 49 view .LVU459
 1435 006a 91F804E0 		ldrb	lr, [r1, #4]	@ zero_extendqisi2
 646:Drivers/STM32F4xx_HAL_Driver/Src/stm32f4xx_ll_usb.c ****                                    ((uint32_t)ep->type << 18) | (epnum << 22) |
 1436              		.loc 1 646 76 view .LVU460
 1437 006e 44EA8E44 		orr	r4, r4, lr, lsl #18
 647:Drivers/STM32F4xx_HAL_Driver/Src/stm32f4xx_ll_usb.c ****                                    USB_OTG_DIEPCTL_SD0PID_SEVNFRM |
 1438              		.loc 1 647 63 view .LVU461
 1439 0072 44EA8252 		orr	r2, r4, r2, lsl #22
 1440              	.LVL111:
 646:Drivers/STM32F4xx_HAL_Driver/Src/stm32f4xx_ll_usb.c ****                                    ((uint32_t)ep->type << 18) | (epnum << 22) |
 1441              		.loc 1 646 33 view .LVU462
 1442 0076 1343     		orrs	r3, r3, r2
 1443 0078 43F08053 		orr	r3, r3, #268435456
 1444 007c 43F40043 		orr	r3, r3, #32768
 1445 0080 CCF80039 		str	r3, [ip, #2304]
 1446              	.LVL112:
 1447              	.L98:
 652:Drivers/STM32F4xx_HAL_Driver/Src/stm32f4xx_ll_usb.c ****   }
 1448              		.loc 1 652 5 is_stmt 1 view .LVU463
 652:Drivers/STM32F4xx_HAL_Driver/Src/stm32f4xx_ll_usb.c ****   }
 1449              		.loc 1 652 27 is_stmt 0 view .LVU464
 1450 0084 D0F83C28 		ldr	r2, [r0, #2108]
 652:Drivers/STM32F4xx_HAL_Driver/Src/stm32f4xx_ll_usb.c ****   }
 1451              		.loc 1 652 75 view .LVU465
 1452 0088 0B78     		ldrb	r3, [r1]	@ zero_extendqisi2
 652:Drivers/STM32F4xx_HAL_Driver/Src/stm32f4xx_ll_usb.c ****   }
ARM GAS  /tmp/ccELzqP8.s 			page 59


 1453              		.loc 1 652 81 view .LVU466
 1454 008a 03F00F01 		and	r1, r3, #15
 1455              	.LVL113:
 652:Drivers/STM32F4xx_HAL_Driver/Src/stm32f4xx_ll_usb.c ****   }
 1456              		.loc 1 652 54 view .LVU467
 1457 008e 0123     		movs	r3, #1
 1458 0090 8B40     		lsls	r3, r3, r1
 652:Drivers/STM32F4xx_HAL_Driver/Src/stm32f4xx_ll_usb.c ****   }
 1459              		.loc 1 652 52 view .LVU468
 1460 0092 9BB2     		uxth	r3, r3
 652:Drivers/STM32F4xx_HAL_Driver/Src/stm32f4xx_ll_usb.c ****   }
 1461              		.loc 1 652 27 view .LVU469
 1462 0094 1343     		orrs	r3, r3, r2
 1463 0096 C0F83C38 		str	r3, [r0, #2108]
 1464 009a D8E7     		b	.L99
 1465              		.cfi_endproc
 1466              	.LFE145:
 1468              		.section	.text.USB_DeactivateEndpoint,"ax",%progbits
 1469              		.align	1
 1470              		.global	USB_DeactivateEndpoint
 1471              		.syntax unified
 1472              		.thumb
 1473              		.thumb_func
 1474              		.fpu fpv4-sp-d16
 1476              	USB_DeactivateEndpoint:
 1477              	.LVL114:
 1478              	.LFB146:
 676:Drivers/STM32F4xx_HAL_Driver/Src/stm32f4xx_ll_usb.c ****   uint32_t USBx_BASE = (uint32_t)USBx;
 1479              		.loc 1 676 1 is_stmt 1 view -0
 1480              		.cfi_startproc
 1481              		@ args = 0, pretend = 0, frame = 0
 1482              		@ frame_needed = 0, uses_anonymous_args = 0
 1483              		@ link register save eliminated.
 676:Drivers/STM32F4xx_HAL_Driver/Src/stm32f4xx_ll_usb.c ****   uint32_t USBx_BASE = (uint32_t)USBx;
 1484              		.loc 1 676 1 is_stmt 0 view .LVU471
 1485 0000 30B4     		push	{r4, r5}
 1486              	.LCFI21:
 1487              		.cfi_def_cfa_offset 8
 1488              		.cfi_offset 4, -8
 1489              		.cfi_offset 5, -4
 677:Drivers/STM32F4xx_HAL_Driver/Src/stm32f4xx_ll_usb.c ****   uint32_t epnum = (uint32_t)ep->num;
 1490              		.loc 1 677 3 is_stmt 1 view .LVU472
 1491              	.LVL115:
 678:Drivers/STM32F4xx_HAL_Driver/Src/stm32f4xx_ll_usb.c **** 
 1492              		.loc 1 678 3 view .LVU473
 678:Drivers/STM32F4xx_HAL_Driver/Src/stm32f4xx_ll_usb.c **** 
 1493              		.loc 1 678 32 is_stmt 0 view .LVU474
 1494 0002 0B78     		ldrb	r3, [r1]	@ zero_extendqisi2
 1495              	.LVL116:
 681:Drivers/STM32F4xx_HAL_Driver/Src/stm32f4xx_ll_usb.c ****   {
 1496              		.loc 1 681 3 is_stmt 1 view .LVU475
 681:Drivers/STM32F4xx_HAL_Driver/Src/stm32f4xx_ll_usb.c ****   {
 1497              		.loc 1 681 9 is_stmt 0 view .LVU476
 1498 0004 4A78     		ldrb	r2, [r1, #1]	@ zero_extendqisi2
 681:Drivers/STM32F4xx_HAL_Driver/Src/stm32f4xx_ll_usb.c ****   {
 1499              		.loc 1 681 6 view .LVU477
 1500 0006 012A     		cmp	r2, #1
ARM GAS  /tmp/ccELzqP8.s 			page 60


 1501 0008 26D0     		beq	.L109
 699:Drivers/STM32F4xx_HAL_Driver/Src/stm32f4xx_ll_usb.c ****     {
 1502              		.loc 1 699 5 is_stmt 1 view .LVU478
 699:Drivers/STM32F4xx_HAL_Driver/Src/stm32f4xx_ll_usb.c ****     {
 1503              		.loc 1 699 10 is_stmt 0 view .LVU479
 1504 000a 00EB4313 		add	r3, r0, r3, lsl #5
 1505              	.LVL117:
 699:Drivers/STM32F4xx_HAL_Driver/Src/stm32f4xx_ll_usb.c ****     {
 1506              		.loc 1 699 27 view .LVU480
 1507 000e D3F8002B 		ldr	r2, [r3, #2816]
 699:Drivers/STM32F4xx_HAL_Driver/Src/stm32f4xx_ll_usb.c ****     {
 1508              		.loc 1 699 8 view .LVU481
 1509 0012 002A     		cmp	r2, #0
 1510 0014 52DB     		blt	.L110
 1511              	.LVL118:
 1512              	.L107:
 705:Drivers/STM32F4xx_HAL_Driver/Src/stm32f4xx_ll_usb.c ****     USBx_DEVICE->DAINTMSK &= ~(USB_OTG_DAINTMSK_OEPM & ((uint32_t)(1UL << (ep->num & EP_ADDR_MSK)) 
 1513              		.loc 1 705 5 is_stmt 1 view .LVU482
 705:Drivers/STM32F4xx_HAL_Driver/Src/stm32f4xx_ll_usb.c ****     USBx_DEVICE->DAINTMSK &= ~(USB_OTG_DAINTMSK_OEPM & ((uint32_t)(1UL << (ep->num & EP_ADDR_MSK)) 
 1514              		.loc 1 705 27 is_stmt 0 view .LVU483
 1515 0016 D0F83C48 		ldr	r4, [r0, #2108]
 705:Drivers/STM32F4xx_HAL_Driver/Src/stm32f4xx_ll_usb.c ****     USBx_DEVICE->DAINTMSK &= ~(USB_OTG_DAINTMSK_OEPM & ((uint32_t)(1UL << (ep->num & EP_ADDR_MSK)) 
 1516              		.loc 1 705 78 view .LVU484
 1517 001a 0A78     		ldrb	r2, [r1]	@ zero_extendqisi2
 705:Drivers/STM32F4xx_HAL_Driver/Src/stm32f4xx_ll_usb.c ****     USBx_DEVICE->DAINTMSK &= ~(USB_OTG_DAINTMSK_OEPM & ((uint32_t)(1UL << (ep->num & EP_ADDR_MSK)) 
 1518              		.loc 1 705 84 view .LVU485
 1519 001c 02F00F02 		and	r2, r2, #15
 705:Drivers/STM32F4xx_HAL_Driver/Src/stm32f4xx_ll_usb.c ****     USBx_DEVICE->DAINTMSK &= ~(USB_OTG_DAINTMSK_OEPM & ((uint32_t)(1UL << (ep->num & EP_ADDR_MSK)) 
 1520              		.loc 1 705 57 view .LVU486
 1521 0020 4FF0010C 		mov	ip, #1
 1522 0024 0CFA02F2 		lsl	r2, ip, r2
 705:Drivers/STM32F4xx_HAL_Driver/Src/stm32f4xx_ll_usb.c ****     USBx_DEVICE->DAINTMSK &= ~(USB_OTG_DAINTMSK_OEPM & ((uint32_t)(1UL << (ep->num & EP_ADDR_MSK)) 
 1523              		.loc 1 705 27 view .LVU487
 1524 0028 24EA0242 		bic	r2, r4, r2, lsl #16
 1525 002c C0F83C28 		str	r2, [r0, #2108]
 706:Drivers/STM32F4xx_HAL_Driver/Src/stm32f4xx_ll_usb.c ****     USBx_OUTEP(epnum)->DOEPCTL &= ~(USB_OTG_DOEPCTL_USBAEP |
 1526              		.loc 1 706 5 is_stmt 1 view .LVU488
 706:Drivers/STM32F4xx_HAL_Driver/Src/stm32f4xx_ll_usb.c ****     USBx_OUTEP(epnum)->DOEPCTL &= ~(USB_OTG_DOEPCTL_USBAEP |
 1527              		.loc 1 706 27 is_stmt 0 view .LVU489
 1528 0030 D0F81C28 		ldr	r2, [r0, #2076]
 706:Drivers/STM32F4xx_HAL_Driver/Src/stm32f4xx_ll_usb.c ****     USBx_OUTEP(epnum)->DOEPCTL &= ~(USB_OTG_DOEPCTL_USBAEP |
 1529              		.loc 1 706 78 view .LVU490
 1530 0034 0978     		ldrb	r1, [r1]	@ zero_extendqisi2
 1531              	.LVL119:
 706:Drivers/STM32F4xx_HAL_Driver/Src/stm32f4xx_ll_usb.c ****     USBx_OUTEP(epnum)->DOEPCTL &= ~(USB_OTG_DOEPCTL_USBAEP |
 1532              		.loc 1 706 84 view .LVU491
 1533 0036 01F00F01 		and	r1, r1, #15
 706:Drivers/STM32F4xx_HAL_Driver/Src/stm32f4xx_ll_usb.c ****     USBx_OUTEP(epnum)->DOEPCTL &= ~(USB_OTG_DOEPCTL_USBAEP |
 1534              		.loc 1 706 57 view .LVU492
 1535 003a 0CFA01FC 		lsl	ip, ip, r1
 706:Drivers/STM32F4xx_HAL_Driver/Src/stm32f4xx_ll_usb.c ****     USBx_OUTEP(epnum)->DOEPCTL &= ~(USB_OTG_DOEPCTL_USBAEP |
 1536              		.loc 1 706 27 view .LVU493
 1537 003e 22EA0C42 		bic	r2, r2, ip, lsl #16
 1538 0042 C0F81C28 		str	r2, [r0, #2076]
 707:Drivers/STM32F4xx_HAL_Driver/Src/stm32f4xx_ll_usb.c ****                                     USB_OTG_DOEPCTL_MPSIZ |
 1539              		.loc 1 707 5 is_stmt 1 view .LVU494
 707:Drivers/STM32F4xx_HAL_Driver/Src/stm32f4xx_ll_usb.c ****                                     USB_OTG_DOEPCTL_MPSIZ |
ARM GAS  /tmp/ccELzqP8.s 			page 61


 1540              		.loc 1 707 32 is_stmt 0 view .LVU495
 1541 0046 D3F8001B 		ldr	r1, [r3, #2816]
 1542 004a 234A     		ldr	r2, .L112
 1543 004c 0A40     		ands	r2, r2, r1
 1544 004e C3F8002B 		str	r2, [r3, #2816]
 1545              	.L106:
 713:Drivers/STM32F4xx_HAL_Driver/Src/stm32f4xx_ll_usb.c **** }
 1546              		.loc 1 713 3 is_stmt 1 view .LVU496
 714:Drivers/STM32F4xx_HAL_Driver/Src/stm32f4xx_ll_usb.c **** 
 1547              		.loc 1 714 1 is_stmt 0 view .LVU497
 1548 0052 0020     		movs	r0, #0
 1549              	.LVL120:
 714:Drivers/STM32F4xx_HAL_Driver/Src/stm32f4xx_ll_usb.c **** 
 1550              		.loc 1 714 1 view .LVU498
 1551 0054 30BC     		pop	{r4, r5}
 1552              	.LCFI22:
 1553              		.cfi_remember_state
 1554              		.cfi_restore 5
 1555              		.cfi_restore 4
 1556              		.cfi_def_cfa_offset 0
 1557 0056 7047     		bx	lr
 1558              	.LVL121:
 1559              	.L109:
 1560              	.LCFI23:
 1561              		.cfi_restore_state
 683:Drivers/STM32F4xx_HAL_Driver/Src/stm32f4xx_ll_usb.c ****     {
 1562              		.loc 1 683 5 is_stmt 1 view .LVU499
 683:Drivers/STM32F4xx_HAL_Driver/Src/stm32f4xx_ll_usb.c ****     {
 1563              		.loc 1 683 10 is_stmt 0 view .LVU500
 1564 0058 00EB4313 		add	r3, r0, r3, lsl #5
 1565              	.LVL122:
 683:Drivers/STM32F4xx_HAL_Driver/Src/stm32f4xx_ll_usb.c ****     {
 1566              		.loc 1 683 26 view .LVU501
 1567 005c D3F80029 		ldr	r2, [r3, #2304]
 683:Drivers/STM32F4xx_HAL_Driver/Src/stm32f4xx_ll_usb.c ****     {
 1568              		.loc 1 683 8 view .LVU502
 1569 0060 002A     		cmp	r2, #0
 1570 0062 1EDB     		blt	.L111
 1571              	.LVL123:
 1572              	.L105:
 689:Drivers/STM32F4xx_HAL_Driver/Src/stm32f4xx_ll_usb.c ****     USBx_DEVICE->DAINTMSK &= ~(USB_OTG_DAINTMSK_IEPM & (uint32_t)(1UL << (ep->num & EP_ADDR_MSK)));
 1573              		.loc 1 689 5 is_stmt 1 view .LVU503
 689:Drivers/STM32F4xx_HAL_Driver/Src/stm32f4xx_ll_usb.c ****     USBx_DEVICE->DAINTMSK &= ~(USB_OTG_DAINTMSK_IEPM & (uint32_t)(1UL << (ep->num & EP_ADDR_MSK)));
 1574              		.loc 1 689 27 is_stmt 0 view .LVU504
 1575 0064 D0F83C58 		ldr	r5, [r0, #2108]
 689:Drivers/STM32F4xx_HAL_Driver/Src/stm32f4xx_ll_usb.c ****     USBx_DEVICE->DAINTMSK &= ~(USB_OTG_DAINTMSK_IEPM & (uint32_t)(1UL << (ep->num & EP_ADDR_MSK)));
 1576              		.loc 1 689 77 view .LVU505
 1577 0068 0A78     		ldrb	r2, [r1]	@ zero_extendqisi2
 689:Drivers/STM32F4xx_HAL_Driver/Src/stm32f4xx_ll_usb.c ****     USBx_DEVICE->DAINTMSK &= ~(USB_OTG_DAINTMSK_IEPM & (uint32_t)(1UL << (ep->num & EP_ADDR_MSK)));
 1578              		.loc 1 689 83 view .LVU506
 1579 006a 02F00F02 		and	r2, r2, #15
 689:Drivers/STM32F4xx_HAL_Driver/Src/stm32f4xx_ll_usb.c ****     USBx_DEVICE->DAINTMSK &= ~(USB_OTG_DAINTMSK_IEPM & (uint32_t)(1UL << (ep->num & EP_ADDR_MSK)));
 1580              		.loc 1 689 56 view .LVU507
 1581 006e 0124     		movs	r4, #1
 1582 0070 04FA02F2 		lsl	r2, r4, r2
 689:Drivers/STM32F4xx_HAL_Driver/Src/stm32f4xx_ll_usb.c ****     USBx_DEVICE->DAINTMSK &= ~(USB_OTG_DAINTMSK_IEPM & (uint32_t)(1UL << (ep->num & EP_ADDR_MSK)));
 1583              		.loc 1 689 54 view .LVU508
ARM GAS  /tmp/ccELzqP8.s 			page 62


 1584 0074 92B2     		uxth	r2, r2
 689:Drivers/STM32F4xx_HAL_Driver/Src/stm32f4xx_ll_usb.c ****     USBx_DEVICE->DAINTMSK &= ~(USB_OTG_DAINTMSK_IEPM & (uint32_t)(1UL << (ep->num & EP_ADDR_MSK)));
 1585              		.loc 1 689 27 view .LVU509
 1586 0076 25EA0202 		bic	r2, r5, r2
 1587 007a C0F83C28 		str	r2, [r0, #2108]
 690:Drivers/STM32F4xx_HAL_Driver/Src/stm32f4xx_ll_usb.c ****     USBx_INEP(epnum)->DIEPCTL &= ~(USB_OTG_DIEPCTL_USBAEP |
 1588              		.loc 1 690 5 is_stmt 1 view .LVU510
 690:Drivers/STM32F4xx_HAL_Driver/Src/stm32f4xx_ll_usb.c ****     USBx_INEP(epnum)->DIEPCTL &= ~(USB_OTG_DIEPCTL_USBAEP |
 1589              		.loc 1 690 27 is_stmt 0 view .LVU511
 1590 007e D0F81C28 		ldr	r2, [r0, #2076]
 690:Drivers/STM32F4xx_HAL_Driver/Src/stm32f4xx_ll_usb.c ****     USBx_INEP(epnum)->DIEPCTL &= ~(USB_OTG_DIEPCTL_USBAEP |
 1591              		.loc 1 690 77 view .LVU512
 1592 0082 0978     		ldrb	r1, [r1]	@ zero_extendqisi2
 1593              	.LVL124:
 690:Drivers/STM32F4xx_HAL_Driver/Src/stm32f4xx_ll_usb.c ****     USBx_INEP(epnum)->DIEPCTL &= ~(USB_OTG_DIEPCTL_USBAEP |
 1594              		.loc 1 690 83 view .LVU513
 1595 0084 01F00F01 		and	r1, r1, #15
 690:Drivers/STM32F4xx_HAL_Driver/Src/stm32f4xx_ll_usb.c ****     USBx_INEP(epnum)->DIEPCTL &= ~(USB_OTG_DIEPCTL_USBAEP |
 1596              		.loc 1 690 56 view .LVU514
 1597 0088 8C40     		lsls	r4, r4, r1
 690:Drivers/STM32F4xx_HAL_Driver/Src/stm32f4xx_ll_usb.c ****     USBx_INEP(epnum)->DIEPCTL &= ~(USB_OTG_DIEPCTL_USBAEP |
 1598              		.loc 1 690 54 view .LVU515
 1599 008a A4B2     		uxth	r4, r4
 690:Drivers/STM32F4xx_HAL_Driver/Src/stm32f4xx_ll_usb.c ****     USBx_INEP(epnum)->DIEPCTL &= ~(USB_OTG_DIEPCTL_USBAEP |
 1600              		.loc 1 690 27 view .LVU516
 1601 008c 22EA0404 		bic	r4, r2, r4
 1602 0090 C0F81C48 		str	r4, [r0, #2076]
 691:Drivers/STM32F4xx_HAL_Driver/Src/stm32f4xx_ll_usb.c ****                                    USB_OTG_DIEPCTL_MPSIZ |
 1603              		.loc 1 691 5 is_stmt 1 view .LVU517
 691:Drivers/STM32F4xx_HAL_Driver/Src/stm32f4xx_ll_usb.c ****                                    USB_OTG_DIEPCTL_MPSIZ |
 1604              		.loc 1 691 31 is_stmt 0 view .LVU518
 1605 0094 D3F80019 		ldr	r1, [r3, #2304]
 1606 0098 104A     		ldr	r2, .L112+4
 1607 009a 0A40     		ands	r2, r2, r1
 1608 009c C3F80029 		str	r2, [r3, #2304]
 1609 00a0 D7E7     		b	.L106
 1610              	.LVL125:
 1611              	.L111:
 685:Drivers/STM32F4xx_HAL_Driver/Src/stm32f4xx_ll_usb.c ****       USBx_INEP(epnum)->DIEPCTL |= USB_OTG_DIEPCTL_EPDIS;
 1612              		.loc 1 685 7 is_stmt 1 view .LVU519
 685:Drivers/STM32F4xx_HAL_Driver/Src/stm32f4xx_ll_usb.c ****       USBx_INEP(epnum)->DIEPCTL |= USB_OTG_DIEPCTL_EPDIS;
 1613              		.loc 1 685 33 is_stmt 0 view .LVU520
 1614 00a2 D3F80029 		ldr	r2, [r3, #2304]
 1615 00a6 42F00062 		orr	r2, r2, #134217728
 1616 00aa C3F80029 		str	r2, [r3, #2304]
 1617              	.LVL126:
 686:Drivers/STM32F4xx_HAL_Driver/Src/stm32f4xx_ll_usb.c ****     }
 1618              		.loc 1 686 7 is_stmt 1 view .LVU521
 686:Drivers/STM32F4xx_HAL_Driver/Src/stm32f4xx_ll_usb.c ****     }
 1619              		.loc 1 686 33 is_stmt 0 view .LVU522
 1620 00ae D3F80029 		ldr	r2, [r3, #2304]
 1621 00b2 42F08042 		orr	r2, r2, #1073741824
 1622 00b6 C3F80029 		str	r2, [r3, #2304]
 1623 00ba D3E7     		b	.L105
 1624              	.LVL127:
 1625              	.L110:
 701:Drivers/STM32F4xx_HAL_Driver/Src/stm32f4xx_ll_usb.c ****       USBx_OUTEP(epnum)->DOEPCTL |= USB_OTG_DOEPCTL_EPDIS;
ARM GAS  /tmp/ccELzqP8.s 			page 63


 1626              		.loc 1 701 7 is_stmt 1 view .LVU523
 701:Drivers/STM32F4xx_HAL_Driver/Src/stm32f4xx_ll_usb.c ****       USBx_OUTEP(epnum)->DOEPCTL |= USB_OTG_DOEPCTL_EPDIS;
 1627              		.loc 1 701 34 is_stmt 0 view .LVU524
 1628 00bc D3F8002B 		ldr	r2, [r3, #2816]
 1629 00c0 42F00062 		orr	r2, r2, #134217728
 1630 00c4 C3F8002B 		str	r2, [r3, #2816]
 1631              	.LVL128:
 702:Drivers/STM32F4xx_HAL_Driver/Src/stm32f4xx_ll_usb.c ****     }
 1632              		.loc 1 702 7 is_stmt 1 view .LVU525
 702:Drivers/STM32F4xx_HAL_Driver/Src/stm32f4xx_ll_usb.c ****     }
 1633              		.loc 1 702 34 is_stmt 0 view .LVU526
 1634 00c8 D3F8002B 		ldr	r2, [r3, #2816]
 1635 00cc 42F08042 		orr	r2, r2, #1073741824
 1636 00d0 C3F8002B 		str	r2, [r3, #2816]
 1637 00d4 9FE7     		b	.L107
 1638              	.L113:
 1639 00d6 00BF     		.align	2
 1640              	.L112:
 1641 00d8 0078F3EF 		.word	-269256704
 1642 00dc 007833EC 		.word	-332171264
 1643              		.cfi_endproc
 1644              	.LFE146:
 1646              		.section	.text.USB_DeactivateDedicatedEndpoint,"ax",%progbits
 1647              		.align	1
 1648              		.global	USB_DeactivateDedicatedEndpoint
 1649              		.syntax unified
 1650              		.thumb
 1651              		.thumb_func
 1652              		.fpu fpv4-sp-d16
 1654              	USB_DeactivateDedicatedEndpoint:
 1655              	.LVL129:
 1656              	.LFB147:
 723:Drivers/STM32F4xx_HAL_Driver/Src/stm32f4xx_ll_usb.c ****   uint32_t USBx_BASE = (uint32_t)USBx;
 1657              		.loc 1 723 1 is_stmt 1 view -0
 1658              		.cfi_startproc
 1659              		@ args = 0, pretend = 0, frame = 0
 1660              		@ frame_needed = 0, uses_anonymous_args = 0
 1661              		@ link register save eliminated.
 724:Drivers/STM32F4xx_HAL_Driver/Src/stm32f4xx_ll_usb.c ****   uint32_t epnum = (uint32_t)ep->num;
 1662              		.loc 1 724 3 view .LVU528
 725:Drivers/STM32F4xx_HAL_Driver/Src/stm32f4xx_ll_usb.c **** 
 1663              		.loc 1 725 3 view .LVU529
 725:Drivers/STM32F4xx_HAL_Driver/Src/stm32f4xx_ll_usb.c **** 
 1664              		.loc 1 725 32 is_stmt 0 view .LVU530
 1665 0000 0B78     		ldrb	r3, [r1]	@ zero_extendqisi2
 1666              	.LVL130:
 728:Drivers/STM32F4xx_HAL_Driver/Src/stm32f4xx_ll_usb.c ****   {
 1667              		.loc 1 728 3 is_stmt 1 view .LVU531
 728:Drivers/STM32F4xx_HAL_Driver/Src/stm32f4xx_ll_usb.c ****   {
 1668              		.loc 1 728 9 is_stmt 0 view .LVU532
 1669 0002 4A78     		ldrb	r2, [r1, #1]	@ zero_extendqisi2
 728:Drivers/STM32F4xx_HAL_Driver/Src/stm32f4xx_ll_usb.c ****   {
 1670              		.loc 1 728 6 view .LVU533
 1671 0004 012A     		cmp	r2, #1
 1672 0006 18D0     		beq	.L119
 741:Drivers/STM32F4xx_HAL_Driver/Src/stm32f4xx_ll_usb.c ****     {
 1673              		.loc 1 741 5 is_stmt 1 view .LVU534
ARM GAS  /tmp/ccELzqP8.s 			page 64


 741:Drivers/STM32F4xx_HAL_Driver/Src/stm32f4xx_ll_usb.c ****     {
 1674              		.loc 1 741 10 is_stmt 0 view .LVU535
 1675 0008 00EB4313 		add	r3, r0, r3, lsl #5
 1676              	.LVL131:
 741:Drivers/STM32F4xx_HAL_Driver/Src/stm32f4xx_ll_usb.c ****     {
 1677              		.loc 1 741 27 view .LVU536
 1678 000c D3F8002B 		ldr	r2, [r3, #2816]
 741:Drivers/STM32F4xx_HAL_Driver/Src/stm32f4xx_ll_usb.c ****     {
 1679              		.loc 1 741 8 view .LVU537
 1680 0010 002A     		cmp	r2, #0
 1681 0012 38DB     		blt	.L120
 1682              	.LVL132:
 1683              	.L118:
 747:Drivers/STM32F4xx_HAL_Driver/Src/stm32f4xx_ll_usb.c ****     USBx_DEVICE->DAINTMSK &= ~(USB_OTG_DAINTMSK_OEPM & ((uint32_t)(1UL << (ep->num & EP_ADDR_MSK)) 
 1684              		.loc 1 747 5 is_stmt 1 view .LVU538
 747:Drivers/STM32F4xx_HAL_Driver/Src/stm32f4xx_ll_usb.c ****     USBx_DEVICE->DAINTMSK &= ~(USB_OTG_DAINTMSK_OEPM & ((uint32_t)(1UL << (ep->num & EP_ADDR_MSK)) 
 1685              		.loc 1 747 32 is_stmt 0 view .LVU539
 1686 0014 D3F8002B 		ldr	r2, [r3, #2816]
 1687 0018 22F40042 		bic	r2, r2, #32768
 1688 001c C3F8002B 		str	r2, [r3, #2816]
 748:Drivers/STM32F4xx_HAL_Driver/Src/stm32f4xx_ll_usb.c ****   }
 1689              		.loc 1 748 5 is_stmt 1 view .LVU540
 748:Drivers/STM32F4xx_HAL_Driver/Src/stm32f4xx_ll_usb.c ****   }
 1690              		.loc 1 748 27 is_stmt 0 view .LVU541
 1691 0020 D0F81C38 		ldr	r3, [r0, #2076]
 748:Drivers/STM32F4xx_HAL_Driver/Src/stm32f4xx_ll_usb.c ****   }
 1692              		.loc 1 748 78 view .LVU542
 1693 0024 0A78     		ldrb	r2, [r1]	@ zero_extendqisi2
 748:Drivers/STM32F4xx_HAL_Driver/Src/stm32f4xx_ll_usb.c ****   }
 1694              		.loc 1 748 84 view .LVU543
 1695 0026 02F00F01 		and	r1, r2, #15
 1696              	.LVL133:
 748:Drivers/STM32F4xx_HAL_Driver/Src/stm32f4xx_ll_usb.c ****   }
 1697              		.loc 1 748 57 view .LVU544
 1698 002a 0122     		movs	r2, #1
 1699 002c 8A40     		lsls	r2, r2, r1
 748:Drivers/STM32F4xx_HAL_Driver/Src/stm32f4xx_ll_usb.c ****   }
 1700              		.loc 1 748 27 view .LVU545
 1701 002e 23EA0243 		bic	r3, r3, r2, lsl #16
 1702 0032 C0F81C38 		str	r3, [r0, #2076]
 1703              	.L117:
 751:Drivers/STM32F4xx_HAL_Driver/Src/stm32f4xx_ll_usb.c **** }
 1704              		.loc 1 751 3 is_stmt 1 view .LVU546
 752:Drivers/STM32F4xx_HAL_Driver/Src/stm32f4xx_ll_usb.c **** 
 1705              		.loc 1 752 1 is_stmt 0 view .LVU547
 1706 0036 0020     		movs	r0, #0
 1707              	.LVL134:
 752:Drivers/STM32F4xx_HAL_Driver/Src/stm32f4xx_ll_usb.c **** 
 1708              		.loc 1 752 1 view .LVU548
 1709 0038 7047     		bx	lr
 1710              	.LVL135:
 1711              	.L119:
 730:Drivers/STM32F4xx_HAL_Driver/Src/stm32f4xx_ll_usb.c ****     {
 1712              		.loc 1 730 5 is_stmt 1 view .LVU549
 730:Drivers/STM32F4xx_HAL_Driver/Src/stm32f4xx_ll_usb.c ****     {
 1713              		.loc 1 730 10 is_stmt 0 view .LVU550
 1714 003a 00EB4313 		add	r3, r0, r3, lsl #5
ARM GAS  /tmp/ccELzqP8.s 			page 65


 1715              	.LVL136:
 730:Drivers/STM32F4xx_HAL_Driver/Src/stm32f4xx_ll_usb.c ****     {
 1716              		.loc 1 730 26 view .LVU551
 1717 003e D3F80029 		ldr	r2, [r3, #2304]
 730:Drivers/STM32F4xx_HAL_Driver/Src/stm32f4xx_ll_usb.c ****     {
 1718              		.loc 1 730 8 view .LVU552
 1719 0042 002A     		cmp	r2, #0
 1720 0044 12DB     		blt	.L121
 1721              	.LVL137:
 1722              	.L116:
 736:Drivers/STM32F4xx_HAL_Driver/Src/stm32f4xx_ll_usb.c ****     USBx_DEVICE->DAINTMSK &= ~(USB_OTG_DAINTMSK_IEPM & (uint32_t)(1UL << (ep->num & EP_ADDR_MSK)));
 1723              		.loc 1 736 5 is_stmt 1 view .LVU553
 736:Drivers/STM32F4xx_HAL_Driver/Src/stm32f4xx_ll_usb.c ****     USBx_DEVICE->DAINTMSK &= ~(USB_OTG_DAINTMSK_IEPM & (uint32_t)(1UL << (ep->num & EP_ADDR_MSK)));
 1724              		.loc 1 736 31 is_stmt 0 view .LVU554
 1725 0046 D3F80029 		ldr	r2, [r3, #2304]
 1726 004a 22F40042 		bic	r2, r2, #32768
 1727 004e C3F80029 		str	r2, [r3, #2304]
 737:Drivers/STM32F4xx_HAL_Driver/Src/stm32f4xx_ll_usb.c ****   }
 1728              		.loc 1 737 5 is_stmt 1 view .LVU555
 737:Drivers/STM32F4xx_HAL_Driver/Src/stm32f4xx_ll_usb.c ****   }
 1729              		.loc 1 737 27 is_stmt 0 view .LVU556
 1730 0052 D0F81C28 		ldr	r2, [r0, #2076]
 737:Drivers/STM32F4xx_HAL_Driver/Src/stm32f4xx_ll_usb.c ****   }
 1731              		.loc 1 737 77 view .LVU557
 1732 0056 0B78     		ldrb	r3, [r1]	@ zero_extendqisi2
 737:Drivers/STM32F4xx_HAL_Driver/Src/stm32f4xx_ll_usb.c ****   }
 1733              		.loc 1 737 83 view .LVU558
 1734 0058 03F00F01 		and	r1, r3, #15
 1735              	.LVL138:
 737:Drivers/STM32F4xx_HAL_Driver/Src/stm32f4xx_ll_usb.c ****   }
 1736              		.loc 1 737 56 view .LVU559
 1737 005c 0123     		movs	r3, #1
 1738 005e 8B40     		lsls	r3, r3, r1
 737:Drivers/STM32F4xx_HAL_Driver/Src/stm32f4xx_ll_usb.c ****   }
 1739              		.loc 1 737 54 view .LVU560
 1740 0060 9BB2     		uxth	r3, r3
 737:Drivers/STM32F4xx_HAL_Driver/Src/stm32f4xx_ll_usb.c ****   }
 1741              		.loc 1 737 27 view .LVU561
 1742 0062 22EA0303 		bic	r3, r2, r3
 1743 0066 C0F81C38 		str	r3, [r0, #2076]
 1744 006a E4E7     		b	.L117
 1745              	.LVL139:
 1746              	.L121:
 732:Drivers/STM32F4xx_HAL_Driver/Src/stm32f4xx_ll_usb.c ****       USBx_INEP(epnum)->DIEPCTL  |= USB_OTG_DIEPCTL_EPDIS;
 1747              		.loc 1 732 7 is_stmt 1 view .LVU562
 732:Drivers/STM32F4xx_HAL_Driver/Src/stm32f4xx_ll_usb.c ****       USBx_INEP(epnum)->DIEPCTL  |= USB_OTG_DIEPCTL_EPDIS;
 1748              		.loc 1 732 34 is_stmt 0 view .LVU563
 1749 006c D3F80029 		ldr	r2, [r3, #2304]
 1750 0070 42F00062 		orr	r2, r2, #134217728
 1751 0074 C3F80029 		str	r2, [r3, #2304]
 1752              	.LVL140:
 733:Drivers/STM32F4xx_HAL_Driver/Src/stm32f4xx_ll_usb.c ****     }
 1753              		.loc 1 733 7 is_stmt 1 view .LVU564
 733:Drivers/STM32F4xx_HAL_Driver/Src/stm32f4xx_ll_usb.c ****     }
 1754              		.loc 1 733 34 is_stmt 0 view .LVU565
 1755 0078 D3F80029 		ldr	r2, [r3, #2304]
 1756 007c 42F08042 		orr	r2, r2, #1073741824
ARM GAS  /tmp/ccELzqP8.s 			page 66


 1757 0080 C3F80029 		str	r2, [r3, #2304]
 1758 0084 DFE7     		b	.L116
 1759              	.LVL141:
 1760              	.L120:
 743:Drivers/STM32F4xx_HAL_Driver/Src/stm32f4xx_ll_usb.c ****       USBx_OUTEP(epnum)->DOEPCTL  |= USB_OTG_DOEPCTL_EPDIS;
 1761              		.loc 1 743 7 is_stmt 1 view .LVU566
 743:Drivers/STM32F4xx_HAL_Driver/Src/stm32f4xx_ll_usb.c ****       USBx_OUTEP(epnum)->DOEPCTL  |= USB_OTG_DOEPCTL_EPDIS;
 1762              		.loc 1 743 35 is_stmt 0 view .LVU567
 1763 0086 D3F8002B 		ldr	r2, [r3, #2816]
 1764 008a 42F00062 		orr	r2, r2, #134217728
 1765 008e C3F8002B 		str	r2, [r3, #2816]
 1766              	.LVL142:
 744:Drivers/STM32F4xx_HAL_Driver/Src/stm32f4xx_ll_usb.c ****     }
 1767              		.loc 1 744 7 is_stmt 1 view .LVU568
 744:Drivers/STM32F4xx_HAL_Driver/Src/stm32f4xx_ll_usb.c ****     }
 1768              		.loc 1 744 35 is_stmt 0 view .LVU569
 1769 0092 D3F8002B 		ldr	r2, [r3, #2816]
 1770 0096 42F08042 		orr	r2, r2, #1073741824
 1771 009a C3F8002B 		str	r2, [r3, #2816]
 1772 009e B9E7     		b	.L118
 1773              		.cfi_endproc
 1774              	.LFE147:
 1776              		.section	.text.USB_EPStopXfer,"ax",%progbits
 1777              		.align	1
 1778              		.global	USB_EPStopXfer
 1779              		.syntax unified
 1780              		.thumb
 1781              		.thumb_func
 1782              		.fpu fpv4-sp-d16
 1784              	USB_EPStopXfer:
 1785              	.LVL143:
 1786              	.LFB149:
 937:Drivers/STM32F4xx_HAL_Driver/Src/stm32f4xx_ll_usb.c ****   __IO uint32_t count = 0U;
 1787              		.loc 1 937 1 is_stmt 1 view -0
 1788              		.cfi_startproc
 1789              		@ args = 0, pretend = 0, frame = 8
 1790              		@ frame_needed = 0, uses_anonymous_args = 0
 1791              		@ link register save eliminated.
 937:Drivers/STM32F4xx_HAL_Driver/Src/stm32f4xx_ll_usb.c ****   __IO uint32_t count = 0U;
 1792              		.loc 1 937 1 is_stmt 0 view .LVU571
 1793 0000 10B4     		push	{r4}
 1794              	.LCFI24:
 1795              		.cfi_def_cfa_offset 4
 1796              		.cfi_offset 4, -4
 1797 0002 83B0     		sub	sp, sp, #12
 1798              	.LCFI25:
 1799              		.cfi_def_cfa_offset 16
 1800 0004 0246     		mov	r2, r0
 938:Drivers/STM32F4xx_HAL_Driver/Src/stm32f4xx_ll_usb.c ****   HAL_StatusTypeDef ret = HAL_OK;
 1801              		.loc 1 938 3 is_stmt 1 view .LVU572
 938:Drivers/STM32F4xx_HAL_Driver/Src/stm32f4xx_ll_usb.c ****   HAL_StatusTypeDef ret = HAL_OK;
 1802              		.loc 1 938 17 is_stmt 0 view .LVU573
 1803 0006 0023     		movs	r3, #0
 1804 0008 0193     		str	r3, [sp, #4]
 939:Drivers/STM32F4xx_HAL_Driver/Src/stm32f4xx_ll_usb.c ****   uint32_t USBx_BASE = (uint32_t)USBx;
 1805              		.loc 1 939 3 is_stmt 1 view .LVU574
 1806              	.LVL144:
ARM GAS  /tmp/ccELzqP8.s 			page 67


 940:Drivers/STM32F4xx_HAL_Driver/Src/stm32f4xx_ll_usb.c **** 
 1807              		.loc 1 940 3 view .LVU575
 943:Drivers/STM32F4xx_HAL_Driver/Src/stm32f4xx_ll_usb.c ****   {
 1808              		.loc 1 943 3 view .LVU576
 943:Drivers/STM32F4xx_HAL_Driver/Src/stm32f4xx_ll_usb.c ****   {
 1809              		.loc 1 943 9 is_stmt 0 view .LVU577
 1810 000a 4878     		ldrb	r0, [r1, #1]	@ zero_extendqisi2
 1811              	.LVL145:
 943:Drivers/STM32F4xx_HAL_Driver/Src/stm32f4xx_ll_usb.c ****   {
 1812              		.loc 1 943 6 view .LVU578
 1813 000c 0128     		cmp	r0, #1
 1814 000e 0BD0     		beq	.L131
 965:Drivers/STM32F4xx_HAL_Driver/Src/stm32f4xx_ll_usb.c ****     {
 1815              		.loc 1 965 5 is_stmt 1 view .LVU579
 965:Drivers/STM32F4xx_HAL_Driver/Src/stm32f4xx_ll_usb.c ****     {
 1816              		.loc 1 965 11 is_stmt 0 view .LVU580
 1817 0010 0B78     		ldrb	r3, [r1]	@ zero_extendqisi2
 1818 0012 02EB4313 		add	r3, r2, r3, lsl #5
 965:Drivers/STM32F4xx_HAL_Driver/Src/stm32f4xx_ll_usb.c ****     {
 1819              		.loc 1 965 30 view .LVU581
 1820 0016 D3F8000B 		ldr	r0, [r3, #2816]
 965:Drivers/STM32F4xx_HAL_Driver/Src/stm32f4xx_ll_usb.c ****     {
 1821              		.loc 1 965 8 view .LVU582
 1822 001a 0028     		cmp	r0, #0
 1823 001c 2DDB     		blt	.L132
 939:Drivers/STM32F4xx_HAL_Driver/Src/stm32f4xx_ll_usb.c ****   uint32_t USBx_BASE = (uint32_t)USBx;
 1824              		.loc 1 939 21 view .LVU583
 1825 001e 0020     		movs	r0, #0
 1826              	.L124:
 1827              	.LVL146:
 983:Drivers/STM32F4xx_HAL_Driver/Src/stm32f4xx_ll_usb.c **** }
 1828              		.loc 1 983 3 is_stmt 1 view .LVU584
 984:Drivers/STM32F4xx_HAL_Driver/Src/stm32f4xx_ll_usb.c **** 
 1829              		.loc 1 984 1 is_stmt 0 view .LVU585
 1830 0020 03B0     		add	sp, sp, #12
 1831              	.LCFI26:
 1832              		.cfi_remember_state
 1833              		.cfi_def_cfa_offset 4
 1834              		@ sp needed
 1835 0022 5DF8044B 		ldr	r4, [sp], #4
 1836              	.LCFI27:
 1837              		.cfi_restore 4
 1838              		.cfi_def_cfa_offset 0
 1839 0026 7047     		bx	lr
 1840              	.LVL147:
 1841              	.L131:
 1842              	.LCFI28:
 1843              		.cfi_restore_state
 946:Drivers/STM32F4xx_HAL_Driver/Src/stm32f4xx_ll_usb.c ****     {
 1844              		.loc 1 946 5 is_stmt 1 view .LVU586
 946:Drivers/STM32F4xx_HAL_Driver/Src/stm32f4xx_ll_usb.c ****     {
 1845              		.loc 1 946 11 is_stmt 0 view .LVU587
 1846 0028 0B78     		ldrb	r3, [r1]	@ zero_extendqisi2
 1847 002a 02EB4313 		add	r3, r2, r3, lsl #5
 946:Drivers/STM32F4xx_HAL_Driver/Src/stm32f4xx_ll_usb.c ****     {
 1848              		.loc 1 946 29 view .LVU588
 1849 002e D3F80049 		ldr	r4, [r3, #2304]
ARM GAS  /tmp/ccELzqP8.s 			page 68


 946:Drivers/STM32F4xx_HAL_Driver/Src/stm32f4xx_ll_usb.c ****     {
 1850              		.loc 1 946 8 view .LVU589
 1851 0032 002C     		cmp	r4, #0
 1852 0034 01DB     		blt	.L133
 939:Drivers/STM32F4xx_HAL_Driver/Src/stm32f4xx_ll_usb.c ****   uint32_t USBx_BASE = (uint32_t)USBx;
 1853              		.loc 1 939 21 view .LVU590
 1854 0036 0020     		movs	r0, #0
 1855 0038 F2E7     		b	.L124
 1856              	.L133:
 948:Drivers/STM32F4xx_HAL_Driver/Src/stm32f4xx_ll_usb.c ****       USBx_INEP(ep->num)->DIEPCTL |= (USB_OTG_DIEPCTL_EPDIS);
 1857              		.loc 1 948 7 is_stmt 1 view .LVU591
 948:Drivers/STM32F4xx_HAL_Driver/Src/stm32f4xx_ll_usb.c ****       USBx_INEP(ep->num)->DIEPCTL |= (USB_OTG_DIEPCTL_EPDIS);
 1858              		.loc 1 948 35 is_stmt 0 view .LVU592
 1859 003a D3F80049 		ldr	r4, [r3, #2304]
 1860 003e 44F00064 		orr	r4, r4, #134217728
 1861 0042 C3F80049 		str	r4, [r3, #2304]
 949:Drivers/STM32F4xx_HAL_Driver/Src/stm32f4xx_ll_usb.c **** 
 1862              		.loc 1 949 7 is_stmt 1 view .LVU593
 1863 0046 0B78     		ldrb	r3, [r1]	@ zero_extendqisi2
 949:Drivers/STM32F4xx_HAL_Driver/Src/stm32f4xx_ll_usb.c **** 
 1864              		.loc 1 949 35 is_stmt 0 view .LVU594
 1865 0048 02EB4313 		add	r3, r2, r3, lsl #5
 1866 004c D3F80049 		ldr	r4, [r3, #2304]
 1867 0050 44F08044 		orr	r4, r4, #1073741824
 1868 0054 C3F80049 		str	r4, [r3, #2304]
 1869              	.L125:
 951:Drivers/STM32F4xx_HAL_Driver/Src/stm32f4xx_ll_usb.c ****       {
 1870              		.loc 1 951 7 is_stmt 1 view .LVU595
 953:Drivers/STM32F4xx_HAL_Driver/Src/stm32f4xx_ll_usb.c **** 
 1871              		.loc 1 953 9 view .LVU596
 953:Drivers/STM32F4xx_HAL_Driver/Src/stm32f4xx_ll_usb.c **** 
 1872              		.loc 1 953 14 is_stmt 0 view .LVU597
 1873 0058 019B     		ldr	r3, [sp, #4]
 1874 005a 0133     		adds	r3, r3, #1
 1875 005c 0193     		str	r3, [sp, #4]
 955:Drivers/STM32F4xx_HAL_Driver/Src/stm32f4xx_ll_usb.c ****         {
 1876              		.loc 1 955 9 is_stmt 1 view .LVU598
 955:Drivers/STM32F4xx_HAL_Driver/Src/stm32f4xx_ll_usb.c ****         {
 1877              		.loc 1 955 19 is_stmt 0 view .LVU599
 1878 005e 019C     		ldr	r4, [sp, #4]
 955:Drivers/STM32F4xx_HAL_Driver/Src/stm32f4xx_ll_usb.c ****         {
 1879              		.loc 1 955 12 view .LVU600
 1880 0060 42F21073 		movw	r3, #10000
 1881 0064 9C42     		cmp	r4, r3
 1882 0066 DBD8     		bhi	.L124
 960:Drivers/STM32F4xx_HAL_Driver/Src/stm32f4xx_ll_usb.c ****     }
 1883              		.loc 1 960 15 is_stmt 1 view .LVU601
 960:Drivers/STM32F4xx_HAL_Driver/Src/stm32f4xx_ll_usb.c ****     }
 1884              		.loc 1 960 18 is_stmt 0 view .LVU602
 1885 0068 0B78     		ldrb	r3, [r1]	@ zero_extendqisi2
 1886 006a 02EB4313 		add	r3, r2, r3, lsl #5
 960:Drivers/STM32F4xx_HAL_Driver/Src/stm32f4xx_ll_usb.c ****     }
 1887              		.loc 1 960 36 view .LVU603
 1888 006e D3F80039 		ldr	r3, [r3, #2304]
 960:Drivers/STM32F4xx_HAL_Driver/Src/stm32f4xx_ll_usb.c ****     }
 1889              		.loc 1 960 7 view .LVU604
 1890 0072 002B     		cmp	r3, #0
ARM GAS  /tmp/ccELzqP8.s 			page 69


 1891 0074 F0DB     		blt	.L125
 939:Drivers/STM32F4xx_HAL_Driver/Src/stm32f4xx_ll_usb.c ****   uint32_t USBx_BASE = (uint32_t)USBx;
 1892              		.loc 1 939 21 view .LVU605
 1893 0076 0020     		movs	r0, #0
 1894 0078 D2E7     		b	.L124
 1895              	.L132:
 967:Drivers/STM32F4xx_HAL_Driver/Src/stm32f4xx_ll_usb.c ****       USBx_OUTEP(ep->num)->DOEPCTL |= (USB_OTG_DOEPCTL_EPDIS);
 1896              		.loc 1 967 7 is_stmt 1 view .LVU606
 967:Drivers/STM32F4xx_HAL_Driver/Src/stm32f4xx_ll_usb.c ****       USBx_OUTEP(ep->num)->DOEPCTL |= (USB_OTG_DOEPCTL_EPDIS);
 1897              		.loc 1 967 36 is_stmt 0 view .LVU607
 1898 007a D3F8000B 		ldr	r0, [r3, #2816]
 1899 007e 40F00060 		orr	r0, r0, #134217728
 1900 0082 C3F8000B 		str	r0, [r3, #2816]
 968:Drivers/STM32F4xx_HAL_Driver/Src/stm32f4xx_ll_usb.c **** 
 1901              		.loc 1 968 7 is_stmt 1 view .LVU608
 1902 0086 0B78     		ldrb	r3, [r1]	@ zero_extendqisi2
 968:Drivers/STM32F4xx_HAL_Driver/Src/stm32f4xx_ll_usb.c **** 
 1903              		.loc 1 968 36 is_stmt 0 view .LVU609
 1904 0088 02EB4313 		add	r3, r2, r3, lsl #5
 1905 008c D3F8000B 		ldr	r0, [r3, #2816]
 1906 0090 40F08040 		orr	r0, r0, #1073741824
 1907 0094 C3F8000B 		str	r0, [r3, #2816]
 1908              	.L126:
 970:Drivers/STM32F4xx_HAL_Driver/Src/stm32f4xx_ll_usb.c ****       {
 1909              		.loc 1 970 7 is_stmt 1 view .LVU610
 972:Drivers/STM32F4xx_HAL_Driver/Src/stm32f4xx_ll_usb.c **** 
 1910              		.loc 1 972 9 view .LVU611
 972:Drivers/STM32F4xx_HAL_Driver/Src/stm32f4xx_ll_usb.c **** 
 1911              		.loc 1 972 14 is_stmt 0 view .LVU612
 1912 0098 019B     		ldr	r3, [sp, #4]
 1913 009a 0133     		adds	r3, r3, #1
 1914 009c 0193     		str	r3, [sp, #4]
 974:Drivers/STM32F4xx_HAL_Driver/Src/stm32f4xx_ll_usb.c ****         {
 1915              		.loc 1 974 9 is_stmt 1 view .LVU613
 974:Drivers/STM32F4xx_HAL_Driver/Src/stm32f4xx_ll_usb.c ****         {
 1916              		.loc 1 974 19 is_stmt 0 view .LVU614
 1917 009e 0198     		ldr	r0, [sp, #4]
 974:Drivers/STM32F4xx_HAL_Driver/Src/stm32f4xx_ll_usb.c ****         {
 1918              		.loc 1 974 12 view .LVU615
 1919 00a0 42F21073 		movw	r3, #10000
 1920 00a4 9842     		cmp	r0, r3
 1921 00a6 08D8     		bhi	.L129
 979:Drivers/STM32F4xx_HAL_Driver/Src/stm32f4xx_ll_usb.c ****     }
 1922              		.loc 1 979 15 is_stmt 1 view .LVU616
 979:Drivers/STM32F4xx_HAL_Driver/Src/stm32f4xx_ll_usb.c ****     }
 1923              		.loc 1 979 18 is_stmt 0 view .LVU617
 1924 00a8 0B78     		ldrb	r3, [r1]	@ zero_extendqisi2
 1925 00aa 02EB4313 		add	r3, r2, r3, lsl #5
 979:Drivers/STM32F4xx_HAL_Driver/Src/stm32f4xx_ll_usb.c ****     }
 1926              		.loc 1 979 37 view .LVU618
 1927 00ae D3F8003B 		ldr	r3, [r3, #2816]
 979:Drivers/STM32F4xx_HAL_Driver/Src/stm32f4xx_ll_usb.c ****     }
 1928              		.loc 1 979 7 view .LVU619
 1929 00b2 002B     		cmp	r3, #0
 1930 00b4 F0DB     		blt	.L126
 939:Drivers/STM32F4xx_HAL_Driver/Src/stm32f4xx_ll_usb.c ****   uint32_t USBx_BASE = (uint32_t)USBx;
 1931              		.loc 1 939 21 view .LVU620
ARM GAS  /tmp/ccELzqP8.s 			page 70


 1932 00b6 0020     		movs	r0, #0
 1933 00b8 B2E7     		b	.L124
 1934              	.L129:
 976:Drivers/STM32F4xx_HAL_Driver/Src/stm32f4xx_ll_usb.c ****           break;
 1935              		.loc 1 976 15 view .LVU621
 1936 00ba 0120     		movs	r0, #1
 1937 00bc B0E7     		b	.L124
 1938              		.cfi_endproc
 1939              	.LFE149:
 1941              		.section	.text.USB_WritePacket,"ax",%progbits
 1942              		.align	1
 1943              		.global	USB_WritePacket
 1944              		.syntax unified
 1945              		.thumb
 1946              		.thumb_func
 1947              		.fpu fpv4-sp-d16
 1949              	USB_WritePacket:
 1950              	.LVL148:
 1951              	.LFB150:
1002:Drivers/STM32F4xx_HAL_Driver/Src/stm32f4xx_ll_usb.c ****   uint32_t USBx_BASE = (uint32_t)USBx;
 1952              		.loc 1 1002 1 is_stmt 1 view -0
 1953              		.cfi_startproc
 1954              		@ args = 4, pretend = 0, frame = 0
 1955              		@ frame_needed = 0, uses_anonymous_args = 0
1002:Drivers/STM32F4xx_HAL_Driver/Src/stm32f4xx_ll_usb.c ****   uint32_t USBx_BASE = (uint32_t)USBx;
 1956              		.loc 1 1002 1 is_stmt 0 view .LVU623
 1957 0000 10B5     		push	{r4, lr}
 1958              	.LCFI29:
 1959              		.cfi_def_cfa_offset 8
 1960              		.cfi_offset 4, -8
 1961              		.cfi_offset 14, -4
 1962 0002 9DF80840 		ldrb	r4, [sp, #8]	@ zero_extendqisi2
1003:Drivers/STM32F4xx_HAL_Driver/Src/stm32f4xx_ll_usb.c ****   uint8_t *pSrc = src;
 1963              		.loc 1 1003 3 is_stmt 1 view .LVU624
 1964              	.LVL149:
1004:Drivers/STM32F4xx_HAL_Driver/Src/stm32f4xx_ll_usb.c ****   uint32_t count32b;
 1965              		.loc 1 1004 3 view .LVU625
1005:Drivers/STM32F4xx_HAL_Driver/Src/stm32f4xx_ll_usb.c ****   uint32_t i;
 1966              		.loc 1 1005 3 view .LVU626
1006:Drivers/STM32F4xx_HAL_Driver/Src/stm32f4xx_ll_usb.c **** 
 1967              		.loc 1 1006 3 view .LVU627
1008:Drivers/STM32F4xx_HAL_Driver/Src/stm32f4xx_ll_usb.c ****   {
 1968              		.loc 1 1008 3 view .LVU628
1008:Drivers/STM32F4xx_HAL_Driver/Src/stm32f4xx_ll_usb.c ****   {
 1969              		.loc 1 1008 6 is_stmt 0 view .LVU629
 1970 0006 84B9     		cbnz	r4, .L135
1010:Drivers/STM32F4xx_HAL_Driver/Src/stm32f4xx_ll_usb.c ****     for (i = 0U; i < count32b; i++)
 1971              		.loc 1 1010 5 is_stmt 1 view .LVU630
1010:Drivers/STM32F4xx_HAL_Driver/Src/stm32f4xx_ll_usb.c ****     for (i = 0U; i < count32b; i++)
 1972              		.loc 1 1010 31 is_stmt 0 view .LVU631
 1973 0008 0333     		adds	r3, r3, #3
 1974              	.LVL150:
1010:Drivers/STM32F4xx_HAL_Driver/Src/stm32f4xx_ll_usb.c ****     for (i = 0U; i < count32b; i++)
 1975              		.loc 1 1010 14 view .LVU632
 1976 000a 4FEA930E 		lsr	lr, r3, #2
 1977              	.LVL151:
1011:Drivers/STM32F4xx_HAL_Driver/Src/stm32f4xx_ll_usb.c ****     {
ARM GAS  /tmp/ccELzqP8.s 			page 71


 1978              		.loc 1 1011 5 is_stmt 1 view .LVU633
1011:Drivers/STM32F4xx_HAL_Driver/Src/stm32f4xx_ll_usb.c ****     {
 1979              		.loc 1 1011 12 is_stmt 0 view .LVU634
 1980 000e 4FF0000C 		mov	ip, #0
1011:Drivers/STM32F4xx_HAL_Driver/Src/stm32f4xx_ll_usb.c ****     {
 1981              		.loc 1 1011 5 view .LVU635
 1982 0012 08E0     		b	.L136
 1983              	.LVL152:
 1984              	.L137:
1013:Drivers/STM32F4xx_HAL_Driver/Src/stm32f4xx_ll_usb.c ****       pSrc++;
 1985              		.loc 1 1013 7 is_stmt 1 discriminator 3 view .LVU636
 1986 0014 00EB0233 		add	r3, r0, r2, lsl #12
 1987 0018 03F58053 		add	r3, r3, #4096
1013:Drivers/STM32F4xx_HAL_Driver/Src/stm32f4xx_ll_usb.c ****       pSrc++;
 1988              		.loc 1 1013 41 is_stmt 0 discriminator 3 view .LVU637
 1989 001c 51F8044B 		ldr	r4, [r1], #4	@ unaligned
 1990              	.LVL153:
1013:Drivers/STM32F4xx_HAL_Driver/Src/stm32f4xx_ll_usb.c ****       pSrc++;
 1991              		.loc 1 1013 39 discriminator 3 view .LVU638
 1992 0020 1C60     		str	r4, [r3]
1014:Drivers/STM32F4xx_HAL_Driver/Src/stm32f4xx_ll_usb.c ****       pSrc++;
 1993              		.loc 1 1014 7 is_stmt 1 discriminator 3 view .LVU639
 1994              	.LVL154:
1015:Drivers/STM32F4xx_HAL_Driver/Src/stm32f4xx_ll_usb.c ****       pSrc++;
 1995              		.loc 1 1015 7 discriminator 3 view .LVU640
1016:Drivers/STM32F4xx_HAL_Driver/Src/stm32f4xx_ll_usb.c ****       pSrc++;
 1996              		.loc 1 1016 7 discriminator 3 view .LVU641
1017:Drivers/STM32F4xx_HAL_Driver/Src/stm32f4xx_ll_usb.c ****     }
 1997              		.loc 1 1017 7 discriminator 3 view .LVU642
1011:Drivers/STM32F4xx_HAL_Driver/Src/stm32f4xx_ll_usb.c ****     {
 1998              		.loc 1 1011 32 discriminator 3 view .LVU643
1011:Drivers/STM32F4xx_HAL_Driver/Src/stm32f4xx_ll_usb.c ****     {
 1999              		.loc 1 1011 33 is_stmt 0 discriminator 3 view .LVU644
 2000 0022 0CF1010C 		add	ip, ip, #1
 2001              	.LVL155:
 2002              	.L136:
1011:Drivers/STM32F4xx_HAL_Driver/Src/stm32f4xx_ll_usb.c ****     {
 2003              		.loc 1 1011 18 is_stmt 1 discriminator 1 view .LVU645
1011:Drivers/STM32F4xx_HAL_Driver/Src/stm32f4xx_ll_usb.c ****     {
 2004              		.loc 1 1011 5 is_stmt 0 discriminator 1 view .LVU646
 2005 0026 F445     		cmp	ip, lr
 2006 0028 F4D3     		bcc	.L137
 2007              	.LVL156:
 2008              	.L135:
1021:Drivers/STM32F4xx_HAL_Driver/Src/stm32f4xx_ll_usb.c **** }
 2009              		.loc 1 1021 3 is_stmt 1 view .LVU647
1022:Drivers/STM32F4xx_HAL_Driver/Src/stm32f4xx_ll_usb.c **** 
 2010              		.loc 1 1022 1 is_stmt 0 view .LVU648
 2011 002a 0020     		movs	r0, #0
 2012              	.LVL157:
1022:Drivers/STM32F4xx_HAL_Driver/Src/stm32f4xx_ll_usb.c **** 
 2013              		.loc 1 1022 1 view .LVU649
 2014 002c 10BD     		pop	{r4, pc}
1022:Drivers/STM32F4xx_HAL_Driver/Src/stm32f4xx_ll_usb.c **** 
 2015              		.loc 1 1022 1 view .LVU650
 2016              		.cfi_endproc
 2017              	.LFE150:
ARM GAS  /tmp/ccELzqP8.s 			page 72


 2019              		.section	.text.USB_EPStartXfer,"ax",%progbits
 2020              		.align	1
 2021              		.global	USB_EPStartXfer
 2022              		.syntax unified
 2023              		.thumb
 2024              		.thumb_func
 2025              		.fpu fpv4-sp-d16
 2027              	USB_EPStartXfer:
 2028              	.LVL158:
 2029              	.LFB148:
 765:Drivers/STM32F4xx_HAL_Driver/Src/stm32f4xx_ll_usb.c ****   uint32_t USBx_BASE = (uint32_t)USBx;
 2030              		.loc 1 765 1 is_stmt 1 view -0
 2031              		.cfi_startproc
 2032              		@ args = 0, pretend = 0, frame = 0
 2033              		@ frame_needed = 0, uses_anonymous_args = 0
 765:Drivers/STM32F4xx_HAL_Driver/Src/stm32f4xx_ll_usb.c ****   uint32_t USBx_BASE = (uint32_t)USBx;
 2034              		.loc 1 765 1 is_stmt 0 view .LVU652
 2035 0000 F0B5     		push	{r4, r5, r6, r7, lr}
 2036              	.LCFI30:
 2037              		.cfi_def_cfa_offset 20
 2038              		.cfi_offset 4, -20
 2039              		.cfi_offset 5, -16
 2040              		.cfi_offset 6, -12
 2041              		.cfi_offset 7, -8
 2042              		.cfi_offset 14, -4
 2043 0002 83B0     		sub	sp, sp, #12
 2044              	.LCFI31:
 2045              		.cfi_def_cfa_offset 32
 766:Drivers/STM32F4xx_HAL_Driver/Src/stm32f4xx_ll_usb.c ****   uint32_t epnum = (uint32_t)ep->num;
 2046              		.loc 1 766 3 is_stmt 1 view .LVU653
 2047              	.LVL159:
 767:Drivers/STM32F4xx_HAL_Driver/Src/stm32f4xx_ll_usb.c ****   uint16_t pktcnt;
 2048              		.loc 1 767 3 view .LVU654
 767:Drivers/STM32F4xx_HAL_Driver/Src/stm32f4xx_ll_usb.c ****   uint16_t pktcnt;
 2049              		.loc 1 767 32 is_stmt 0 view .LVU655
 2050 0004 0C78     		ldrb	r4, [r1]	@ zero_extendqisi2
 2051              	.LVL160:
 768:Drivers/STM32F4xx_HAL_Driver/Src/stm32f4xx_ll_usb.c **** 
 2052              		.loc 1 768 3 is_stmt 1 view .LVU656
 771:Drivers/STM32F4xx_HAL_Driver/Src/stm32f4xx_ll_usb.c ****   {
 2053              		.loc 1 771 3 view .LVU657
 771:Drivers/STM32F4xx_HAL_Driver/Src/stm32f4xx_ll_usb.c ****   {
 2054              		.loc 1 771 9 is_stmt 0 view .LVU658
 2055 0006 4B78     		ldrb	r3, [r1, #1]	@ zero_extendqisi2
 771:Drivers/STM32F4xx_HAL_Driver/Src/stm32f4xx_ll_usb.c ****   {
 2056              		.loc 1 771 6 view .LVU659
 2057 0008 012B     		cmp	r3, #1
 2058 000a 2FD0     		beq	.L162
 870:Drivers/STM32F4xx_HAL_Driver/Src/stm32f4xx_ll_usb.c ****     USBx_OUTEP(epnum)->DOEPTSIZ &= ~(USB_OTG_DOEPTSIZ_PKTCNT);
 2059              		.loc 1 870 5 is_stmt 1 view .LVU660
 870:Drivers/STM32F4xx_HAL_Driver/Src/stm32f4xx_ll_usb.c ****     USBx_OUTEP(epnum)->DOEPTSIZ &= ~(USB_OTG_DOEPTSIZ_PKTCNT);
 2060              		.loc 1 870 33 is_stmt 0 view .LVU661
 2061 000c 00EB441C 		add	ip, r0, r4, lsl #5
 2062 0010 0CF53063 		add	r3, ip, #2816
 2063 0014 1D69     		ldr	r5, [r3, #16]
 2064 0016 ED0C     		lsrs	r5, r5, #19
 2065 0018 ED04     		lsls	r5, r5, #19
ARM GAS  /tmp/ccELzqP8.s 			page 73


 2066 001a 1D61     		str	r5, [r3, #16]
 871:Drivers/STM32F4xx_HAL_Driver/Src/stm32f4xx_ll_usb.c **** 
 2067              		.loc 1 871 5 is_stmt 1 view .LVU662
 871:Drivers/STM32F4xx_HAL_Driver/Src/stm32f4xx_ll_usb.c **** 
 2068              		.loc 1 871 33 is_stmt 0 view .LVU663
 2069 001c 1D69     		ldr	r5, [r3, #16]
 2070 001e 25F0FF55 		bic	r5, r5, #534773760
 2071 0022 25F4C015 		bic	r5, r5, #1572864
 2072 0026 1D61     		str	r5, [r3, #16]
 873:Drivers/STM32F4xx_HAL_Driver/Src/stm32f4xx_ll_usb.c ****     {
 2073              		.loc 1 873 5 is_stmt 1 view .LVU664
 873:Drivers/STM32F4xx_HAL_Driver/Src/stm32f4xx_ll_usb.c ****     {
 2074              		.loc 1 873 8 is_stmt 0 view .LVU665
 2075 0028 002C     		cmp	r4, #0
 2076 002a 40F0D280 		bne	.L154
 875:Drivers/STM32F4xx_HAL_Driver/Src/stm32f4xx_ll_usb.c ****       {
 2077              		.loc 1 875 7 is_stmt 1 view .LVU666
 875:Drivers/STM32F4xx_HAL_Driver/Src/stm32f4xx_ll_usb.c ****       {
 2078              		.loc 1 875 13 is_stmt 0 view .LVU667
 2079 002e 0C69     		ldr	r4, [r1, #16]
 2080              	.LVL161:
 875:Drivers/STM32F4xx_HAL_Driver/Src/stm32f4xx_ll_usb.c ****       {
 2081              		.loc 1 875 10 view .LVU668
 2082 0030 0CB1     		cbz	r4, .L155
 877:Drivers/STM32F4xx_HAL_Driver/Src/stm32f4xx_ll_usb.c ****       }
 2083              		.loc 1 877 9 is_stmt 1 view .LVU669
 877:Drivers/STM32F4xx_HAL_Driver/Src/stm32f4xx_ll_usb.c ****       }
 2084              		.loc 1 877 26 is_stmt 0 view .LVU670
 2085 0032 8C68     		ldr	r4, [r1, #8]
 877:Drivers/STM32F4xx_HAL_Driver/Src/stm32f4xx_ll_usb.c ****       }
 2086              		.loc 1 877 22 view .LVU671
 2087 0034 0C61     		str	r4, [r1, #16]
 2088              	.L155:
 881:Drivers/STM32F4xx_HAL_Driver/Src/stm32f4xx_ll_usb.c **** 
 2089              		.loc 1 881 7 is_stmt 1 view .LVU672
 881:Drivers/STM32F4xx_HAL_Driver/Src/stm32f4xx_ll_usb.c **** 
 2090              		.loc 1 881 25 is_stmt 0 view .LVU673
 2091 0036 8C68     		ldr	r4, [r1, #8]
 881:Drivers/STM32F4xx_HAL_Driver/Src/stm32f4xx_ll_usb.c **** 
 2092              		.loc 1 881 21 view .LVU674
 2093 0038 0C62     		str	r4, [r1, #32]
 883:Drivers/STM32F4xx_HAL_Driver/Src/stm32f4xx_ll_usb.c ****       USBx_OUTEP(epnum)->DOEPTSIZ |= (USB_OTG_DOEPTSIZ_PKTCNT & (1U << 19));
 2094              		.loc 1 883 7 is_stmt 1 view .LVU675
 883:Drivers/STM32F4xx_HAL_Driver/Src/stm32f4xx_ll_usb.c ****       USBx_OUTEP(epnum)->DOEPTSIZ |= (USB_OTG_DOEPTSIZ_PKTCNT & (1U << 19));
 2095              		.loc 1 883 35 is_stmt 0 view .LVU676
 2096 003a 1D69     		ldr	r5, [r3, #16]
 883:Drivers/STM32F4xx_HAL_Driver/Src/stm32f4xx_ll_usb.c ****       USBx_OUTEP(epnum)->DOEPTSIZ |= (USB_OTG_DOEPTSIZ_PKTCNT & (1U << 19));
 2097              		.loc 1 883 63 view .LVU677
 2098 003c C4F31204 		ubfx	r4, r4, #0, #19
 883:Drivers/STM32F4xx_HAL_Driver/Src/stm32f4xx_ll_usb.c ****       USBx_OUTEP(epnum)->DOEPTSIZ |= (USB_OTG_DOEPTSIZ_PKTCNT & (1U << 19));
 2099              		.loc 1 883 35 view .LVU678
 2100 0040 2C43     		orrs	r4, r4, r5
 2101 0042 1C61     		str	r4, [r3, #16]
 884:Drivers/STM32F4xx_HAL_Driver/Src/stm32f4xx_ll_usb.c ****     }
 2102              		.loc 1 884 7 is_stmt 1 view .LVU679
 884:Drivers/STM32F4xx_HAL_Driver/Src/stm32f4xx_ll_usb.c ****     }
 2103              		.loc 1 884 35 is_stmt 0 view .LVU680
ARM GAS  /tmp/ccELzqP8.s 			page 74


 2104 0044 1C69     		ldr	r4, [r3, #16]
 2105 0046 44F40024 		orr	r4, r4, #524288
 2106 004a 1C61     		str	r4, [r3, #16]
 2107              	.L156:
 903:Drivers/STM32F4xx_HAL_Driver/Src/stm32f4xx_ll_usb.c ****     {
 2108              		.loc 1 903 5 is_stmt 1 view .LVU681
 903:Drivers/STM32F4xx_HAL_Driver/Src/stm32f4xx_ll_usb.c ****     {
 2109              		.loc 1 903 8 is_stmt 0 view .LVU682
 2110 004c 012A     		cmp	r2, #1
 2111 004e 00F0E380 		beq	.L163
 2112              	.LVL162:
 2113              	.L158:
 911:Drivers/STM32F4xx_HAL_Driver/Src/stm32f4xx_ll_usb.c ****     {
 2114              		.loc 1 911 5 is_stmt 1 view .LVU683
 911:Drivers/STM32F4xx_HAL_Driver/Src/stm32f4xx_ll_usb.c ****     {
 2115              		.loc 1 911 11 is_stmt 0 view .LVU684
 2116 0052 0B79     		ldrb	r3, [r1, #4]	@ zero_extendqisi2
 911:Drivers/STM32F4xx_HAL_Driver/Src/stm32f4xx_ll_usb.c ****     {
 2117              		.loc 1 911 8 view .LVU685
 2118 0054 012B     		cmp	r3, #1
 2119 0056 00F0E580 		beq	.L164
 2120              	.L159:
 923:Drivers/STM32F4xx_HAL_Driver/Src/stm32f4xx_ll_usb.c ****   }
 2121              		.loc 1 923 5 is_stmt 1 view .LVU686
 923:Drivers/STM32F4xx_HAL_Driver/Src/stm32f4xx_ll_usb.c ****   }
 2122              		.loc 1 923 32 is_stmt 0 view .LVU687
 2123 005a DCF8003B 		ldr	r3, [ip, #2816]
 2124 005e 43F00443 		orr	r3, r3, #-2080374784
 2125 0062 CCF8003B 		str	r3, [ip, #2816]
 2126              	.LVL163:
 2127              	.L150:
 926:Drivers/STM32F4xx_HAL_Driver/Src/stm32f4xx_ll_usb.c **** }
 2128              		.loc 1 926 3 is_stmt 1 view .LVU688
 927:Drivers/STM32F4xx_HAL_Driver/Src/stm32f4xx_ll_usb.c **** 
 2129              		.loc 1 927 1 is_stmt 0 view .LVU689
 2130 0066 0020     		movs	r0, #0
 2131 0068 03B0     		add	sp, sp, #12
 2132              	.LCFI32:
 2133              		.cfi_remember_state
 2134              		.cfi_def_cfa_offset 20
 2135              		@ sp needed
 2136 006a F0BD     		pop	{r4, r5, r6, r7, pc}
 2137              	.LVL164:
 2138              	.L162:
 2139              	.LCFI33:
 2140              		.cfi_restore_state
 774:Drivers/STM32F4xx_HAL_Driver/Src/stm32f4xx_ll_usb.c ****     {
 2141              		.loc 1 774 5 is_stmt 1 view .LVU690
 774:Drivers/STM32F4xx_HAL_Driver/Src/stm32f4xx_ll_usb.c ****     {
 2142              		.loc 1 774 11 is_stmt 0 view .LVU691
 2143 006c 0B69     		ldr	r3, [r1, #16]
 774:Drivers/STM32F4xx_HAL_Driver/Src/stm32f4xx_ll_usb.c ****     {
 2144              		.loc 1 774 8 view .LVU692
 2145 006e 83BB     		cbnz	r3, .L141
 776:Drivers/STM32F4xx_HAL_Driver/Src/stm32f4xx_ll_usb.c ****       USBx_INEP(epnum)->DIEPTSIZ |= (USB_OTG_DIEPTSIZ_PKTCNT & (1U << 19));
 2146              		.loc 1 776 7 is_stmt 1 view .LVU693
 776:Drivers/STM32F4xx_HAL_Driver/Src/stm32f4xx_ll_usb.c ****       USBx_INEP(epnum)->DIEPTSIZ |= (USB_OTG_DIEPTSIZ_PKTCNT & (1U << 19));
ARM GAS  /tmp/ccELzqP8.s 			page 75


 2147              		.loc 1 776 34 is_stmt 0 view .LVU694
 2148 0070 00EB4413 		add	r3, r0, r4, lsl #5
 2149 0074 D3F81059 		ldr	r5, [r3, #2320]
 2150 0078 25F0FF55 		bic	r5, r5, #534773760
 2151 007c 25F4C015 		bic	r5, r5, #1572864
 2152 0080 C3F81059 		str	r5, [r3, #2320]
 777:Drivers/STM32F4xx_HAL_Driver/Src/stm32f4xx_ll_usb.c ****       USBx_INEP(epnum)->DIEPTSIZ &= ~(USB_OTG_DIEPTSIZ_XFRSIZ);
 2153              		.loc 1 777 7 is_stmt 1 view .LVU695
 777:Drivers/STM32F4xx_HAL_Driver/Src/stm32f4xx_ll_usb.c ****       USBx_INEP(epnum)->DIEPTSIZ &= ~(USB_OTG_DIEPTSIZ_XFRSIZ);
 2154              		.loc 1 777 34 is_stmt 0 view .LVU696
 2155 0084 D3F81059 		ldr	r5, [r3, #2320]
 2156 0088 45F40025 		orr	r5, r5, #524288
 2157 008c C3F81059 		str	r5, [r3, #2320]
 778:Drivers/STM32F4xx_HAL_Driver/Src/stm32f4xx_ll_usb.c ****     }
 2158              		.loc 1 778 7 is_stmt 1 view .LVU697
 778:Drivers/STM32F4xx_HAL_Driver/Src/stm32f4xx_ll_usb.c ****     }
 2159              		.loc 1 778 34 is_stmt 0 view .LVU698
 2160 0090 D3F81059 		ldr	r5, [r3, #2320]
 2161 0094 ED0C     		lsrs	r5, r5, #19
 2162 0096 ED04     		lsls	r5, r5, #19
 2163 0098 C3F81059 		str	r5, [r3, #2320]
 2164              	.L142:
 814:Drivers/STM32F4xx_HAL_Driver/Src/stm32f4xx_ll_usb.c ****     {
 2165              		.loc 1 814 5 is_stmt 1 view .LVU699
 814:Drivers/STM32F4xx_HAL_Driver/Src/stm32f4xx_ll_usb.c ****     {
 2166              		.loc 1 814 8 is_stmt 0 view .LVU700
 2167 009c 012A     		cmp	r2, #1
 2168 009e 56D0     		beq	.L165
 839:Drivers/STM32F4xx_HAL_Driver/Src/stm32f4xx_ll_usb.c **** 
 2169              		.loc 1 839 7 is_stmt 1 view .LVU701
 839:Drivers/STM32F4xx_HAL_Driver/Src/stm32f4xx_ll_usb.c **** 
 2170              		.loc 1 839 33 is_stmt 0 view .LVU702
 2171 00a0 00EB4414 		add	r4, r0, r4, lsl #5
 2172              	.LVL165:
 839:Drivers/STM32F4xx_HAL_Driver/Src/stm32f4xx_ll_usb.c **** 
 2173              		.loc 1 839 33 view .LVU703
 2174 00a4 D4F80039 		ldr	r3, [r4, #2304]
 2175 00a8 43F00443 		orr	r3, r3, #-2080374784
 2176 00ac C4F80039 		str	r3, [r4, #2304]
 841:Drivers/STM32F4xx_HAL_Driver/Src/stm32f4xx_ll_usb.c ****       {
 2177              		.loc 1 841 7 is_stmt 1 view .LVU704
 841:Drivers/STM32F4xx_HAL_Driver/Src/stm32f4xx_ll_usb.c ****       {
 2178              		.loc 1 841 13 is_stmt 0 view .LVU705
 2179 00b0 0B79     		ldrb	r3, [r1, #4]	@ zero_extendqisi2
 841:Drivers/STM32F4xx_HAL_Driver/Src/stm32f4xx_ll_usb.c ****       {
 2180              		.loc 1 841 10 view .LVU706
 2181 00b2 012B     		cmp	r3, #1
 2182 00b4 74D0     		beq	.L151
 844:Drivers/STM32F4xx_HAL_Driver/Src/stm32f4xx_ll_usb.c ****         {
 2183              		.loc 1 844 9 is_stmt 1 view .LVU707
 844:Drivers/STM32F4xx_HAL_Driver/Src/stm32f4xx_ll_usb.c ****         {
 2184              		.loc 1 844 15 is_stmt 0 view .LVU708
 2185 00b6 0B69     		ldr	r3, [r1, #16]
 844:Drivers/STM32F4xx_HAL_Driver/Src/stm32f4xx_ll_usb.c ****         {
 2186              		.loc 1 844 12 view .LVU709
 2187 00b8 002B     		cmp	r3, #0
 2188 00ba D4D0     		beq	.L150
ARM GAS  /tmp/ccELzqP8.s 			page 76


 846:Drivers/STM32F4xx_HAL_Driver/Src/stm32f4xx_ll_usb.c ****         }
 2189              		.loc 1 846 11 is_stmt 1 view .LVU710
 846:Drivers/STM32F4xx_HAL_Driver/Src/stm32f4xx_ll_usb.c ****         }
 2190              		.loc 1 846 35 is_stmt 0 view .LVU711
 2191 00bc D0F83438 		ldr	r3, [r0, #2100]
 846:Drivers/STM32F4xx_HAL_Driver/Src/stm32f4xx_ll_usb.c ****         }
 2192              		.loc 1 846 48 view .LVU712
 2193 00c0 0A78     		ldrb	r2, [r1]	@ zero_extendqisi2
 2194              	.LVL166:
 846:Drivers/STM32F4xx_HAL_Driver/Src/stm32f4xx_ll_usb.c ****         }
 2195              		.loc 1 846 54 view .LVU713
 2196 00c2 02F00F01 		and	r1, r2, #15
 2197              	.LVL167:
 846:Drivers/STM32F4xx_HAL_Driver/Src/stm32f4xx_ll_usb.c ****         }
 2198              		.loc 1 846 42 view .LVU714
 2199 00c6 0122     		movs	r2, #1
 2200 00c8 8A40     		lsls	r2, r2, r1
 846:Drivers/STM32F4xx_HAL_Driver/Src/stm32f4xx_ll_usb.c ****         }
 2201              		.loc 1 846 35 view .LVU715
 2202 00ca 1343     		orrs	r3, r3, r2
 2203 00cc C0F83438 		str	r3, [r0, #2100]
 2204 00d0 C9E7     		b	.L150
 2205              	.LVL168:
 2206              	.L141:
 787:Drivers/STM32F4xx_HAL_Driver/Src/stm32f4xx_ll_usb.c ****       USBx_INEP(epnum)->DIEPTSIZ &= ~(USB_OTG_DIEPTSIZ_PKTCNT);
 2207              		.loc 1 787 7 is_stmt 1 view .LVU716
 787:Drivers/STM32F4xx_HAL_Driver/Src/stm32f4xx_ll_usb.c ****       USBx_INEP(epnum)->DIEPTSIZ &= ~(USB_OTG_DIEPTSIZ_PKTCNT);
 2208              		.loc 1 787 34 is_stmt 0 view .LVU717
 2209 00d2 00EB4413 		add	r3, r0, r4, lsl #5
 2210 00d6 03F51063 		add	r3, r3, #2304
 2211 00da 1D69     		ldr	r5, [r3, #16]
 2212 00dc ED0C     		lsrs	r5, r5, #19
 2213 00de ED04     		lsls	r5, r5, #19
 2214 00e0 1D61     		str	r5, [r3, #16]
 788:Drivers/STM32F4xx_HAL_Driver/Src/stm32f4xx_ll_usb.c **** 
 2215              		.loc 1 788 7 is_stmt 1 view .LVU718
 788:Drivers/STM32F4xx_HAL_Driver/Src/stm32f4xx_ll_usb.c **** 
 2216              		.loc 1 788 34 is_stmt 0 view .LVU719
 2217 00e2 1D69     		ldr	r5, [r3, #16]
 2218 00e4 25F0FF55 		bic	r5, r5, #534773760
 2219 00e8 25F4C015 		bic	r5, r5, #1572864
 2220 00ec 1D61     		str	r5, [r3, #16]
 790:Drivers/STM32F4xx_HAL_Driver/Src/stm32f4xx_ll_usb.c ****       {
 2221              		.loc 1 790 7 is_stmt 1 view .LVU720
 790:Drivers/STM32F4xx_HAL_Driver/Src/stm32f4xx_ll_usb.c ****       {
 2222              		.loc 1 790 10 is_stmt 0 view .LVU721
 2223 00ee 84B9     		cbnz	r4, .L143
 792:Drivers/STM32F4xx_HAL_Driver/Src/stm32f4xx_ll_usb.c ****         {
 2224              		.loc 1 792 9 is_stmt 1 view .LVU722
 792:Drivers/STM32F4xx_HAL_Driver/Src/stm32f4xx_ll_usb.c ****         {
 2225              		.loc 1 792 15 is_stmt 0 view .LVU723
 2226 00f0 0E69     		ldr	r6, [r1, #16]
 792:Drivers/STM32F4xx_HAL_Driver/Src/stm32f4xx_ll_usb.c ****         {
 2227              		.loc 1 792 30 view .LVU724
 2228 00f2 8D68     		ldr	r5, [r1, #8]
 792:Drivers/STM32F4xx_HAL_Driver/Src/stm32f4xx_ll_usb.c ****         {
 2229              		.loc 1 792 12 view .LVU725
ARM GAS  /tmp/ccELzqP8.s 			page 77


 2230 00f4 AE42     		cmp	r6, r5
 2231 00f6 00D9     		bls	.L144
 794:Drivers/STM32F4xx_HAL_Driver/Src/stm32f4xx_ll_usb.c ****         }
 2232              		.loc 1 794 11 is_stmt 1 view .LVU726
 794:Drivers/STM32F4xx_HAL_Driver/Src/stm32f4xx_ll_usb.c ****         }
 2233              		.loc 1 794 24 is_stmt 0 view .LVU727
 2234 00f8 0D61     		str	r5, [r1, #16]
 2235              	.L144:
 797:Drivers/STM32F4xx_HAL_Driver/Src/stm32f4xx_ll_usb.c ****       }
 2236              		.loc 1 797 9 is_stmt 1 view .LVU728
 797:Drivers/STM32F4xx_HAL_Driver/Src/stm32f4xx_ll_usb.c ****       }
 2237              		.loc 1 797 36 is_stmt 0 view .LVU729
 2238 00fa 1D69     		ldr	r5, [r3, #16]
 2239 00fc 45F40025 		orr	r5, r5, #524288
 2240 0100 1D61     		str	r5, [r3, #16]
 2241              	.L145:
 811:Drivers/STM32F4xx_HAL_Driver/Src/stm32f4xx_ll_usb.c ****     }
 2242              		.loc 1 811 7 is_stmt 1 view .LVU730
 811:Drivers/STM32F4xx_HAL_Driver/Src/stm32f4xx_ll_usb.c ****     }
 2243              		.loc 1 811 34 is_stmt 0 view .LVU731
 2244 0102 1D69     		ldr	r5, [r3, #16]
 811:Drivers/STM32F4xx_HAL_Driver/Src/stm32f4xx_ll_usb.c ****     }
 2245              		.loc 1 811 62 view .LVU732
 2246 0104 0E69     		ldr	r6, [r1, #16]
 2247 0106 C6F3120C 		ubfx	ip, r6, #0, #19
 811:Drivers/STM32F4xx_HAL_Driver/Src/stm32f4xx_ll_usb.c ****     }
 2248              		.loc 1 811 34 view .LVU733
 2249 010a 45EA0C05 		orr	r5, r5, ip
 2250 010e 1D61     		str	r5, [r3, #16]
 2251 0110 C4E7     		b	.L142
 2252              	.L143:
 801:Drivers/STM32F4xx_HAL_Driver/Src/stm32f4xx_ll_usb.c ****         USBx_INEP(epnum)->DIEPTSIZ |= (USB_OTG_DIEPTSIZ_PKTCNT & ((uint32_t)pktcnt << 19));
 2253              		.loc 1 801 9 is_stmt 1 view .LVU734
 801:Drivers/STM32F4xx_HAL_Driver/Src/stm32f4xx_ll_usb.c ****         USBx_INEP(epnum)->DIEPTSIZ |= (USB_OTG_DIEPTSIZ_PKTCNT & ((uint32_t)pktcnt << 19));
 2254              		.loc 1 801 32 is_stmt 0 view .LVU735
 2255 0112 0D69     		ldr	r5, [r1, #16]
 801:Drivers/STM32F4xx_HAL_Driver/Src/stm32f4xx_ll_usb.c ****         USBx_INEP(epnum)->DIEPTSIZ |= (USB_OTG_DIEPTSIZ_PKTCNT & ((uint32_t)pktcnt << 19));
 2256              		.loc 1 801 47 view .LVU736
 2257 0114 8E68     		ldr	r6, [r1, #8]
 801:Drivers/STM32F4xx_HAL_Driver/Src/stm32f4xx_ll_usb.c ****         USBx_INEP(epnum)->DIEPTSIZ |= (USB_OTG_DIEPTSIZ_PKTCNT & ((uint32_t)pktcnt << 19));
 2258              		.loc 1 801 43 view .LVU737
 2259 0116 3544     		add	r5, r5, r6
 801:Drivers/STM32F4xx_HAL_Driver/Src/stm32f4xx_ll_usb.c ****         USBx_INEP(epnum)->DIEPTSIZ |= (USB_OTG_DIEPTSIZ_PKTCNT & ((uint32_t)pktcnt << 19));
 2260              		.loc 1 801 59 view .LVU738
 2261 0118 013D     		subs	r5, r5, #1
 801:Drivers/STM32F4xx_HAL_Driver/Src/stm32f4xx_ll_usb.c ****         USBx_INEP(epnum)->DIEPTSIZ |= (USB_OTG_DIEPTSIZ_PKTCNT & ((uint32_t)pktcnt << 19));
 2262              		.loc 1 801 65 view .LVU739
 2263 011a B5FBF6F5 		udiv	r5, r5, r6
 2264              	.LVL169:
 802:Drivers/STM32F4xx_HAL_Driver/Src/stm32f4xx_ll_usb.c **** 
 2265              		.loc 1 802 9 is_stmt 1 view .LVU740
 802:Drivers/STM32F4xx_HAL_Driver/Src/stm32f4xx_ll_usb.c **** 
 2266              		.loc 1 802 36 is_stmt 0 view .LVU741
 2267 011e 1E69     		ldr	r6, [r3, #16]
 2268 0120 1FFA85FC 		uxth	ip, r5
 802:Drivers/STM32F4xx_HAL_Driver/Src/stm32f4xx_ll_usb.c **** 
 2269              		.loc 1 802 64 view .LVU742
ARM GAS  /tmp/ccELzqP8.s 			page 78


 2270 0124 494F     		ldr	r7, .L167
 2271 0126 07EAC545 		and	r5, r7, r5, lsl #19
 2272              	.LVL170:
 802:Drivers/STM32F4xx_HAL_Driver/Src/stm32f4xx_ll_usb.c **** 
 2273              		.loc 1 802 36 view .LVU743
 2274 012a 3543     		orrs	r5, r5, r6
 2275 012c 1D61     		str	r5, [r3, #16]
 804:Drivers/STM32F4xx_HAL_Driver/Src/stm32f4xx_ll_usb.c ****         {
 2276              		.loc 1 804 9 is_stmt 1 view .LVU744
 804:Drivers/STM32F4xx_HAL_Driver/Src/stm32f4xx_ll_usb.c ****         {
 2277              		.loc 1 804 15 is_stmt 0 view .LVU745
 2278 012e 0D79     		ldrb	r5, [r1, #4]	@ zero_extendqisi2
 804:Drivers/STM32F4xx_HAL_Driver/Src/stm32f4xx_ll_usb.c ****         {
 2279              		.loc 1 804 12 view .LVU746
 2280 0130 012D     		cmp	r5, #1
 2281 0132 E6D1     		bne	.L145
 806:Drivers/STM32F4xx_HAL_Driver/Src/stm32f4xx_ll_usb.c ****           USBx_INEP(epnum)->DIEPTSIZ |= (USB_OTG_DIEPTSIZ_MULCNT & ((uint32_t)pktcnt << 29));
 2282              		.loc 1 806 11 is_stmt 1 view .LVU747
 806:Drivers/STM32F4xx_HAL_Driver/Src/stm32f4xx_ll_usb.c ****           USBx_INEP(epnum)->DIEPTSIZ |= (USB_OTG_DIEPTSIZ_MULCNT & ((uint32_t)pktcnt << 29));
 2283              		.loc 1 806 38 is_stmt 0 view .LVU748
 2284 0134 1D69     		ldr	r5, [r3, #16]
 2285 0136 25F0C045 		bic	r5, r5, #1610612736
 2286 013a 1D61     		str	r5, [r3, #16]
 807:Drivers/STM32F4xx_HAL_Driver/Src/stm32f4xx_ll_usb.c ****         }
 2287              		.loc 1 807 11 is_stmt 1 view .LVU749
 807:Drivers/STM32F4xx_HAL_Driver/Src/stm32f4xx_ll_usb.c ****         }
 2288              		.loc 1 807 38 is_stmt 0 view .LVU750
 2289 013c 1D69     		ldr	r5, [r3, #16]
 807:Drivers/STM32F4xx_HAL_Driver/Src/stm32f4xx_ll_usb.c ****         }
 2290              		.loc 1 807 86 view .LVU751
 2291 013e 4FEA4C7C 		lsl	ip, ip, #29
 2292              	.LVL171:
 807:Drivers/STM32F4xx_HAL_Driver/Src/stm32f4xx_ll_usb.c ****         }
 2293              		.loc 1 807 66 view .LVU752
 2294 0142 0CF0C04C 		and	ip, ip, #1610612736
 807:Drivers/STM32F4xx_HAL_Driver/Src/stm32f4xx_ll_usb.c ****         }
 2295              		.loc 1 807 38 view .LVU753
 2296 0146 45EA0C05 		orr	r5, r5, ip
 2297 014a 1D61     		str	r5, [r3, #16]
 2298 014c D9E7     		b	.L145
 2299              	.L165:
 816:Drivers/STM32F4xx_HAL_Driver/Src/stm32f4xx_ll_usb.c ****       {
 2300              		.loc 1 816 7 is_stmt 1 view .LVU754
 816:Drivers/STM32F4xx_HAL_Driver/Src/stm32f4xx_ll_usb.c ****       {
 2301              		.loc 1 816 23 is_stmt 0 view .LVU755
 2302 014e CB69     		ldr	r3, [r1, #28]
 816:Drivers/STM32F4xx_HAL_Driver/Src/stm32f4xx_ll_usb.c ****       {
 2303              		.loc 1 816 10 view .LVU756
 2304 0150 1BB1     		cbz	r3, .L147
 818:Drivers/STM32F4xx_HAL_Driver/Src/stm32f4xx_ll_usb.c ****       }
 2305              		.loc 1 818 9 is_stmt 1 view .LVU757
 2306 0152 00EB4412 		add	r2, r0, r4, lsl #5
 2307              	.LVL172:
 818:Drivers/STM32F4xx_HAL_Driver/Src/stm32f4xx_ll_usb.c ****       }
 2308              		.loc 1 818 35 is_stmt 0 view .LVU758
 2309 0156 C2F81439 		str	r3, [r2, #2324]
 2310              	.L147:
ARM GAS  /tmp/ccELzqP8.s 			page 79


 821:Drivers/STM32F4xx_HAL_Driver/Src/stm32f4xx_ll_usb.c ****       {
 2311              		.loc 1 821 7 is_stmt 1 view .LVU759
 821:Drivers/STM32F4xx_HAL_Driver/Src/stm32f4xx_ll_usb.c ****       {
 2312              		.loc 1 821 13 is_stmt 0 view .LVU760
 2313 015a 0B79     		ldrb	r3, [r1, #4]	@ zero_extendqisi2
 821:Drivers/STM32F4xx_HAL_Driver/Src/stm32f4xx_ll_usb.c ****       {
 2314              		.loc 1 821 10 view .LVU761
 2315 015c 012B     		cmp	r3, #1
 2316 015e 08D0     		beq	.L166
 2317              	.L148:
 834:Drivers/STM32F4xx_HAL_Driver/Src/stm32f4xx_ll_usb.c ****     }
 2318              		.loc 1 834 7 is_stmt 1 view .LVU762
 834:Drivers/STM32F4xx_HAL_Driver/Src/stm32f4xx_ll_usb.c ****     }
 2319              		.loc 1 834 33 is_stmt 0 view .LVU763
 2320 0160 00EB4410 		add	r0, r0, r4, lsl #5
 2321              	.LVL173:
 834:Drivers/STM32F4xx_HAL_Driver/Src/stm32f4xx_ll_usb.c ****     }
 2322              		.loc 1 834 33 view .LVU764
 2323 0164 D0F80039 		ldr	r3, [r0, #2304]
 2324 0168 43F00443 		orr	r3, r3, #-2080374784
 2325 016c C0F80039 		str	r3, [r0, #2304]
 2326 0170 79E7     		b	.L150
 2327              	.LVL174:
 2328              	.L166:
 823:Drivers/STM32F4xx_HAL_Driver/Src/stm32f4xx_ll_usb.c ****         {
 2329              		.loc 1 823 9 is_stmt 1 view .LVU765
 823:Drivers/STM32F4xx_HAL_Driver/Src/stm32f4xx_ll_usb.c ****         {
 2330              		.loc 1 823 25 is_stmt 0 view .LVU766
 2331 0172 D0F80838 		ldr	r3, [r0, #2056]
 823:Drivers/STM32F4xx_HAL_Driver/Src/stm32f4xx_ll_usb.c ****         {
 2332              		.loc 1 823 12 view .LVU767
 2333 0176 13F4807F 		tst	r3, #256
 2334 017a 08D1     		bne	.L149
 825:Drivers/STM32F4xx_HAL_Driver/Src/stm32f4xx_ll_usb.c ****         }
 2335              		.loc 1 825 11 is_stmt 1 view .LVU768
 825:Drivers/STM32F4xx_HAL_Driver/Src/stm32f4xx_ll_usb.c ****         }
 2336              		.loc 1 825 37 is_stmt 0 view .LVU769
 2337 017c 00EB4412 		add	r2, r0, r4, lsl #5
 2338 0180 D2F80039 		ldr	r3, [r2, #2304]
 2339 0184 43F00053 		orr	r3, r3, #536870912
 2340 0188 C2F80039 		str	r3, [r2, #2304]
 2341 018c E8E7     		b	.L148
 2342              	.L149:
 829:Drivers/STM32F4xx_HAL_Driver/Src/stm32f4xx_ll_usb.c ****         }
 2343              		.loc 1 829 11 is_stmt 1 view .LVU770
 829:Drivers/STM32F4xx_HAL_Driver/Src/stm32f4xx_ll_usb.c ****         }
 2344              		.loc 1 829 37 is_stmt 0 view .LVU771
 2345 018e 00EB4412 		add	r2, r0, r4, lsl #5
 2346 0192 D2F80039 		ldr	r3, [r2, #2304]
 2347 0196 43F08053 		orr	r3, r3, #268435456
 2348 019a C2F80039 		str	r3, [r2, #2304]
 2349 019e DFE7     		b	.L148
 2350              	.LVL175:
 2351              	.L151:
 851:Drivers/STM32F4xx_HAL_Driver/Src/stm32f4xx_ll_usb.c ****         {
 2352              		.loc 1 851 9 is_stmt 1 view .LVU772
 851:Drivers/STM32F4xx_HAL_Driver/Src/stm32f4xx_ll_usb.c ****         {
ARM GAS  /tmp/ccELzqP8.s 			page 80


 2353              		.loc 1 851 25 is_stmt 0 view .LVU773
 2354 01a0 D0F80838 		ldr	r3, [r0, #2056]
 851:Drivers/STM32F4xx_HAL_Driver/Src/stm32f4xx_ll_usb.c ****         {
 2355              		.loc 1 851 12 view .LVU774
 2356 01a4 13F4807F 		tst	r3, #256
 2357 01a8 0CD1     		bne	.L152
 853:Drivers/STM32F4xx_HAL_Driver/Src/stm32f4xx_ll_usb.c ****         }
 2358              		.loc 1 853 11 is_stmt 1 view .LVU775
 853:Drivers/STM32F4xx_HAL_Driver/Src/stm32f4xx_ll_usb.c ****         }
 2359              		.loc 1 853 37 is_stmt 0 view .LVU776
 2360 01aa D4F80039 		ldr	r3, [r4, #2304]
 2361 01ae 43F00053 		orr	r3, r3, #536870912
 2362 01b2 C4F80039 		str	r3, [r4, #2304]
 2363              	.L153:
 860:Drivers/STM32F4xx_HAL_Driver/Src/stm32f4xx_ll_usb.c ****       }
 2364              		.loc 1 860 9 is_stmt 1 view .LVU777
 860:Drivers/STM32F4xx_HAL_Driver/Src/stm32f4xx_ll_usb.c ****       }
 2365              		.loc 1 860 15 is_stmt 0 view .LVU778
 2366 01b6 0092     		str	r2, [sp]
 2367 01b8 0B8A     		ldrh	r3, [r1, #16]
 2368 01ba 0A78     		ldrb	r2, [r1]	@ zero_extendqisi2
 2369              	.LVL176:
 860:Drivers/STM32F4xx_HAL_Driver/Src/stm32f4xx_ll_usb.c ****       }
 2370              		.loc 1 860 15 view .LVU779
 2371 01bc C968     		ldr	r1, [r1, #12]
 2372              	.LVL177:
 860:Drivers/STM32F4xx_HAL_Driver/Src/stm32f4xx_ll_usb.c ****       }
 2373              		.loc 1 860 15 view .LVU780
 2374 01be FFF7FEFF 		bl	USB_WritePacket
 2375              	.LVL178:
 860:Drivers/STM32F4xx_HAL_Driver/Src/stm32f4xx_ll_usb.c ****       }
 2376              		.loc 1 860 15 view .LVU781
 2377 01c2 50E7     		b	.L150
 2378              	.LVL179:
 2379              	.L152:
 857:Drivers/STM32F4xx_HAL_Driver/Src/stm32f4xx_ll_usb.c ****         }
 2380              		.loc 1 857 11 is_stmt 1 view .LVU782
 857:Drivers/STM32F4xx_HAL_Driver/Src/stm32f4xx_ll_usb.c ****         }
 2381              		.loc 1 857 37 is_stmt 0 view .LVU783
 2382 01c4 D4F80039 		ldr	r3, [r4, #2304]
 2383 01c8 43F08053 		orr	r3, r3, #268435456
 2384 01cc C4F80039 		str	r3, [r4, #2304]
 2385 01d0 F1E7     		b	.L153
 2386              	.LVL180:
 2387              	.L154:
 888:Drivers/STM32F4xx_HAL_Driver/Src/stm32f4xx_ll_usb.c ****       {
 2388              		.loc 1 888 7 is_stmt 1 view .LVU784
 888:Drivers/STM32F4xx_HAL_Driver/Src/stm32f4xx_ll_usb.c ****       {
 2389              		.loc 1 888 13 is_stmt 0 view .LVU785
 2390 01d2 0C69     		ldr	r4, [r1, #16]
 2391              	.LVL181:
 888:Drivers/STM32F4xx_HAL_Driver/Src/stm32f4xx_ll_usb.c ****       {
 2392              		.loc 1 888 10 view .LVU786
 2393 01d4 54B9     		cbnz	r4, .L157
 890:Drivers/STM32F4xx_HAL_Driver/Src/stm32f4xx_ll_usb.c ****         USBx_OUTEP(epnum)->DOEPTSIZ |= (USB_OTG_DOEPTSIZ_PKTCNT & (1U << 19));
 2394              		.loc 1 890 9 is_stmt 1 view .LVU787
 890:Drivers/STM32F4xx_HAL_Driver/Src/stm32f4xx_ll_usb.c ****         USBx_OUTEP(epnum)->DOEPTSIZ |= (USB_OTG_DOEPTSIZ_PKTCNT & (1U << 19));
ARM GAS  /tmp/ccELzqP8.s 			page 81


 2395              		.loc 1 890 37 is_stmt 0 view .LVU788
 2396 01d6 1C69     		ldr	r4, [r3, #16]
 890:Drivers/STM32F4xx_HAL_Driver/Src/stm32f4xx_ll_usb.c ****         USBx_OUTEP(epnum)->DOEPTSIZ |= (USB_OTG_DOEPTSIZ_PKTCNT & (1U << 19));
 2397              		.loc 1 890 69 view .LVU789
 2398 01d8 8D68     		ldr	r5, [r1, #8]
 890:Drivers/STM32F4xx_HAL_Driver/Src/stm32f4xx_ll_usb.c ****         USBx_OUTEP(epnum)->DOEPTSIZ |= (USB_OTG_DOEPTSIZ_PKTCNT & (1U << 19));
 2399              		.loc 1 890 65 view .LVU790
 2400 01da C5F31205 		ubfx	r5, r5, #0, #19
 890:Drivers/STM32F4xx_HAL_Driver/Src/stm32f4xx_ll_usb.c ****         USBx_OUTEP(epnum)->DOEPTSIZ |= (USB_OTG_DOEPTSIZ_PKTCNT & (1U << 19));
 2401              		.loc 1 890 37 view .LVU791
 2402 01de 2C43     		orrs	r4, r4, r5
 2403 01e0 1C61     		str	r4, [r3, #16]
 891:Drivers/STM32F4xx_HAL_Driver/Src/stm32f4xx_ll_usb.c ****       }
 2404              		.loc 1 891 9 is_stmt 1 view .LVU792
 891:Drivers/STM32F4xx_HAL_Driver/Src/stm32f4xx_ll_usb.c ****       }
 2405              		.loc 1 891 37 is_stmt 0 view .LVU793
 2406 01e2 1C69     		ldr	r4, [r3, #16]
 2407 01e4 44F40024 		orr	r4, r4, #524288
 2408 01e8 1C61     		str	r4, [r3, #16]
 2409 01ea 2FE7     		b	.L156
 2410              	.L157:
 895:Drivers/STM32F4xx_HAL_Driver/Src/stm32f4xx_ll_usb.c ****         ep->xfer_size = ep->maxpacket * pktcnt;
 2411              		.loc 1 895 9 is_stmt 1 view .LVU794
 895:Drivers/STM32F4xx_HAL_Driver/Src/stm32f4xx_ll_usb.c ****         ep->xfer_size = ep->maxpacket * pktcnt;
 2412              		.loc 1 895 47 is_stmt 0 view .LVU795
 2413 01ec 8D68     		ldr	r5, [r1, #8]
 895:Drivers/STM32F4xx_HAL_Driver/Src/stm32f4xx_ll_usb.c ****         ep->xfer_size = ep->maxpacket * pktcnt;
 2414              		.loc 1 895 43 view .LVU796
 2415 01ee 2C44     		add	r4, r4, r5
 895:Drivers/STM32F4xx_HAL_Driver/Src/stm32f4xx_ll_usb.c ****         ep->xfer_size = ep->maxpacket * pktcnt;
 2416              		.loc 1 895 59 view .LVU797
 2417 01f0 013C     		subs	r4, r4, #1
 895:Drivers/STM32F4xx_HAL_Driver/Src/stm32f4xx_ll_usb.c ****         ep->xfer_size = ep->maxpacket * pktcnt;
 2418              		.loc 1 895 65 view .LVU798
 2419 01f2 B4FBF5F4 		udiv	r4, r4, r5
 2420              	.LVL182:
 896:Drivers/STM32F4xx_HAL_Driver/Src/stm32f4xx_ll_usb.c **** 
 2421              		.loc 1 896 9 is_stmt 1 view .LVU799
 2422 01f6 A4B2     		uxth	r4, r4
 896:Drivers/STM32F4xx_HAL_Driver/Src/stm32f4xx_ll_usb.c **** 
 2423              		.loc 1 896 39 is_stmt 0 view .LVU800
 2424 01f8 04FB05F5 		mul	r5, r4, r5
 896:Drivers/STM32F4xx_HAL_Driver/Src/stm32f4xx_ll_usb.c **** 
 2425              		.loc 1 896 23 view .LVU801
 2426 01fc 0D62     		str	r5, [r1, #32]
 898:Drivers/STM32F4xx_HAL_Driver/Src/stm32f4xx_ll_usb.c ****         USBx_OUTEP(epnum)->DOEPTSIZ |= USB_OTG_DOEPTSIZ_XFRSIZ & ep->xfer_size;
 2427              		.loc 1 898 9 is_stmt 1 view .LVU802
 898:Drivers/STM32F4xx_HAL_Driver/Src/stm32f4xx_ll_usb.c ****         USBx_OUTEP(epnum)->DOEPTSIZ |= USB_OTG_DOEPTSIZ_XFRSIZ & ep->xfer_size;
 2428              		.loc 1 898 37 is_stmt 0 view .LVU803
 2429 01fe 1D69     		ldr	r5, [r3, #16]
 898:Drivers/STM32F4xx_HAL_Driver/Src/stm32f4xx_ll_usb.c ****         USBx_OUTEP(epnum)->DOEPTSIZ |= USB_OTG_DOEPTSIZ_XFRSIZ & ep->xfer_size;
 2430              		.loc 1 898 64 view .LVU804
 2431 0200 124E     		ldr	r6, .L167
 2432 0202 06EAC444 		and	r4, r6, r4, lsl #19
 2433              	.LVL183:
 898:Drivers/STM32F4xx_HAL_Driver/Src/stm32f4xx_ll_usb.c ****         USBx_OUTEP(epnum)->DOEPTSIZ |= USB_OTG_DOEPTSIZ_XFRSIZ & ep->xfer_size;
 2434              		.loc 1 898 37 view .LVU805
ARM GAS  /tmp/ccELzqP8.s 			page 82


 2435 0206 2C43     		orrs	r4, r4, r5
 2436 0208 1C61     		str	r4, [r3, #16]
 2437              	.LVL184:
 899:Drivers/STM32F4xx_HAL_Driver/Src/stm32f4xx_ll_usb.c ****       }
 2438              		.loc 1 899 9 is_stmt 1 view .LVU806
 899:Drivers/STM32F4xx_HAL_Driver/Src/stm32f4xx_ll_usb.c ****       }
 2439              		.loc 1 899 37 is_stmt 0 view .LVU807
 2440 020a 1C69     		ldr	r4, [r3, #16]
 899:Drivers/STM32F4xx_HAL_Driver/Src/stm32f4xx_ll_usb.c ****       }
 2441              		.loc 1 899 68 view .LVU808
 2442 020c 0D6A     		ldr	r5, [r1, #32]
 899:Drivers/STM32F4xx_HAL_Driver/Src/stm32f4xx_ll_usb.c ****       }
 2443              		.loc 1 899 64 view .LVU809
 2444 020e C5F31205 		ubfx	r5, r5, #0, #19
 899:Drivers/STM32F4xx_HAL_Driver/Src/stm32f4xx_ll_usb.c ****       }
 2445              		.loc 1 899 37 view .LVU810
 2446 0212 2C43     		orrs	r4, r4, r5
 2447 0214 1C61     		str	r4, [r3, #16]
 2448 0216 19E7     		b	.L156
 2449              	.L163:
 905:Drivers/STM32F4xx_HAL_Driver/Src/stm32f4xx_ll_usb.c ****       {
 2450              		.loc 1 905 7 is_stmt 1 view .LVU811
 905:Drivers/STM32F4xx_HAL_Driver/Src/stm32f4xx_ll_usb.c ****       {
 2451              		.loc 1 905 23 is_stmt 0 view .LVU812
 2452 0218 CA68     		ldr	r2, [r1, #12]
 2453              	.LVL185:
 905:Drivers/STM32F4xx_HAL_Driver/Src/stm32f4xx_ll_usb.c ****       {
 2454              		.loc 1 905 10 view .LVU813
 2455 021a 002A     		cmp	r2, #0
 2456 021c 3FF419AF 		beq	.L158
 907:Drivers/STM32F4xx_HAL_Driver/Src/stm32f4xx_ll_usb.c ****       }
 2457              		.loc 1 907 9 is_stmt 1 view .LVU814
 907:Drivers/STM32F4xx_HAL_Driver/Src/stm32f4xx_ll_usb.c ****       }
 2458              		.loc 1 907 36 is_stmt 0 view .LVU815
 2459 0220 5A61     		str	r2, [r3, #20]
 2460 0222 16E7     		b	.L158
 2461              	.L164:
 913:Drivers/STM32F4xx_HAL_Driver/Src/stm32f4xx_ll_usb.c ****       {
 2462              		.loc 1 913 7 is_stmt 1 view .LVU816
 913:Drivers/STM32F4xx_HAL_Driver/Src/stm32f4xx_ll_usb.c ****       {
 2463              		.loc 1 913 23 is_stmt 0 view .LVU817
 2464 0224 D0F80838 		ldr	r3, [r0, #2056]
 913:Drivers/STM32F4xx_HAL_Driver/Src/stm32f4xx_ll_usb.c ****       {
 2465              		.loc 1 913 10 view .LVU818
 2466 0228 13F4807F 		tst	r3, #256
 2467 022c 06D1     		bne	.L160
 915:Drivers/STM32F4xx_HAL_Driver/Src/stm32f4xx_ll_usb.c ****       }
 2468              		.loc 1 915 9 is_stmt 1 view .LVU819
 915:Drivers/STM32F4xx_HAL_Driver/Src/stm32f4xx_ll_usb.c ****       }
 2469              		.loc 1 915 36 is_stmt 0 view .LVU820
 2470 022e DCF8003B 		ldr	r3, [ip, #2816]
 2471 0232 43F00053 		orr	r3, r3, #536870912
 2472 0236 CCF8003B 		str	r3, [ip, #2816]
 2473 023a 0EE7     		b	.L159
 2474              	.L160:
 919:Drivers/STM32F4xx_HAL_Driver/Src/stm32f4xx_ll_usb.c ****       }
 2475              		.loc 1 919 9 is_stmt 1 view .LVU821
ARM GAS  /tmp/ccELzqP8.s 			page 83


 919:Drivers/STM32F4xx_HAL_Driver/Src/stm32f4xx_ll_usb.c ****       }
 2476              		.loc 1 919 36 is_stmt 0 view .LVU822
 2477 023c DCF8003B 		ldr	r3, [ip, #2816]
 2478 0240 43F08053 		orr	r3, r3, #268435456
 2479 0244 CCF8003B 		str	r3, [ip, #2816]
 2480 0248 07E7     		b	.L159
 2481              	.L168:
 2482 024a 00BF     		.align	2
 2483              	.L167:
 2484 024c 0000F81F 		.word	536346624
 2485              		.cfi_endproc
 2486              	.LFE148:
 2488              		.section	.text.USB_ReadPacket,"ax",%progbits
 2489              		.align	1
 2490              		.global	USB_ReadPacket
 2491              		.syntax unified
 2492              		.thumb
 2493              		.thumb_func
 2494              		.fpu fpv4-sp-d16
 2496              	USB_ReadPacket:
 2497              	.LVL186:
 2498              	.LFB151:
1032:Drivers/STM32F4xx_HAL_Driver/Src/stm32f4xx_ll_usb.c ****   uint32_t USBx_BASE = (uint32_t)USBx;
 2499              		.loc 1 1032 1 is_stmt 1 view -0
 2500              		.cfi_startproc
 2501              		@ args = 0, pretend = 0, frame = 8
 2502              		@ frame_needed = 0, uses_anonymous_args = 0
1032:Drivers/STM32F4xx_HAL_Driver/Src/stm32f4xx_ll_usb.c ****   uint32_t USBx_BASE = (uint32_t)USBx;
 2503              		.loc 1 1032 1 is_stmt 0 view .LVU824
 2504 0000 00B5     		push	{lr}
 2505              	.LCFI34:
 2506              		.cfi_def_cfa_offset 4
 2507              		.cfi_offset 14, -4
 2508 0002 83B0     		sub	sp, sp, #12
 2509              	.LCFI35:
 2510              		.cfi_def_cfa_offset 16
 2511 0004 8446     		mov	ip, r0
 2512 0006 0846     		mov	r0, r1
 2513              	.LVL187:
1033:Drivers/STM32F4xx_HAL_Driver/Src/stm32f4xx_ll_usb.c ****   uint8_t *pDest = dest;
 2514              		.loc 1 1033 3 is_stmt 1 view .LVU825
1034:Drivers/STM32F4xx_HAL_Driver/Src/stm32f4xx_ll_usb.c ****   uint32_t pData;
 2515              		.loc 1 1034 3 view .LVU826
1035:Drivers/STM32F4xx_HAL_Driver/Src/stm32f4xx_ll_usb.c ****   uint32_t i;
 2516              		.loc 1 1035 3 view .LVU827
1036:Drivers/STM32F4xx_HAL_Driver/Src/stm32f4xx_ll_usb.c ****   uint32_t count32b = (uint32_t)len >> 2U;
 2517              		.loc 1 1036 3 view .LVU828
1037:Drivers/STM32F4xx_HAL_Driver/Src/stm32f4xx_ll_usb.c ****   uint16_t remaining_bytes = len % 4U;
 2518              		.loc 1 1037 3 view .LVU829
1037:Drivers/STM32F4xx_HAL_Driver/Src/stm32f4xx_ll_usb.c ****   uint16_t remaining_bytes = len % 4U;
 2519              		.loc 1 1037 37 is_stmt 0 view .LVU830
 2520 0008 4FEA920E 		lsr	lr, r2, #2
 2521              	.LVL188:
1038:Drivers/STM32F4xx_HAL_Driver/Src/stm32f4xx_ll_usb.c **** 
 2522              		.loc 1 1038 3 is_stmt 1 view .LVU831
1038:Drivers/STM32F4xx_HAL_Driver/Src/stm32f4xx_ll_usb.c **** 
 2523              		.loc 1 1038 12 is_stmt 0 view .LVU832
ARM GAS  /tmp/ccELzqP8.s 			page 84


 2524 000c 02F00302 		and	r2, r2, #3
 2525              	.LVL189:
1040:Drivers/STM32F4xx_HAL_Driver/Src/stm32f4xx_ll_usb.c ****   {
 2526              		.loc 1 1040 3 is_stmt 1 view .LVU833
1040:Drivers/STM32F4xx_HAL_Driver/Src/stm32f4xx_ll_usb.c ****   {
 2527              		.loc 1 1040 10 is_stmt 0 view .LVU834
 2528 0010 0023     		movs	r3, #0
1040:Drivers/STM32F4xx_HAL_Driver/Src/stm32f4xx_ll_usb.c ****   {
 2529              		.loc 1 1040 3 view .LVU835
 2530 0012 05E0     		b	.L170
 2531              	.LVL190:
 2532              	.L171:
1042:Drivers/STM32F4xx_HAL_Driver/Src/stm32f4xx_ll_usb.c ****     pDest++;
 2533              		.loc 1 1042 5 is_stmt 1 discriminator 3 view .LVU836
 2534 0014 0CF58051 		add	r1, ip, #4096
 2535 0018 0968     		ldr	r1, [r1]
 2536 001a 40F8041B 		str	r1, [r0], #4	@ unaligned
 2537              	.LVL191:
1043:Drivers/STM32F4xx_HAL_Driver/Src/stm32f4xx_ll_usb.c ****     pDest++;
 2538              		.loc 1 1043 5 discriminator 3 view .LVU837
1044:Drivers/STM32F4xx_HAL_Driver/Src/stm32f4xx_ll_usb.c ****     pDest++;
 2539              		.loc 1 1044 5 discriminator 3 view .LVU838
1045:Drivers/STM32F4xx_HAL_Driver/Src/stm32f4xx_ll_usb.c ****     pDest++;
 2540              		.loc 1 1045 5 discriminator 3 view .LVU839
1046:Drivers/STM32F4xx_HAL_Driver/Src/stm32f4xx_ll_usb.c ****   }
 2541              		.loc 1 1046 5 discriminator 3 view .LVU840
1040:Drivers/STM32F4xx_HAL_Driver/Src/stm32f4xx_ll_usb.c ****   {
 2542              		.loc 1 1040 30 discriminator 3 view .LVU841
1040:Drivers/STM32F4xx_HAL_Driver/Src/stm32f4xx_ll_usb.c ****   {
 2543              		.loc 1 1040 31 is_stmt 0 discriminator 3 view .LVU842
 2544 001e 0133     		adds	r3, r3, #1
 2545              	.LVL192:
 2546              	.L170:
1040:Drivers/STM32F4xx_HAL_Driver/Src/stm32f4xx_ll_usb.c ****   {
 2547              		.loc 1 1040 16 is_stmt 1 discriminator 1 view .LVU843
1040:Drivers/STM32F4xx_HAL_Driver/Src/stm32f4xx_ll_usb.c ****   {
 2548              		.loc 1 1040 3 is_stmt 0 discriminator 1 view .LVU844
 2549 0020 7345     		cmp	r3, lr
 2550 0022 F7D3     		bcc	.L171
1050:Drivers/STM32F4xx_HAL_Driver/Src/stm32f4xx_ll_usb.c ****   {
 2551              		.loc 1 1050 3 is_stmt 1 view .LVU845
1050:Drivers/STM32F4xx_HAL_Driver/Src/stm32f4xx_ll_usb.c ****   {
 2552              		.loc 1 1050 6 is_stmt 0 view .LVU846
 2553 0024 9AB1     		cbz	r2, .L172
1052:Drivers/STM32F4xx_HAL_Driver/Src/stm32f4xx_ll_usb.c ****     __UNALIGNED_UINT32_WRITE(&pData, USBx_DFIFO(0U));
 2554              		.loc 1 1052 5 is_stmt 1 view .LVU847
 2555              	.LVL193:
1053:Drivers/STM32F4xx_HAL_Driver/Src/stm32f4xx_ll_usb.c **** 
 2556              		.loc 1 1053 5 view .LVU848
 2557 0026 0CF5805C 		add	ip, ip, #4096
 2558              	.LVL194:
1053:Drivers/STM32F4xx_HAL_Driver/Src/stm32f4xx_ll_usb.c **** 
 2559              		.loc 1 1053 5 is_stmt 0 view .LVU849
 2560 002a DCF80030 		ldr	r3, [ip]
 2561 002e 0193     		str	r3, [sp, #4]
1052:Drivers/STM32F4xx_HAL_Driver/Src/stm32f4xx_ll_usb.c ****     __UNALIGNED_UINT32_WRITE(&pData, USBx_DFIFO(0U));
 2562              		.loc 1 1052 7 view .LVU850
ARM GAS  /tmp/ccELzqP8.s 			page 85


 2563 0030 4FF0000C 		mov	ip, #0
 2564              	.LVL195:
 2565              	.L173:
1055:Drivers/STM32F4xx_HAL_Driver/Src/stm32f4xx_ll_usb.c ****     {
 2566              		.loc 1 1055 5 is_stmt 1 discriminator 1 view .LVU851
1057:Drivers/STM32F4xx_HAL_Driver/Src/stm32f4xx_ll_usb.c ****       i++;
 2567              		.loc 1 1057 7 discriminator 1 view .LVU852
1057:Drivers/STM32F4xx_HAL_Driver/Src/stm32f4xx_ll_usb.c ****       i++;
 2568              		.loc 1 1057 50 is_stmt 0 discriminator 1 view .LVU853
 2569 0034 5FFA8CF3 		uxtb	r3, ip
 2570 0038 D900     		lsls	r1, r3, #3
1057:Drivers/STM32F4xx_HAL_Driver/Src/stm32f4xx_ll_usb.c ****       i++;
 2571              		.loc 1 1057 43 discriminator 1 view .LVU854
 2572 003a 019B     		ldr	r3, [sp, #4]
 2573 003c CB40     		lsrs	r3, r3, r1
1057:Drivers/STM32F4xx_HAL_Driver/Src/stm32f4xx_ll_usb.c ****       i++;
 2574              		.loc 1 1057 25 discriminator 1 view .LVU855
 2575 003e 00F8013B 		strb	r3, [r0], #1
 2576              	.LVL196:
1058:Drivers/STM32F4xx_HAL_Driver/Src/stm32f4xx_ll_usb.c ****       pDest++;
 2577              		.loc 1 1058 7 is_stmt 1 discriminator 1 view .LVU856
1058:Drivers/STM32F4xx_HAL_Driver/Src/stm32f4xx_ll_usb.c ****       pDest++;
 2578              		.loc 1 1058 8 is_stmt 0 discriminator 1 view .LVU857
 2579 0042 0CF1010C 		add	ip, ip, #1
 2580              	.LVL197:
1059:Drivers/STM32F4xx_HAL_Driver/Src/stm32f4xx_ll_usb.c ****       remaining_bytes--;
 2581              		.loc 1 1059 7 is_stmt 1 discriminator 1 view .LVU858
1060:Drivers/STM32F4xx_HAL_Driver/Src/stm32f4xx_ll_usb.c ****     } while (remaining_bytes != 0U);
 2582              		.loc 1 1060 7 discriminator 1 view .LVU859
1060:Drivers/STM32F4xx_HAL_Driver/Src/stm32f4xx_ll_usb.c ****     } while (remaining_bytes != 0U);
 2583              		.loc 1 1060 22 is_stmt 0 discriminator 1 view .LVU860
 2584 0046 013A     		subs	r2, r2, #1
 2585              	.LVL198:
1060:Drivers/STM32F4xx_HAL_Driver/Src/stm32f4xx_ll_usb.c ****     } while (remaining_bytes != 0U);
 2586              		.loc 1 1060 22 discriminator 1 view .LVU861
 2587 0048 92B2     		uxth	r2, r2
 2588              	.LVL199:
1061:Drivers/STM32F4xx_HAL_Driver/Src/stm32f4xx_ll_usb.c ****   }
 2589              		.loc 1 1061 13 is_stmt 1 discriminator 1 view .LVU862
1061:Drivers/STM32F4xx_HAL_Driver/Src/stm32f4xx_ll_usb.c ****   }
 2590              		.loc 1 1061 5 is_stmt 0 discriminator 1 view .LVU863
 2591 004a 002A     		cmp	r2, #0
 2592 004c F2D1     		bne	.L173
 2593              	.LVL200:
 2594              	.L172:
1064:Drivers/STM32F4xx_HAL_Driver/Src/stm32f4xx_ll_usb.c **** }
 2595              		.loc 1 1064 3 is_stmt 1 view .LVU864
1065:Drivers/STM32F4xx_HAL_Driver/Src/stm32f4xx_ll_usb.c **** 
 2596              		.loc 1 1065 1 is_stmt 0 view .LVU865
 2597 004e 03B0     		add	sp, sp, #12
 2598              	.LCFI36:
 2599              		.cfi_def_cfa_offset 4
 2600              		@ sp needed
 2601 0050 5DF804FB 		ldr	pc, [sp], #4
 2602              		.cfi_endproc
 2603              	.LFE151:
 2605              		.section	.text.USB_EPSetStall,"ax",%progbits
ARM GAS  /tmp/ccELzqP8.s 			page 86


 2606              		.align	1
 2607              		.global	USB_EPSetStall
 2608              		.syntax unified
 2609              		.thumb
 2610              		.thumb_func
 2611              		.fpu fpv4-sp-d16
 2613              	USB_EPSetStall:
 2614              	.LVL201:
 2615              	.LFB152:
1074:Drivers/STM32F4xx_HAL_Driver/Src/stm32f4xx_ll_usb.c ****   uint32_t USBx_BASE = (uint32_t)USBx;
 2616              		.loc 1 1074 1 is_stmt 1 view -0
 2617              		.cfi_startproc
 2618              		@ args = 0, pretend = 0, frame = 0
 2619              		@ frame_needed = 0, uses_anonymous_args = 0
 2620              		@ link register save eliminated.
1075:Drivers/STM32F4xx_HAL_Driver/Src/stm32f4xx_ll_usb.c ****   uint32_t epnum = (uint32_t)ep->num;
 2621              		.loc 1 1075 3 view .LVU867
1076:Drivers/STM32F4xx_HAL_Driver/Src/stm32f4xx_ll_usb.c **** 
 2622              		.loc 1 1076 3 view .LVU868
1076:Drivers/STM32F4xx_HAL_Driver/Src/stm32f4xx_ll_usb.c **** 
 2623              		.loc 1 1076 32 is_stmt 0 view .LVU869
 2624 0000 0B78     		ldrb	r3, [r1]	@ zero_extendqisi2
 2625              	.LVL202:
1078:Drivers/STM32F4xx_HAL_Driver/Src/stm32f4xx_ll_usb.c ****   {
 2626              		.loc 1 1078 3 is_stmt 1 view .LVU870
1078:Drivers/STM32F4xx_HAL_Driver/Src/stm32f4xx_ll_usb.c ****   {
 2627              		.loc 1 1078 9 is_stmt 0 view .LVU871
 2628 0002 4A78     		ldrb	r2, [r1, #1]	@ zero_extendqisi2
1078:Drivers/STM32F4xx_HAL_Driver/Src/stm32f4xx_ll_usb.c ****   {
 2629              		.loc 1 1078 6 view .LVU872
 2630 0004 012A     		cmp	r2, #1
 2631 0006 14D0     		beq	.L180
1088:Drivers/STM32F4xx_HAL_Driver/Src/stm32f4xx_ll_usb.c ****     {
 2632              		.loc 1 1088 5 is_stmt 1 view .LVU873
1088:Drivers/STM32F4xx_HAL_Driver/Src/stm32f4xx_ll_usb.c ****     {
 2633              		.loc 1 1088 11 is_stmt 0 view .LVU874
 2634 0008 00EB4310 		add	r0, r0, r3, lsl #5
 2635              	.LVL203:
1088:Drivers/STM32F4xx_HAL_Driver/Src/stm32f4xx_ll_usb.c ****     {
 2636              		.loc 1 1088 28 view .LVU875
 2637 000c D0F8002B 		ldr	r2, [r0, #2816]
1088:Drivers/STM32F4xx_HAL_Driver/Src/stm32f4xx_ll_usb.c ****     {
 2638              		.loc 1 1088 8 view .LVU876
 2639 0010 002A     		cmp	r2, #0
 2640 0012 06DB     		blt	.L179
1088:Drivers/STM32F4xx_HAL_Driver/Src/stm32f4xx_ll_usb.c ****     {
 2641              		.loc 1 1088 70 discriminator 1 view .LVU877
 2642 0014 2BB1     		cbz	r3, .L179
1090:Drivers/STM32F4xx_HAL_Driver/Src/stm32f4xx_ll_usb.c ****     }
 2643              		.loc 1 1090 7 is_stmt 1 view .LVU878
1090:Drivers/STM32F4xx_HAL_Driver/Src/stm32f4xx_ll_usb.c ****     }
 2644              		.loc 1 1090 34 is_stmt 0 view .LVU879
 2645 0016 D0F8003B 		ldr	r3, [r0, #2816]
 2646              	.LVL204:
1090:Drivers/STM32F4xx_HAL_Driver/Src/stm32f4xx_ll_usb.c ****     }
 2647              		.loc 1 1090 34 view .LVU880
 2648 001a 23F08043 		bic	r3, r3, #1073741824
ARM GAS  /tmp/ccELzqP8.s 			page 87


 2649 001e C0F8003B 		str	r3, [r0, #2816]
 2650              	.LVL205:
 2651              	.L179:
1092:Drivers/STM32F4xx_HAL_Driver/Src/stm32f4xx_ll_usb.c ****   }
 2652              		.loc 1 1092 5 is_stmt 1 view .LVU881
1092:Drivers/STM32F4xx_HAL_Driver/Src/stm32f4xx_ll_usb.c ****   }
 2653              		.loc 1 1092 32 is_stmt 0 view .LVU882
 2654 0022 D0F8003B 		ldr	r3, [r0, #2816]
 2655 0026 43F40013 		orr	r3, r3, #2097152
 2656 002a C0F8003B 		str	r3, [r0, #2816]
 2657              	.L178:
1095:Drivers/STM32F4xx_HAL_Driver/Src/stm32f4xx_ll_usb.c **** }
 2658              		.loc 1 1095 3 is_stmt 1 view .LVU883
1096:Drivers/STM32F4xx_HAL_Driver/Src/stm32f4xx_ll_usb.c **** 
 2659              		.loc 1 1096 1 is_stmt 0 view .LVU884
 2660 002e 0020     		movs	r0, #0
 2661 0030 7047     		bx	lr
 2662              	.LVL206:
 2663              	.L180:
1080:Drivers/STM32F4xx_HAL_Driver/Src/stm32f4xx_ll_usb.c ****     {
 2664              		.loc 1 1080 5 is_stmt 1 view .LVU885
1080:Drivers/STM32F4xx_HAL_Driver/Src/stm32f4xx_ll_usb.c ****     {
 2665              		.loc 1 1080 11 is_stmt 0 view .LVU886
 2666 0032 00EB4310 		add	r0, r0, r3, lsl #5
 2667              	.LVL207:
1080:Drivers/STM32F4xx_HAL_Driver/Src/stm32f4xx_ll_usb.c ****     {
 2668              		.loc 1 1080 27 view .LVU887
 2669 0036 D0F80029 		ldr	r2, [r0, #2304]
1080:Drivers/STM32F4xx_HAL_Driver/Src/stm32f4xx_ll_usb.c ****     {
 2670              		.loc 1 1080 8 view .LVU888
 2671 003a 002A     		cmp	r2, #0
 2672 003c 06DB     		blt	.L177
1080:Drivers/STM32F4xx_HAL_Driver/Src/stm32f4xx_ll_usb.c ****     {
 2673              		.loc 1 1080 69 discriminator 1 view .LVU889
 2674 003e 2BB1     		cbz	r3, .L177
1082:Drivers/STM32F4xx_HAL_Driver/Src/stm32f4xx_ll_usb.c ****     }
 2675              		.loc 1 1082 7 is_stmt 1 view .LVU890
1082:Drivers/STM32F4xx_HAL_Driver/Src/stm32f4xx_ll_usb.c ****     }
 2676              		.loc 1 1082 33 is_stmt 0 view .LVU891
 2677 0040 D0F80039 		ldr	r3, [r0, #2304]
 2678              	.LVL208:
1082:Drivers/STM32F4xx_HAL_Driver/Src/stm32f4xx_ll_usb.c ****     }
 2679              		.loc 1 1082 33 view .LVU892
 2680 0044 23F08043 		bic	r3, r3, #1073741824
 2681 0048 C0F80039 		str	r3, [r0, #2304]
 2682              	.LVL209:
 2683              	.L177:
1084:Drivers/STM32F4xx_HAL_Driver/Src/stm32f4xx_ll_usb.c ****   }
 2684              		.loc 1 1084 5 is_stmt 1 view .LVU893
1084:Drivers/STM32F4xx_HAL_Driver/Src/stm32f4xx_ll_usb.c ****   }
 2685              		.loc 1 1084 31 is_stmt 0 view .LVU894
 2686 004c D0F80039 		ldr	r3, [r0, #2304]
 2687 0050 43F40013 		orr	r3, r3, #2097152
 2688 0054 C0F80039 		str	r3, [r0, #2304]
 2689 0058 E9E7     		b	.L178
 2690              		.cfi_endproc
 2691              	.LFE152:
ARM GAS  /tmp/ccELzqP8.s 			page 88


 2693              		.section	.text.USB_EPClearStall,"ax",%progbits
 2694              		.align	1
 2695              		.global	USB_EPClearStall
 2696              		.syntax unified
 2697              		.thumb
 2698              		.thumb_func
 2699              		.fpu fpv4-sp-d16
 2701              	USB_EPClearStall:
 2702              	.LVL210:
 2703              	.LFB153:
1105:Drivers/STM32F4xx_HAL_Driver/Src/stm32f4xx_ll_usb.c ****   uint32_t USBx_BASE = (uint32_t)USBx;
 2704              		.loc 1 1105 1 is_stmt 1 view -0
 2705              		.cfi_startproc
 2706              		@ args = 0, pretend = 0, frame = 0
 2707              		@ frame_needed = 0, uses_anonymous_args = 0
 2708              		@ link register save eliminated.
1106:Drivers/STM32F4xx_HAL_Driver/Src/stm32f4xx_ll_usb.c ****   uint32_t epnum = (uint32_t)ep->num;
 2709              		.loc 1 1106 3 view .LVU896
1107:Drivers/STM32F4xx_HAL_Driver/Src/stm32f4xx_ll_usb.c **** 
 2710              		.loc 1 1107 3 view .LVU897
1107:Drivers/STM32F4xx_HAL_Driver/Src/stm32f4xx_ll_usb.c **** 
 2711              		.loc 1 1107 32 is_stmt 0 view .LVU898
 2712 0000 0B78     		ldrb	r3, [r1]	@ zero_extendqisi2
 2713              	.LVL211:
1109:Drivers/STM32F4xx_HAL_Driver/Src/stm32f4xx_ll_usb.c ****   {
 2714              		.loc 1 1109 3 is_stmt 1 view .LVU899
1109:Drivers/STM32F4xx_HAL_Driver/Src/stm32f4xx_ll_usb.c ****   {
 2715              		.loc 1 1109 9 is_stmt 0 view .LVU900
 2716 0002 4A78     		ldrb	r2, [r1, #1]	@ zero_extendqisi2
1109:Drivers/STM32F4xx_HAL_Driver/Src/stm32f4xx_ll_usb.c ****   {
 2717              		.loc 1 1109 6 view .LVU901
 2718 0004 012A     		cmp	r2, #1
 2719 0006 0ED0     		beq	.L184
1119:Drivers/STM32F4xx_HAL_Driver/Src/stm32f4xx_ll_usb.c ****     if ((ep->type == EP_TYPE_INTR) || (ep->type == EP_TYPE_BULK))
 2720              		.loc 1 1119 5 is_stmt 1 view .LVU902
1119:Drivers/STM32F4xx_HAL_Driver/Src/stm32f4xx_ll_usb.c ****     if ((ep->type == EP_TYPE_INTR) || (ep->type == EP_TYPE_BULK))
 2721              		.loc 1 1119 32 is_stmt 0 view .LVU903
 2722 0008 00EB4310 		add	r0, r0, r3, lsl #5
 2723              	.LVL212:
1119:Drivers/STM32F4xx_HAL_Driver/Src/stm32f4xx_ll_usb.c ****     if ((ep->type == EP_TYPE_INTR) || (ep->type == EP_TYPE_BULK))
 2724              		.loc 1 1119 32 view .LVU904
 2725 000c D0F8003B 		ldr	r3, [r0, #2816]
 2726              	.LVL213:
1119:Drivers/STM32F4xx_HAL_Driver/Src/stm32f4xx_ll_usb.c ****     if ((ep->type == EP_TYPE_INTR) || (ep->type == EP_TYPE_BULK))
 2727              		.loc 1 1119 32 view .LVU905
 2728 0010 23F40013 		bic	r3, r3, #2097152
 2729 0014 C0F8003B 		str	r3, [r0, #2816]
 2730              	.LVL214:
1120:Drivers/STM32F4xx_HAL_Driver/Src/stm32f4xx_ll_usb.c ****     {
 2731              		.loc 1 1120 5 is_stmt 1 view .LVU906
1120:Drivers/STM32F4xx_HAL_Driver/Src/stm32f4xx_ll_usb.c ****     {
 2732              		.loc 1 1120 12 is_stmt 0 view .LVU907
 2733 0018 0B79     		ldrb	r3, [r1, #4]	@ zero_extendqisi2
1120:Drivers/STM32F4xx_HAL_Driver/Src/stm32f4xx_ll_usb.c ****     {
 2734              		.loc 1 1120 36 view .LVU908
 2735 001a 023B     		subs	r3, r3, #2
 2736 001c DBB2     		uxtb	r3, r3
ARM GAS  /tmp/ccELzqP8.s 			page 89


1120:Drivers/STM32F4xx_HAL_Driver/Src/stm32f4xx_ll_usb.c ****     {
 2737              		.loc 1 1120 8 view .LVU909
 2738 001e 012B     		cmp	r3, #1
 2739 0020 15D9     		bls	.L185
 2740              	.L183:
1125:Drivers/STM32F4xx_HAL_Driver/Src/stm32f4xx_ll_usb.c **** }
 2741              		.loc 1 1125 3 is_stmt 1 view .LVU910
1126:Drivers/STM32F4xx_HAL_Driver/Src/stm32f4xx_ll_usb.c **** 
 2742              		.loc 1 1126 1 is_stmt 0 view .LVU911
 2743 0022 0020     		movs	r0, #0
 2744 0024 7047     		bx	lr
 2745              	.LVL215:
 2746              	.L184:
1111:Drivers/STM32F4xx_HAL_Driver/Src/stm32f4xx_ll_usb.c ****     if ((ep->type == EP_TYPE_INTR) || (ep->type == EP_TYPE_BULK))
 2747              		.loc 1 1111 5 is_stmt 1 view .LVU912
1111:Drivers/STM32F4xx_HAL_Driver/Src/stm32f4xx_ll_usb.c ****     if ((ep->type == EP_TYPE_INTR) || (ep->type == EP_TYPE_BULK))
 2748              		.loc 1 1111 31 is_stmt 0 view .LVU913
 2749 0026 00EB4310 		add	r0, r0, r3, lsl #5
 2750              	.LVL216:
1111:Drivers/STM32F4xx_HAL_Driver/Src/stm32f4xx_ll_usb.c ****     if ((ep->type == EP_TYPE_INTR) || (ep->type == EP_TYPE_BULK))
 2751              		.loc 1 1111 31 view .LVU914
 2752 002a D0F80039 		ldr	r3, [r0, #2304]
 2753              	.LVL217:
1111:Drivers/STM32F4xx_HAL_Driver/Src/stm32f4xx_ll_usb.c ****     if ((ep->type == EP_TYPE_INTR) || (ep->type == EP_TYPE_BULK))
 2754              		.loc 1 1111 31 view .LVU915
 2755 002e 23F40013 		bic	r3, r3, #2097152
 2756 0032 C0F80039 		str	r3, [r0, #2304]
 2757              	.LVL218:
1112:Drivers/STM32F4xx_HAL_Driver/Src/stm32f4xx_ll_usb.c ****     {
 2758              		.loc 1 1112 5 is_stmt 1 view .LVU916
1112:Drivers/STM32F4xx_HAL_Driver/Src/stm32f4xx_ll_usb.c ****     {
 2759              		.loc 1 1112 12 is_stmt 0 view .LVU917
 2760 0036 0B79     		ldrb	r3, [r1, #4]	@ zero_extendqisi2
1112:Drivers/STM32F4xx_HAL_Driver/Src/stm32f4xx_ll_usb.c ****     {
 2761              		.loc 1 1112 36 view .LVU918
 2762 0038 023B     		subs	r3, r3, #2
 2763 003a DBB2     		uxtb	r3, r3
1112:Drivers/STM32F4xx_HAL_Driver/Src/stm32f4xx_ll_usb.c ****     {
 2764              		.loc 1 1112 8 view .LVU919
 2765 003c 012B     		cmp	r3, #1
 2766 003e F0D8     		bhi	.L183
1114:Drivers/STM32F4xx_HAL_Driver/Src/stm32f4xx_ll_usb.c ****     }
 2767              		.loc 1 1114 7 is_stmt 1 view .LVU920
1114:Drivers/STM32F4xx_HAL_Driver/Src/stm32f4xx_ll_usb.c ****     }
 2768              		.loc 1 1114 33 is_stmt 0 view .LVU921
 2769 0040 D0F80039 		ldr	r3, [r0, #2304]
 2770 0044 43F08053 		orr	r3, r3, #268435456
 2771 0048 C0F80039 		str	r3, [r0, #2304]
 2772 004c E9E7     		b	.L183
 2773              	.L185:
1122:Drivers/STM32F4xx_HAL_Driver/Src/stm32f4xx_ll_usb.c ****     }
 2774              		.loc 1 1122 7 is_stmt 1 view .LVU922
1122:Drivers/STM32F4xx_HAL_Driver/Src/stm32f4xx_ll_usb.c ****     }
 2775              		.loc 1 1122 34 is_stmt 0 view .LVU923
 2776 004e D0F8003B 		ldr	r3, [r0, #2816]
 2777 0052 43F08053 		orr	r3, r3, #268435456
 2778 0056 C0F8003B 		str	r3, [r0, #2816]
ARM GAS  /tmp/ccELzqP8.s 			page 90


 2779 005a E2E7     		b	.L183
 2780              		.cfi_endproc
 2781              	.LFE153:
 2783              		.section	.text.USB_StopDevice,"ax",%progbits
 2784              		.align	1
 2785              		.global	USB_StopDevice
 2786              		.syntax unified
 2787              		.thumb
 2788              		.thumb_func
 2789              		.fpu fpv4-sp-d16
 2791              	USB_StopDevice:
 2792              	.LVL219:
 2793              	.LFB154:
1134:Drivers/STM32F4xx_HAL_Driver/Src/stm32f4xx_ll_usb.c ****   HAL_StatusTypeDef ret;
 2794              		.loc 1 1134 1 is_stmt 1 view -0
 2795              		.cfi_startproc
 2796              		@ args = 0, pretend = 0, frame = 0
 2797              		@ frame_needed = 0, uses_anonymous_args = 0
1134:Drivers/STM32F4xx_HAL_Driver/Src/stm32f4xx_ll_usb.c ****   HAL_StatusTypeDef ret;
 2798              		.loc 1 1134 1 is_stmt 0 view .LVU925
 2799 0000 10B5     		push	{r4, lr}
 2800              	.LCFI37:
 2801              		.cfi_def_cfa_offset 8
 2802              		.cfi_offset 4, -8
 2803              		.cfi_offset 14, -4
 2804 0002 0446     		mov	r4, r0
1135:Drivers/STM32F4xx_HAL_Driver/Src/stm32f4xx_ll_usb.c ****   uint32_t USBx_BASE = (uint32_t)USBx;
 2805              		.loc 1 1135 3 is_stmt 1 view .LVU926
1136:Drivers/STM32F4xx_HAL_Driver/Src/stm32f4xx_ll_usb.c ****   uint32_t i;
 2806              		.loc 1 1136 3 view .LVU927
 2807              	.LVL220:
1137:Drivers/STM32F4xx_HAL_Driver/Src/stm32f4xx_ll_usb.c **** 
 2808              		.loc 1 1137 3 view .LVU928
1140:Drivers/STM32F4xx_HAL_Driver/Src/stm32f4xx_ll_usb.c ****   {
 2809              		.loc 1 1140 3 view .LVU929
1140:Drivers/STM32F4xx_HAL_Driver/Src/stm32f4xx_ll_usb.c ****   {
 2810              		.loc 1 1140 10 is_stmt 0 view .LVU930
 2811 0004 0022     		movs	r2, #0
1140:Drivers/STM32F4xx_HAL_Driver/Src/stm32f4xx_ll_usb.c ****   {
 2812              		.loc 1 1140 3 view .LVU931
 2813 0006 08E0     		b	.L187
 2814              	.LVL221:
 2815              	.L188:
1142:Drivers/STM32F4xx_HAL_Driver/Src/stm32f4xx_ll_usb.c ****     USBx_OUTEP(i)->DOEPINT = 0xFB7FU;
 2816              		.loc 1 1142 5 is_stmt 1 discriminator 3 view .LVU932
 2817 0008 04EB4213 		add	r3, r4, r2, lsl #5
1142:Drivers/STM32F4xx_HAL_Driver/Src/stm32f4xx_ll_usb.c ****     USBx_OUTEP(i)->DOEPINT = 0xFB7FU;
 2818              		.loc 1 1142 27 is_stmt 0 discriminator 3 view .LVU933
 2819 000c 4FF67F31 		movw	r1, #64383
 2820 0010 C3F80819 		str	r1, [r3, #2312]
1143:Drivers/STM32F4xx_HAL_Driver/Src/stm32f4xx_ll_usb.c ****   }
 2821              		.loc 1 1143 5 is_stmt 1 discriminator 3 view .LVU934
1143:Drivers/STM32F4xx_HAL_Driver/Src/stm32f4xx_ll_usb.c ****   }
 2822              		.loc 1 1143 28 is_stmt 0 discriminator 3 view .LVU935
 2823 0014 C3F8081B 		str	r1, [r3, #2824]
1140:Drivers/STM32F4xx_HAL_Driver/Src/stm32f4xx_ll_usb.c ****   {
 2824              		.loc 1 1140 25 is_stmt 1 discriminator 3 view .LVU936
ARM GAS  /tmp/ccELzqP8.s 			page 91


1140:Drivers/STM32F4xx_HAL_Driver/Src/stm32f4xx_ll_usb.c ****   {
 2825              		.loc 1 1140 26 is_stmt 0 discriminator 3 view .LVU937
 2826 0018 0132     		adds	r2, r2, #1
 2827              	.LVL222:
 2828              	.L187:
1140:Drivers/STM32F4xx_HAL_Driver/Src/stm32f4xx_ll_usb.c ****   {
 2829              		.loc 1 1140 16 is_stmt 1 discriminator 1 view .LVU938
1140:Drivers/STM32F4xx_HAL_Driver/Src/stm32f4xx_ll_usb.c ****   {
 2830              		.loc 1 1140 3 is_stmt 0 discriminator 1 view .LVU939
 2831 001a 0E2A     		cmp	r2, #14
 2832 001c F4D9     		bls	.L188
1147:Drivers/STM32F4xx_HAL_Driver/Src/stm32f4xx_ll_usb.c ****   USBx_DEVICE->DOEPMSK  = 0U;
 2833              		.loc 1 1147 3 is_stmt 1 view .LVU940
1147:Drivers/STM32F4xx_HAL_Driver/Src/stm32f4xx_ll_usb.c ****   USBx_DEVICE->DOEPMSK  = 0U;
 2834              		.loc 1 1147 25 is_stmt 0 view .LVU941
 2835 001e 0022     		movs	r2, #0
 2836              	.LVL223:
1147:Drivers/STM32F4xx_HAL_Driver/Src/stm32f4xx_ll_usb.c ****   USBx_DEVICE->DOEPMSK  = 0U;
 2837              		.loc 1 1147 25 view .LVU942
 2838 0020 C4F81028 		str	r2, [r4, #2064]
1148:Drivers/STM32F4xx_HAL_Driver/Src/stm32f4xx_ll_usb.c ****   USBx_DEVICE->DAINTMSK = 0U;
 2839              		.loc 1 1148 3 is_stmt 1 view .LVU943
1148:Drivers/STM32F4xx_HAL_Driver/Src/stm32f4xx_ll_usb.c ****   USBx_DEVICE->DAINTMSK = 0U;
 2840              		.loc 1 1148 25 is_stmt 0 view .LVU944
 2841 0024 C4F81428 		str	r2, [r4, #2068]
1149:Drivers/STM32F4xx_HAL_Driver/Src/stm32f4xx_ll_usb.c **** 
 2842              		.loc 1 1149 3 is_stmt 1 view .LVU945
1149:Drivers/STM32F4xx_HAL_Driver/Src/stm32f4xx_ll_usb.c **** 
 2843              		.loc 1 1149 25 is_stmt 0 view .LVU946
 2844 0028 C4F81C28 		str	r2, [r4, #2076]
1152:Drivers/STM32F4xx_HAL_Driver/Src/stm32f4xx_ll_usb.c ****   if (ret != HAL_OK)
 2845              		.loc 1 1152 3 is_stmt 1 view .LVU947
1152:Drivers/STM32F4xx_HAL_Driver/Src/stm32f4xx_ll_usb.c ****   if (ret != HAL_OK)
 2846              		.loc 1 1152 9 is_stmt 0 view .LVU948
 2847 002c 2046     		mov	r0, r4
 2848              	.LVL224:
1152:Drivers/STM32F4xx_HAL_Driver/Src/stm32f4xx_ll_usb.c ****   if (ret != HAL_OK)
 2849              		.loc 1 1152 9 view .LVU949
 2850 002e FFF7FEFF 		bl	USB_FlushRxFifo
 2851              	.LVL225:
1153:Drivers/STM32F4xx_HAL_Driver/Src/stm32f4xx_ll_usb.c ****   {
 2852              		.loc 1 1153 3 is_stmt 1 view .LVU950
1153:Drivers/STM32F4xx_HAL_Driver/Src/stm32f4xx_ll_usb.c ****   {
 2853              		.loc 1 1153 6 is_stmt 0 view .LVU951
 2854 0032 00B1     		cbz	r0, .L191
 2855              	.L189:
1165:Drivers/STM32F4xx_HAL_Driver/Src/stm32f4xx_ll_usb.c **** 
 2856              		.loc 1 1165 1 view .LVU952
 2857 0034 10BD     		pop	{r4, pc}
 2858              	.LVL226:
 2859              	.L191:
1158:Drivers/STM32F4xx_HAL_Driver/Src/stm32f4xx_ll_usb.c ****   if (ret != HAL_OK)
 2860              		.loc 1 1158 3 is_stmt 1 view .LVU953
1158:Drivers/STM32F4xx_HAL_Driver/Src/stm32f4xx_ll_usb.c ****   if (ret != HAL_OK)
 2861              		.loc 1 1158 9 is_stmt 0 view .LVU954
 2862 0036 1021     		movs	r1, #16
 2863 0038 2046     		mov	r0, r4
ARM GAS  /tmp/ccELzqP8.s 			page 92


 2864              	.LVL227:
1158:Drivers/STM32F4xx_HAL_Driver/Src/stm32f4xx_ll_usb.c ****   if (ret != HAL_OK)
 2865              		.loc 1 1158 9 view .LVU955
 2866 003a FFF7FEFF 		bl	USB_FlushTxFifo
 2867              	.LVL228:
1159:Drivers/STM32F4xx_HAL_Driver/Src/stm32f4xx_ll_usb.c ****   {
 2868              		.loc 1 1159 3 is_stmt 1 view .LVU956
 2869 003e F9E7     		b	.L189
 2870              		.cfi_endproc
 2871              	.LFE154:
 2873              		.section	.text.USB_SetDevAddress,"ax",%progbits
 2874              		.align	1
 2875              		.global	USB_SetDevAddress
 2876              		.syntax unified
 2877              		.thumb
 2878              		.thumb_func
 2879              		.fpu fpv4-sp-d16
 2881              	USB_SetDevAddress:
 2882              	.LVL229:
 2883              	.LFB155:
1175:Drivers/STM32F4xx_HAL_Driver/Src/stm32f4xx_ll_usb.c ****   uint32_t USBx_BASE = (uint32_t)USBx;
 2884              		.loc 1 1175 1 view -0
 2885              		.cfi_startproc
 2886              		@ args = 0, pretend = 0, frame = 0
 2887              		@ frame_needed = 0, uses_anonymous_args = 0
 2888              		@ link register save eliminated.
1176:Drivers/STM32F4xx_HAL_Driver/Src/stm32f4xx_ll_usb.c **** 
 2889              		.loc 1 1176 3 view .LVU958
1178:Drivers/STM32F4xx_HAL_Driver/Src/stm32f4xx_ll_usb.c ****   USBx_DEVICE->DCFG |= ((uint32_t)address << 4) & USB_OTG_DCFG_DAD;
 2890              		.loc 1 1178 3 view .LVU959
1178:Drivers/STM32F4xx_HAL_Driver/Src/stm32f4xx_ll_usb.c ****   USBx_DEVICE->DCFG |= ((uint32_t)address << 4) & USB_OTG_DCFG_DAD;
 2891              		.loc 1 1178 21 is_stmt 0 view .LVU960
 2892 0000 D0F80038 		ldr	r3, [r0, #2048]
 2893 0004 23F4FE63 		bic	r3, r3, #2032
 2894 0008 C0F80038 		str	r3, [r0, #2048]
1179:Drivers/STM32F4xx_HAL_Driver/Src/stm32f4xx_ll_usb.c **** 
 2895              		.loc 1 1179 3 is_stmt 1 view .LVU961
1179:Drivers/STM32F4xx_HAL_Driver/Src/stm32f4xx_ll_usb.c **** 
 2896              		.loc 1 1179 21 is_stmt 0 view .LVU962
 2897 000c D0F80038 		ldr	r3, [r0, #2048]
1179:Drivers/STM32F4xx_HAL_Driver/Src/stm32f4xx_ll_usb.c **** 
 2898              		.loc 1 1179 43 view .LVU963
 2899 0010 0901     		lsls	r1, r1, #4
 2900              	.LVL230:
1179:Drivers/STM32F4xx_HAL_Driver/Src/stm32f4xx_ll_usb.c **** 
 2901              		.loc 1 1179 49 view .LVU964
 2902 0012 01F4FE61 		and	r1, r1, #2032
1179:Drivers/STM32F4xx_HAL_Driver/Src/stm32f4xx_ll_usb.c **** 
 2903              		.loc 1 1179 21 view .LVU965
 2904 0016 1943     		orrs	r1, r1, r3
 2905 0018 C0F80018 		str	r1, [r0, #2048]
1181:Drivers/STM32F4xx_HAL_Driver/Src/stm32f4xx_ll_usb.c **** }
 2906              		.loc 1 1181 3 is_stmt 1 view .LVU966
1182:Drivers/STM32F4xx_HAL_Driver/Src/stm32f4xx_ll_usb.c **** 
 2907              		.loc 1 1182 1 is_stmt 0 view .LVU967
 2908 001c 0020     		movs	r0, #0
 2909              	.LVL231:
ARM GAS  /tmp/ccELzqP8.s 			page 93


1182:Drivers/STM32F4xx_HAL_Driver/Src/stm32f4xx_ll_usb.c **** 
 2910              		.loc 1 1182 1 view .LVU968
 2911 001e 7047     		bx	lr
 2912              		.cfi_endproc
 2913              	.LFE155:
 2915              		.section	.text.USB_DevConnect,"ax",%progbits
 2916              		.align	1
 2917              		.global	USB_DevConnect
 2918              		.syntax unified
 2919              		.thumb
 2920              		.thumb_func
 2921              		.fpu fpv4-sp-d16
 2923              	USB_DevConnect:
 2924              	.LVL232:
 2925              	.LFB156:
1190:Drivers/STM32F4xx_HAL_Driver/Src/stm32f4xx_ll_usb.c ****   uint32_t USBx_BASE = (uint32_t)USBx;
 2926              		.loc 1 1190 1 is_stmt 1 view -0
 2927              		.cfi_startproc
 2928              		@ args = 0, pretend = 0, frame = 0
 2929              		@ frame_needed = 0, uses_anonymous_args = 0
 2930              		@ link register save eliminated.
1191:Drivers/STM32F4xx_HAL_Driver/Src/stm32f4xx_ll_usb.c **** 
 2931              		.loc 1 1191 3 view .LVU970
1194:Drivers/STM32F4xx_HAL_Driver/Src/stm32f4xx_ll_usb.c **** 
 2932              		.loc 1 1194 3 view .LVU971
1194:Drivers/STM32F4xx_HAL_Driver/Src/stm32f4xx_ll_usb.c **** 
 2933              		.loc 1 1194 16 is_stmt 0 view .LVU972
 2934 0000 D0F8003E 		ldr	r3, [r0, #3584]
 2935 0004 23F00303 		bic	r3, r3, #3
 2936 0008 C0F8003E 		str	r3, [r0, #3584]
1196:Drivers/STM32F4xx_HAL_Driver/Src/stm32f4xx_ll_usb.c **** 
 2937              		.loc 1 1196 3 is_stmt 1 view .LVU973
1196:Drivers/STM32F4xx_HAL_Driver/Src/stm32f4xx_ll_usb.c **** 
 2938              		.loc 1 1196 21 is_stmt 0 view .LVU974
 2939 000c D0F80438 		ldr	r3, [r0, #2052]
 2940 0010 23F00203 		bic	r3, r3, #2
 2941 0014 C0F80438 		str	r3, [r0, #2052]
1198:Drivers/STM32F4xx_HAL_Driver/Src/stm32f4xx_ll_usb.c **** }
 2942              		.loc 1 1198 3 is_stmt 1 view .LVU975
1199:Drivers/STM32F4xx_HAL_Driver/Src/stm32f4xx_ll_usb.c **** 
 2943              		.loc 1 1199 1 is_stmt 0 view .LVU976
 2944 0018 0020     		movs	r0, #0
 2945              	.LVL233:
1199:Drivers/STM32F4xx_HAL_Driver/Src/stm32f4xx_ll_usb.c **** 
 2946              		.loc 1 1199 1 view .LVU977
 2947 001a 7047     		bx	lr
 2948              		.cfi_endproc
 2949              	.LFE156:
 2951              		.section	.text.USB_DevDisconnect,"ax",%progbits
 2952              		.align	1
 2953              		.global	USB_DevDisconnect
 2954              		.syntax unified
 2955              		.thumb
 2956              		.thumb_func
 2957              		.fpu fpv4-sp-d16
 2959              	USB_DevDisconnect:
 2960              	.LVL234:
ARM GAS  /tmp/ccELzqP8.s 			page 94


 2961              	.LFB157:
1207:Drivers/STM32F4xx_HAL_Driver/Src/stm32f4xx_ll_usb.c ****   uint32_t USBx_BASE = (uint32_t)USBx;
 2962              		.loc 1 1207 1 is_stmt 1 view -0
 2963              		.cfi_startproc
 2964              		@ args = 0, pretend = 0, frame = 0
 2965              		@ frame_needed = 0, uses_anonymous_args = 0
 2966              		@ link register save eliminated.
1208:Drivers/STM32F4xx_HAL_Driver/Src/stm32f4xx_ll_usb.c **** 
 2967              		.loc 1 1208 3 view .LVU979
1211:Drivers/STM32F4xx_HAL_Driver/Src/stm32f4xx_ll_usb.c **** 
 2968              		.loc 1 1211 3 view .LVU980
1211:Drivers/STM32F4xx_HAL_Driver/Src/stm32f4xx_ll_usb.c **** 
 2969              		.loc 1 1211 16 is_stmt 0 view .LVU981
 2970 0000 D0F8003E 		ldr	r3, [r0, #3584]
 2971 0004 23F00303 		bic	r3, r3, #3
 2972 0008 C0F8003E 		str	r3, [r0, #3584]
1213:Drivers/STM32F4xx_HAL_Driver/Src/stm32f4xx_ll_usb.c **** 
 2973              		.loc 1 1213 3 is_stmt 1 view .LVU982
1213:Drivers/STM32F4xx_HAL_Driver/Src/stm32f4xx_ll_usb.c **** 
 2974              		.loc 1 1213 21 is_stmt 0 view .LVU983
 2975 000c D0F80438 		ldr	r3, [r0, #2052]
 2976 0010 43F00203 		orr	r3, r3, #2
 2977 0014 C0F80438 		str	r3, [r0, #2052]
1215:Drivers/STM32F4xx_HAL_Driver/Src/stm32f4xx_ll_usb.c **** }
 2978              		.loc 1 1215 3 is_stmt 1 view .LVU984
1216:Drivers/STM32F4xx_HAL_Driver/Src/stm32f4xx_ll_usb.c **** 
 2979              		.loc 1 1216 1 is_stmt 0 view .LVU985
 2980 0018 0020     		movs	r0, #0
 2981              	.LVL235:
1216:Drivers/STM32F4xx_HAL_Driver/Src/stm32f4xx_ll_usb.c **** 
 2982              		.loc 1 1216 1 view .LVU986
 2983 001a 7047     		bx	lr
 2984              		.cfi_endproc
 2985              	.LFE157:
 2987              		.section	.text.USB_ReadInterrupts,"ax",%progbits
 2988              		.align	1
 2989              		.global	USB_ReadInterrupts
 2990              		.syntax unified
 2991              		.thumb
 2992              		.thumb_func
 2993              		.fpu fpv4-sp-d16
 2995              	USB_ReadInterrupts:
 2996              	.LVL236:
 2997              	.LFB158:
1224:Drivers/STM32F4xx_HAL_Driver/Src/stm32f4xx_ll_usb.c ****   uint32_t tmpreg;
 2998              		.loc 1 1224 1 is_stmt 1 view -0
 2999              		.cfi_startproc
 3000              		@ args = 0, pretend = 0, frame = 0
 3001              		@ frame_needed = 0, uses_anonymous_args = 0
 3002              		@ link register save eliminated.
1225:Drivers/STM32F4xx_HAL_Driver/Src/stm32f4xx_ll_usb.c **** 
 3003              		.loc 1 1225 3 view .LVU988
1227:Drivers/STM32F4xx_HAL_Driver/Src/stm32f4xx_ll_usb.c ****   tmpreg &= USBx->GINTMSK;
 3004              		.loc 1 1227 3 view .LVU989
1227:Drivers/STM32F4xx_HAL_Driver/Src/stm32f4xx_ll_usb.c ****   tmpreg &= USBx->GINTMSK;
 3005              		.loc 1 1227 10 is_stmt 0 view .LVU990
 3006 0000 4269     		ldr	r2, [r0, #20]
ARM GAS  /tmp/ccELzqP8.s 			page 95


 3007              	.LVL237:
1228:Drivers/STM32F4xx_HAL_Driver/Src/stm32f4xx_ll_usb.c **** 
 3008              		.loc 1 1228 3 is_stmt 1 view .LVU991
1228:Drivers/STM32F4xx_HAL_Driver/Src/stm32f4xx_ll_usb.c **** 
 3009              		.loc 1 1228 17 is_stmt 0 view .LVU992
 3010 0002 8069     		ldr	r0, [r0, #24]
 3011              	.LVL238:
1230:Drivers/STM32F4xx_HAL_Driver/Src/stm32f4xx_ll_usb.c **** }
 3012              		.loc 1 1230 3 is_stmt 1 view .LVU993
1231:Drivers/STM32F4xx_HAL_Driver/Src/stm32f4xx_ll_usb.c **** 
 3013              		.loc 1 1231 1 is_stmt 0 view .LVU994
 3014 0004 1040     		ands	r0, r0, r2
 3015              	.LVL239:
1231:Drivers/STM32F4xx_HAL_Driver/Src/stm32f4xx_ll_usb.c **** 
 3016              		.loc 1 1231 1 view .LVU995
 3017 0006 7047     		bx	lr
 3018              		.cfi_endproc
 3019              	.LFE158:
 3021              		.section	.text.USB_ReadChInterrupts,"ax",%progbits
 3022              		.align	1
 3023              		.global	USB_ReadChInterrupts
 3024              		.syntax unified
 3025              		.thumb
 3026              		.thumb_func
 3027              		.fpu fpv4-sp-d16
 3029              	USB_ReadChInterrupts:
 3030              	.LVL240:
 3031              	.LFB159:
1240:Drivers/STM32F4xx_HAL_Driver/Src/stm32f4xx_ll_usb.c ****   uint32_t USBx_BASE = (uint32_t)USBx;
 3032              		.loc 1 1240 1 is_stmt 1 view -0
 3033              		.cfi_startproc
 3034              		@ args = 0, pretend = 0, frame = 0
 3035              		@ frame_needed = 0, uses_anonymous_args = 0
 3036              		@ link register save eliminated.
1241:Drivers/STM32F4xx_HAL_Driver/Src/stm32f4xx_ll_usb.c ****   uint32_t tmpreg;
 3037              		.loc 1 1241 3 view .LVU997
1242:Drivers/STM32F4xx_HAL_Driver/Src/stm32f4xx_ll_usb.c **** 
 3038              		.loc 1 1242 3 view .LVU998
1244:Drivers/STM32F4xx_HAL_Driver/Src/stm32f4xx_ll_usb.c ****   tmpreg &= USBx_HC(chnum)->HCINTMSK;
 3039              		.loc 1 1244 3 view .LVU999
1244:Drivers/STM32F4xx_HAL_Driver/Src/stm32f4xx_ll_usb.c ****   tmpreg &= USBx_HC(chnum)->HCINTMSK;
 3040              		.loc 1 1244 12 is_stmt 0 view .LVU1000
 3041 0000 00EB4111 		add	r1, r0, r1, lsl #5
 3042              	.LVL241:
1244:Drivers/STM32F4xx_HAL_Driver/Src/stm32f4xx_ll_usb.c ****   tmpreg &= USBx_HC(chnum)->HCINTMSK;
 3043              		.loc 1 1244 10 view .LVU1001
 3044 0004 D1F80805 		ldr	r0, [r1, #1288]
 3045              	.LVL242:
1245:Drivers/STM32F4xx_HAL_Driver/Src/stm32f4xx_ll_usb.c **** 
 3046              		.loc 1 1245 3 is_stmt 1 view .LVU1002
1245:Drivers/STM32F4xx_HAL_Driver/Src/stm32f4xx_ll_usb.c **** 
 3047              		.loc 1 1245 27 is_stmt 0 view .LVU1003
 3048 0008 D1F80C35 		ldr	r3, [r1, #1292]
 3049              	.LVL243:
1247:Drivers/STM32F4xx_HAL_Driver/Src/stm32f4xx_ll_usb.c **** }
 3050              		.loc 1 1247 3 is_stmt 1 view .LVU1004
1248:Drivers/STM32F4xx_HAL_Driver/Src/stm32f4xx_ll_usb.c **** 
ARM GAS  /tmp/ccELzqP8.s 			page 96


 3051              		.loc 1 1248 1 is_stmt 0 view .LVU1005
 3052 000c 1840     		ands	r0, r0, r3
 3053              	.LVL244:
1248:Drivers/STM32F4xx_HAL_Driver/Src/stm32f4xx_ll_usb.c **** 
 3054              		.loc 1 1248 1 view .LVU1006
 3055 000e 7047     		bx	lr
 3056              		.cfi_endproc
 3057              	.LFE159:
 3059              		.section	.text.USB_ReadDevAllOutEpInterrupt,"ax",%progbits
 3060              		.align	1
 3061              		.global	USB_ReadDevAllOutEpInterrupt
 3062              		.syntax unified
 3063              		.thumb
 3064              		.thumb_func
 3065              		.fpu fpv4-sp-d16
 3067              	USB_ReadDevAllOutEpInterrupt:
 3068              	.LVL245:
 3069              	.LFB160:
1256:Drivers/STM32F4xx_HAL_Driver/Src/stm32f4xx_ll_usb.c ****   uint32_t USBx_BASE = (uint32_t)USBx;
 3070              		.loc 1 1256 1 is_stmt 1 view -0
 3071              		.cfi_startproc
 3072              		@ args = 0, pretend = 0, frame = 0
 3073              		@ frame_needed = 0, uses_anonymous_args = 0
 3074              		@ link register save eliminated.
1257:Drivers/STM32F4xx_HAL_Driver/Src/stm32f4xx_ll_usb.c ****   uint32_t tmpreg;
 3075              		.loc 1 1257 3 view .LVU1008
1258:Drivers/STM32F4xx_HAL_Driver/Src/stm32f4xx_ll_usb.c **** 
 3076              		.loc 1 1258 3 view .LVU1009
1260:Drivers/STM32F4xx_HAL_Driver/Src/stm32f4xx_ll_usb.c ****   tmpreg &= USBx_DEVICE->DAINTMSK;
 3077              		.loc 1 1260 3 view .LVU1010
1260:Drivers/STM32F4xx_HAL_Driver/Src/stm32f4xx_ll_usb.c ****   tmpreg &= USBx_DEVICE->DAINTMSK;
 3078              		.loc 1 1260 11 is_stmt 0 view .LVU1011
 3079 0000 D0F81838 		ldr	r3, [r0, #2072]
1260:Drivers/STM32F4xx_HAL_Driver/Src/stm32f4xx_ll_usb.c ****   tmpreg &= USBx_DEVICE->DAINTMSK;
 3080              		.loc 1 1260 13 view .LVU1012
 3081 0004 00F50060 		add	r0, r0, #2048
 3082              	.LVL246:
1261:Drivers/STM32F4xx_HAL_Driver/Src/stm32f4xx_ll_usb.c **** 
 3083              		.loc 1 1261 3 is_stmt 1 view .LVU1013
1261:Drivers/STM32F4xx_HAL_Driver/Src/stm32f4xx_ll_usb.c **** 
 3084              		.loc 1 1261 24 is_stmt 0 view .LVU1014
 3085 0008 C069     		ldr	r0, [r0, #28]
 3086              	.LVL247:
1261:Drivers/STM32F4xx_HAL_Driver/Src/stm32f4xx_ll_usb.c **** 
 3087              		.loc 1 1261 10 view .LVU1015
 3088 000a 1840     		ands	r0, r0, r3
 3089              	.LVL248:
1263:Drivers/STM32F4xx_HAL_Driver/Src/stm32f4xx_ll_usb.c **** }
 3090              		.loc 1 1263 3 is_stmt 1 view .LVU1016
1264:Drivers/STM32F4xx_HAL_Driver/Src/stm32f4xx_ll_usb.c **** 
 3091              		.loc 1 1264 1 is_stmt 0 view .LVU1017
 3092 000c 000C     		lsrs	r0, r0, #16
 3093              	.LVL249:
1264:Drivers/STM32F4xx_HAL_Driver/Src/stm32f4xx_ll_usb.c **** 
 3094              		.loc 1 1264 1 view .LVU1018
 3095 000e 7047     		bx	lr
 3096              		.cfi_endproc
ARM GAS  /tmp/ccELzqP8.s 			page 97


 3097              	.LFE160:
 3099              		.section	.text.USB_ReadDevAllInEpInterrupt,"ax",%progbits
 3100              		.align	1
 3101              		.global	USB_ReadDevAllInEpInterrupt
 3102              		.syntax unified
 3103              		.thumb
 3104              		.thumb_func
 3105              		.fpu fpv4-sp-d16
 3107              	USB_ReadDevAllInEpInterrupt:
 3108              	.LVL250:
 3109              	.LFB161:
1272:Drivers/STM32F4xx_HAL_Driver/Src/stm32f4xx_ll_usb.c ****   uint32_t USBx_BASE = (uint32_t)USBx;
 3110              		.loc 1 1272 1 is_stmt 1 view -0
 3111              		.cfi_startproc
 3112              		@ args = 0, pretend = 0, frame = 0
 3113              		@ frame_needed = 0, uses_anonymous_args = 0
 3114              		@ link register save eliminated.
1273:Drivers/STM32F4xx_HAL_Driver/Src/stm32f4xx_ll_usb.c ****   uint32_t tmpreg;
 3115              		.loc 1 1273 3 view .LVU1020
1274:Drivers/STM32F4xx_HAL_Driver/Src/stm32f4xx_ll_usb.c **** 
 3116              		.loc 1 1274 3 view .LVU1021
1276:Drivers/STM32F4xx_HAL_Driver/Src/stm32f4xx_ll_usb.c ****   tmpreg &= USBx_DEVICE->DAINTMSK;
 3117              		.loc 1 1276 3 view .LVU1022
1276:Drivers/STM32F4xx_HAL_Driver/Src/stm32f4xx_ll_usb.c ****   tmpreg &= USBx_DEVICE->DAINTMSK;
 3118              		.loc 1 1276 11 is_stmt 0 view .LVU1023
 3119 0000 D0F81838 		ldr	r3, [r0, #2072]
1276:Drivers/STM32F4xx_HAL_Driver/Src/stm32f4xx_ll_usb.c ****   tmpreg &= USBx_DEVICE->DAINTMSK;
 3120              		.loc 1 1276 13 view .LVU1024
 3121 0004 00F50060 		add	r0, r0, #2048
 3122              	.LVL251:
1277:Drivers/STM32F4xx_HAL_Driver/Src/stm32f4xx_ll_usb.c **** 
 3123              		.loc 1 1277 3 is_stmt 1 view .LVU1025
1277:Drivers/STM32F4xx_HAL_Driver/Src/stm32f4xx_ll_usb.c **** 
 3124              		.loc 1 1277 24 is_stmt 0 view .LVU1026
 3125 0008 C069     		ldr	r0, [r0, #28]
 3126              	.LVL252:
1277:Drivers/STM32F4xx_HAL_Driver/Src/stm32f4xx_ll_usb.c **** 
 3127              		.loc 1 1277 10 view .LVU1027
 3128 000a 1840     		ands	r0, r0, r3
 3129              	.LVL253:
1279:Drivers/STM32F4xx_HAL_Driver/Src/stm32f4xx_ll_usb.c **** }
 3130              		.loc 1 1279 3 is_stmt 1 view .LVU1028
1280:Drivers/STM32F4xx_HAL_Driver/Src/stm32f4xx_ll_usb.c **** 
 3131              		.loc 1 1280 1 is_stmt 0 view .LVU1029
 3132 000c 80B2     		uxth	r0, r0
 3133              	.LVL254:
1280:Drivers/STM32F4xx_HAL_Driver/Src/stm32f4xx_ll_usb.c **** 
 3134              		.loc 1 1280 1 view .LVU1030
 3135 000e 7047     		bx	lr
 3136              		.cfi_endproc
 3137              	.LFE161:
 3139              		.section	.text.USB_ReadDevOutEPInterrupt,"ax",%progbits
 3140              		.align	1
 3141              		.global	USB_ReadDevOutEPInterrupt
 3142              		.syntax unified
 3143              		.thumb
 3144              		.thumb_func
ARM GAS  /tmp/ccELzqP8.s 			page 98


 3145              		.fpu fpv4-sp-d16
 3147              	USB_ReadDevOutEPInterrupt:
 3148              	.LVL255:
 3149              	.LFB162:
1290:Drivers/STM32F4xx_HAL_Driver/Src/stm32f4xx_ll_usb.c ****   uint32_t USBx_BASE = (uint32_t)USBx;
 3150              		.loc 1 1290 1 is_stmt 1 view -0
 3151              		.cfi_startproc
 3152              		@ args = 0, pretend = 0, frame = 0
 3153              		@ frame_needed = 0, uses_anonymous_args = 0
 3154              		@ link register save eliminated.
1291:Drivers/STM32F4xx_HAL_Driver/Src/stm32f4xx_ll_usb.c ****   uint32_t tmpreg;
 3155              		.loc 1 1291 3 view .LVU1032
1292:Drivers/STM32F4xx_HAL_Driver/Src/stm32f4xx_ll_usb.c **** 
 3156              		.loc 1 1292 3 view .LVU1033
1294:Drivers/STM32F4xx_HAL_Driver/Src/stm32f4xx_ll_usb.c ****   tmpreg &= USBx_DEVICE->DOEPMSK;
 3157              		.loc 1 1294 3 view .LVU1034
1294:Drivers/STM32F4xx_HAL_Driver/Src/stm32f4xx_ll_usb.c ****   tmpreg &= USBx_DEVICE->DOEPMSK;
 3158              		.loc 1 1294 13 is_stmt 0 view .LVU1035
 3159 0000 00EB4111 		add	r1, r0, r1, lsl #5
 3160              	.LVL256:
1294:Drivers/STM32F4xx_HAL_Driver/Src/stm32f4xx_ll_usb.c ****   tmpreg &= USBx_DEVICE->DOEPMSK;
 3161              		.loc 1 1294 11 view .LVU1036
 3162 0004 D1F8082B 		ldr	r2, [r1, #2824]
 3163              	.LVL257:
1295:Drivers/STM32F4xx_HAL_Driver/Src/stm32f4xx_ll_usb.c **** 
 3164              		.loc 1 1295 3 is_stmt 1 view .LVU1037
1295:Drivers/STM32F4xx_HAL_Driver/Src/stm32f4xx_ll_usb.c **** 
 3165              		.loc 1 1295 13 is_stmt 0 view .LVU1038
 3166 0008 00F50060 		add	r0, r0, #2048
 3167              	.LVL258:
1295:Drivers/STM32F4xx_HAL_Driver/Src/stm32f4xx_ll_usb.c **** 
 3168              		.loc 1 1295 24 view .LVU1039
 3169 000c 4069     		ldr	r0, [r0, #20]
 3170              	.LVL259:
1297:Drivers/STM32F4xx_HAL_Driver/Src/stm32f4xx_ll_usb.c **** }
 3171              		.loc 1 1297 3 is_stmt 1 view .LVU1040
1298:Drivers/STM32F4xx_HAL_Driver/Src/stm32f4xx_ll_usb.c **** 
 3172              		.loc 1 1298 1 is_stmt 0 view .LVU1041
 3173 000e 1040     		ands	r0, r0, r2
 3174              	.LVL260:
1298:Drivers/STM32F4xx_HAL_Driver/Src/stm32f4xx_ll_usb.c **** 
 3175              		.loc 1 1298 1 view .LVU1042
 3176 0010 7047     		bx	lr
 3177              		.cfi_endproc
 3178              	.LFE162:
 3180              		.section	.text.USB_ReadDevInEPInterrupt,"ax",%progbits
 3181              		.align	1
 3182              		.global	USB_ReadDevInEPInterrupt
 3183              		.syntax unified
 3184              		.thumb
 3185              		.thumb_func
 3186              		.fpu fpv4-sp-d16
 3188              	USB_ReadDevInEPInterrupt:
 3189              	.LVL261:
 3190              	.LFB163:
1308:Drivers/STM32F4xx_HAL_Driver/Src/stm32f4xx_ll_usb.c ****   uint32_t USBx_BASE = (uint32_t)USBx;
 3191              		.loc 1 1308 1 is_stmt 1 view -0
ARM GAS  /tmp/ccELzqP8.s 			page 99


 3192              		.cfi_startproc
 3193              		@ args = 0, pretend = 0, frame = 0
 3194              		@ frame_needed = 0, uses_anonymous_args = 0
 3195              		@ link register save eliminated.
1308:Drivers/STM32F4xx_HAL_Driver/Src/stm32f4xx_ll_usb.c ****   uint32_t USBx_BASE = (uint32_t)USBx;
 3196              		.loc 1 1308 1 is_stmt 0 view .LVU1044
 3197 0000 10B4     		push	{r4}
 3198              	.LCFI38:
 3199              		.cfi_def_cfa_offset 4
 3200              		.cfi_offset 4, -4
1309:Drivers/STM32F4xx_HAL_Driver/Src/stm32f4xx_ll_usb.c ****   uint32_t tmpreg;
 3201              		.loc 1 1309 3 is_stmt 1 view .LVU1045
 3202              	.LVL262:
1310:Drivers/STM32F4xx_HAL_Driver/Src/stm32f4xx_ll_usb.c ****   uint32_t msk;
 3203              		.loc 1 1310 3 view .LVU1046
1311:Drivers/STM32F4xx_HAL_Driver/Src/stm32f4xx_ll_usb.c ****   uint32_t emp;
 3204              		.loc 1 1311 3 view .LVU1047
1312:Drivers/STM32F4xx_HAL_Driver/Src/stm32f4xx_ll_usb.c **** 
 3205              		.loc 1 1312 3 view .LVU1048
1314:Drivers/STM32F4xx_HAL_Driver/Src/stm32f4xx_ll_usb.c ****   emp = USBx_DEVICE->DIEPEMPMSK;
 3206              		.loc 1 1314 3 view .LVU1049
1314:Drivers/STM32F4xx_HAL_Driver/Src/stm32f4xx_ll_usb.c ****   emp = USBx_DEVICE->DIEPEMPMSK;
 3207              		.loc 1 1314 7 is_stmt 0 view .LVU1050
 3208 0002 D0F81048 		ldr	r4, [r0, #2064]
 3209              	.LVL263:
1315:Drivers/STM32F4xx_HAL_Driver/Src/stm32f4xx_ll_usb.c ****   msk |= ((emp >> (epnum & EP_ADDR_MSK)) & 0x1U) << 7;
 3210              		.loc 1 1315 3 is_stmt 1 view .LVU1051
1315:Drivers/STM32F4xx_HAL_Driver/Src/stm32f4xx_ll_usb.c ****   msk |= ((emp >> (epnum & EP_ADDR_MSK)) & 0x1U) << 7;
 3211              		.loc 1 1315 7 is_stmt 0 view .LVU1052
 3212 0006 D0F83438 		ldr	r3, [r0, #2100]
 3213              	.LVL264:
1316:Drivers/STM32F4xx_HAL_Driver/Src/stm32f4xx_ll_usb.c ****   tmpreg = USBx_INEP((uint32_t)epnum)->DIEPINT & msk;
 3214              		.loc 1 1316 3 is_stmt 1 view .LVU1053
1316:Drivers/STM32F4xx_HAL_Driver/Src/stm32f4xx_ll_usb.c ****   tmpreg = USBx_INEP((uint32_t)epnum)->DIEPINT & msk;
 3215              		.loc 1 1316 26 is_stmt 0 view .LVU1054
 3216 000a 01F00F02 		and	r2, r1, #15
1316:Drivers/STM32F4xx_HAL_Driver/Src/stm32f4xx_ll_usb.c ****   tmpreg = USBx_INEP((uint32_t)epnum)->DIEPINT & msk;
 3217              		.loc 1 1316 16 view .LVU1055
 3218 000e D340     		lsrs	r3, r3, r2
 3219              	.LVL265:
1316:Drivers/STM32F4xx_HAL_Driver/Src/stm32f4xx_ll_usb.c ****   tmpreg = USBx_INEP((uint32_t)epnum)->DIEPINT & msk;
 3220              		.loc 1 1316 50 view .LVU1056
 3221 0010 DB01     		lsls	r3, r3, #7
 3222 0012 DBB2     		uxtb	r3, r3
1316:Drivers/STM32F4xx_HAL_Driver/Src/stm32f4xx_ll_usb.c ****   tmpreg = USBx_INEP((uint32_t)epnum)->DIEPINT & msk;
 3223              		.loc 1 1316 7 view .LVU1057
 3224 0014 2343     		orrs	r3, r3, r4
 3225              	.LVL266:
1317:Drivers/STM32F4xx_HAL_Driver/Src/stm32f4xx_ll_usb.c **** 
 3226              		.loc 1 1317 3 is_stmt 1 view .LVU1058
1317:Drivers/STM32F4xx_HAL_Driver/Src/stm32f4xx_ll_usb.c **** 
 3227              		.loc 1 1317 12 is_stmt 0 view .LVU1059
 3228 0016 00EB4110 		add	r0, r0, r1, lsl #5
 3229              	.LVL267:
1317:Drivers/STM32F4xx_HAL_Driver/Src/stm32f4xx_ll_usb.c **** 
 3230              		.loc 1 1317 12 view .LVU1060
 3231 001a 00F51060 		add	r0, r0, #2304
ARM GAS  /tmp/ccELzqP8.s 			page 100


1317:Drivers/STM32F4xx_HAL_Driver/Src/stm32f4xx_ll_usb.c **** 
 3232              		.loc 1 1317 38 view .LVU1061
 3233 001e 8068     		ldr	r0, [r0, #8]
 3234              	.LVL268:
1319:Drivers/STM32F4xx_HAL_Driver/Src/stm32f4xx_ll_usb.c **** }
 3235              		.loc 1 1319 3 is_stmt 1 view .LVU1062
1320:Drivers/STM32F4xx_HAL_Driver/Src/stm32f4xx_ll_usb.c **** 
 3236              		.loc 1 1320 1 is_stmt 0 view .LVU1063
 3237 0020 1840     		ands	r0, r0, r3
 3238              	.LVL269:
1320:Drivers/STM32F4xx_HAL_Driver/Src/stm32f4xx_ll_usb.c **** 
 3239              		.loc 1 1320 1 view .LVU1064
 3240 0022 5DF8044B 		ldr	r4, [sp], #4
 3241              	.LCFI39:
 3242              		.cfi_restore 4
 3243              		.cfi_def_cfa_offset 0
 3244 0026 7047     		bx	lr
 3245              		.cfi_endproc
 3246              	.LFE163:
 3248              		.section	.text.USB_ClearInterrupts,"ax",%progbits
 3249              		.align	1
 3250              		.global	USB_ClearInterrupts
 3251              		.syntax unified
 3252              		.thumb
 3253              		.thumb_func
 3254              		.fpu fpv4-sp-d16
 3256              	USB_ClearInterrupts:
 3257              	.LVL270:
 3258              	.LFB164:
1329:Drivers/STM32F4xx_HAL_Driver/Src/stm32f4xx_ll_usb.c ****   USBx->GINTSTS &= interrupt;
 3259              		.loc 1 1329 1 is_stmt 1 view -0
 3260              		.cfi_startproc
 3261              		@ args = 0, pretend = 0, frame = 0
 3262              		@ frame_needed = 0, uses_anonymous_args = 0
 3263              		@ link register save eliminated.
1330:Drivers/STM32F4xx_HAL_Driver/Src/stm32f4xx_ll_usb.c **** }
 3264              		.loc 1 1330 3 view .LVU1066
1330:Drivers/STM32F4xx_HAL_Driver/Src/stm32f4xx_ll_usb.c **** }
 3265              		.loc 1 1330 17 is_stmt 0 view .LVU1067
 3266 0000 4369     		ldr	r3, [r0, #20]
 3267 0002 0B40     		ands	r3, r3, r1
 3268 0004 4361     		str	r3, [r0, #20]
1331:Drivers/STM32F4xx_HAL_Driver/Src/stm32f4xx_ll_usb.c **** 
 3269              		.loc 1 1331 1 view .LVU1068
 3270 0006 7047     		bx	lr
 3271              		.cfi_endproc
 3272              	.LFE164:
 3274              		.section	.text.USB_GetMode,"ax",%progbits
 3275              		.align	1
 3276              		.global	USB_GetMode
 3277              		.syntax unified
 3278              		.thumb
 3279              		.thumb_func
 3280              		.fpu fpv4-sp-d16
 3282              	USB_GetMode:
 3283              	.LVL271:
 3284              	.LFB165:
ARM GAS  /tmp/ccELzqP8.s 			page 101


1342:Drivers/STM32F4xx_HAL_Driver/Src/stm32f4xx_ll_usb.c ****   return ((USBx->GINTSTS) & 0x1U);
 3285              		.loc 1 1342 1 is_stmt 1 view -0
 3286              		.cfi_startproc
 3287              		@ args = 0, pretend = 0, frame = 0
 3288              		@ frame_needed = 0, uses_anonymous_args = 0
 3289              		@ link register save eliminated.
1343:Drivers/STM32F4xx_HAL_Driver/Src/stm32f4xx_ll_usb.c **** }
 3290              		.loc 1 1343 3 view .LVU1070
1343:Drivers/STM32F4xx_HAL_Driver/Src/stm32f4xx_ll_usb.c **** }
 3291              		.loc 1 1343 16 is_stmt 0 view .LVU1071
 3292 0000 4069     		ldr	r0, [r0, #20]
 3293              	.LVL272:
1344:Drivers/STM32F4xx_HAL_Driver/Src/stm32f4xx_ll_usb.c **** 
 3294              		.loc 1 1344 1 view .LVU1072
 3295 0002 00F00100 		and	r0, r0, #1
 3296 0006 7047     		bx	lr
 3297              		.cfi_endproc
 3298              	.LFE165:
 3300              		.section	.text.USB_SetCurrentMode,"ax",%progbits
 3301              		.align	1
 3302              		.global	USB_SetCurrentMode
 3303              		.syntax unified
 3304              		.thumb
 3305              		.thumb_func
 3306              		.fpu fpv4-sp-d16
 3308              	USB_SetCurrentMode:
 3309              	.LVL273:
 3310              	.LFB138:
 250:Drivers/STM32F4xx_HAL_Driver/Src/stm32f4xx_ll_usb.c ****   uint32_t ms = 0U;
 3311              		.loc 1 250 1 is_stmt 1 view -0
 3312              		.cfi_startproc
 3313              		@ args = 0, pretend = 0, frame = 0
 3314              		@ frame_needed = 0, uses_anonymous_args = 0
 250:Drivers/STM32F4xx_HAL_Driver/Src/stm32f4xx_ll_usb.c ****   uint32_t ms = 0U;
 3315              		.loc 1 250 1 is_stmt 0 view .LVU1074
 3316 0000 38B5     		push	{r3, r4, r5, lr}
 3317              	.LCFI40:
 3318              		.cfi_def_cfa_offset 16
 3319              		.cfi_offset 3, -16
 3320              		.cfi_offset 4, -12
 3321              		.cfi_offset 5, -8
 3322              		.cfi_offset 14, -4
 3323 0002 0546     		mov	r5, r0
 251:Drivers/STM32F4xx_HAL_Driver/Src/stm32f4xx_ll_usb.c **** 
 3324              		.loc 1 251 3 is_stmt 1 view .LVU1075
 3325              	.LVL274:
 253:Drivers/STM32F4xx_HAL_Driver/Src/stm32f4xx_ll_usb.c **** 
 3326              		.loc 1 253 3 view .LVU1076
 253:Drivers/STM32F4xx_HAL_Driver/Src/stm32f4xx_ll_usb.c **** 
 3327              		.loc 1 253 17 is_stmt 0 view .LVU1077
 3328 0004 C368     		ldr	r3, [r0, #12]
 3329 0006 23F0C043 		bic	r3, r3, #1610612736
 3330 000a C360     		str	r3, [r0, #12]
 255:Drivers/STM32F4xx_HAL_Driver/Src/stm32f4xx_ll_usb.c ****   {
 3331              		.loc 1 255 3 is_stmt 1 view .LVU1078
 255:Drivers/STM32F4xx_HAL_Driver/Src/stm32f4xx_ll_usb.c ****   {
 3332              		.loc 1 255 6 is_stmt 0 view .LVU1079
ARM GAS  /tmp/ccELzqP8.s 			page 102


 3333 000c 0129     		cmp	r1, #1
 3334 000e 13D0     		beq	.L213
 265:Drivers/STM32F4xx_HAL_Driver/Src/stm32f4xx_ll_usb.c ****   {
 3335              		.loc 1 265 8 is_stmt 1 view .LVU1080
 265:Drivers/STM32F4xx_HAL_Driver/Src/stm32f4xx_ll_usb.c ****   {
 3336              		.loc 1 265 11 is_stmt 0 view .LVU1081
 3337 0010 19BB     		cbnz	r1, .L210
 267:Drivers/STM32F4xx_HAL_Driver/Src/stm32f4xx_ll_usb.c **** 
 3338              		.loc 1 267 5 is_stmt 1 view .LVU1082
 267:Drivers/STM32F4xx_HAL_Driver/Src/stm32f4xx_ll_usb.c **** 
 3339              		.loc 1 267 19 is_stmt 0 view .LVU1083
 3340 0012 C368     		ldr	r3, [r0, #12]
 3341 0014 43F08043 		orr	r3, r3, #1073741824
 3342 0018 C360     		str	r3, [r0, #12]
 251:Drivers/STM32F4xx_HAL_Driver/Src/stm32f4xx_ll_usb.c **** 
 3343              		.loc 1 251 12 view .LVU1084
 3344 001a 0024     		movs	r4, #0
 3345              	.LVL275:
 3346              	.L209:
 269:Drivers/STM32F4xx_HAL_Driver/Src/stm32f4xx_ll_usb.c ****     {
 3347              		.loc 1 269 5 is_stmt 1 discriminator 2 view .LVU1085
 271:Drivers/STM32F4xx_HAL_Driver/Src/stm32f4xx_ll_usb.c ****       ms += 10U;
 3348              		.loc 1 271 7 discriminator 2 view .LVU1086
 3349 001c 0A20     		movs	r0, #10
 3350 001e FFF7FEFF 		bl	HAL_Delay
 3351              	.LVL276:
 272:Drivers/STM32F4xx_HAL_Driver/Src/stm32f4xx_ll_usb.c ****     } while ((USB_GetMode(USBx) != (uint32_t)USB_DEVICE_MODE) && (ms < HAL_USB_CURRENT_MODE_MAX_DEL
 3352              		.loc 1 272 7 discriminator 2 view .LVU1087
 272:Drivers/STM32F4xx_HAL_Driver/Src/stm32f4xx_ll_usb.c ****     } while ((USB_GetMode(USBx) != (uint32_t)USB_DEVICE_MODE) && (ms < HAL_USB_CURRENT_MODE_MAX_DEL
 3353              		.loc 1 272 10 is_stmt 0 discriminator 2 view .LVU1088
 3354 0022 0A34     		adds	r4, r4, #10
 3355              	.LVL277:
 273:Drivers/STM32F4xx_HAL_Driver/Src/stm32f4xx_ll_usb.c ****   }
 3356              		.loc 1 273 13 is_stmt 1 discriminator 2 view .LVU1089
 273:Drivers/STM32F4xx_HAL_Driver/Src/stm32f4xx_ll_usb.c ****   }
 3357              		.loc 1 273 15 is_stmt 0 discriminator 2 view .LVU1090
 3358 0024 2846     		mov	r0, r5
 3359 0026 FFF7FEFF 		bl	USB_GetMode
 3360              	.LVL278:
 273:Drivers/STM32F4xx_HAL_Driver/Src/stm32f4xx_ll_usb.c ****   }
 3361              		.loc 1 273 5 discriminator 2 view .LVU1091
 3362 002a 08B1     		cbz	r0, .L206
 273:Drivers/STM32F4xx_HAL_Driver/Src/stm32f4xx_ll_usb.c ****   }
 3363              		.loc 1 273 63 discriminator 1 view .LVU1092
 3364 002c C72C     		cmp	r4, #199
 3365 002e F5D9     		bls	.L209
 3366              	.L206:
 280:Drivers/STM32F4xx_HAL_Driver/Src/stm32f4xx_ll_usb.c ****   {
 3367              		.loc 1 280 3 is_stmt 1 view .LVU1093
 280:Drivers/STM32F4xx_HAL_Driver/Src/stm32f4xx_ll_usb.c ****   {
 3368              		.loc 1 280 6 is_stmt 0 view .LVU1094
 3369 0030 C82C     		cmp	r4, #200
 3370 0032 14D0     		beq	.L211
 285:Drivers/STM32F4xx_HAL_Driver/Src/stm32f4xx_ll_usb.c **** }
 3371              		.loc 1 285 10 view .LVU1095
 3372 0034 0020     		movs	r0, #0
 3373              	.LVL279:
ARM GAS  /tmp/ccELzqP8.s 			page 103


 3374              	.L208:
 286:Drivers/STM32F4xx_HAL_Driver/Src/stm32f4xx_ll_usb.c **** 
 3375              		.loc 1 286 1 view .LVU1096
 3376 0036 38BD     		pop	{r3, r4, r5, pc}
 3377              	.LVL280:
 3378              	.L213:
 257:Drivers/STM32F4xx_HAL_Driver/Src/stm32f4xx_ll_usb.c **** 
 3379              		.loc 1 257 5 is_stmt 1 view .LVU1097
 257:Drivers/STM32F4xx_HAL_Driver/Src/stm32f4xx_ll_usb.c **** 
 3380              		.loc 1 257 19 is_stmt 0 view .LVU1098
 3381 0038 C368     		ldr	r3, [r0, #12]
 3382 003a 43F00053 		orr	r3, r3, #536870912
 3383 003e C360     		str	r3, [r0, #12]
 251:Drivers/STM32F4xx_HAL_Driver/Src/stm32f4xx_ll_usb.c **** 
 3384              		.loc 1 251 12 view .LVU1099
 3385 0040 0024     		movs	r4, #0
 3386              	.LVL281:
 3387              	.L207:
 259:Drivers/STM32F4xx_HAL_Driver/Src/stm32f4xx_ll_usb.c ****     {
 3388              		.loc 1 259 5 is_stmt 1 discriminator 2 view .LVU1100
 261:Drivers/STM32F4xx_HAL_Driver/Src/stm32f4xx_ll_usb.c ****       ms += 10U;
 3389              		.loc 1 261 7 discriminator 2 view .LVU1101
 3390 0042 0A20     		movs	r0, #10
 3391 0044 FFF7FEFF 		bl	HAL_Delay
 3392              	.LVL282:
 262:Drivers/STM32F4xx_HAL_Driver/Src/stm32f4xx_ll_usb.c ****     } while ((USB_GetMode(USBx) != (uint32_t)USB_HOST_MODE) && (ms < HAL_USB_CURRENT_MODE_MAX_DELAY
 3393              		.loc 1 262 7 discriminator 2 view .LVU1102
 262:Drivers/STM32F4xx_HAL_Driver/Src/stm32f4xx_ll_usb.c ****     } while ((USB_GetMode(USBx) != (uint32_t)USB_HOST_MODE) && (ms < HAL_USB_CURRENT_MODE_MAX_DELAY
 3394              		.loc 1 262 10 is_stmt 0 discriminator 2 view .LVU1103
 3395 0048 0A34     		adds	r4, r4, #10
 3396              	.LVL283:
 263:Drivers/STM32F4xx_HAL_Driver/Src/stm32f4xx_ll_usb.c ****   }
 3397              		.loc 1 263 13 is_stmt 1 discriminator 2 view .LVU1104
 263:Drivers/STM32F4xx_HAL_Driver/Src/stm32f4xx_ll_usb.c ****   }
 3398              		.loc 1 263 15 is_stmt 0 discriminator 2 view .LVU1105
 3399 004a 2846     		mov	r0, r5
 3400 004c FFF7FEFF 		bl	USB_GetMode
 3401              	.LVL284:
 263:Drivers/STM32F4xx_HAL_Driver/Src/stm32f4xx_ll_usb.c ****   }
 3402              		.loc 1 263 5 discriminator 2 view .LVU1106
 3403 0050 0128     		cmp	r0, #1
 3404 0052 EDD0     		beq	.L206
 263:Drivers/STM32F4xx_HAL_Driver/Src/stm32f4xx_ll_usb.c ****   }
 3405              		.loc 1 263 61 discriminator 1 view .LVU1107
 3406 0054 C72C     		cmp	r4, #199
 3407 0056 F4D9     		bls	.L207
 3408 0058 EAE7     		b	.L206
 3409              	.LVL285:
 3410              	.L210:
 277:Drivers/STM32F4xx_HAL_Driver/Src/stm32f4xx_ll_usb.c ****   }
 3411              		.loc 1 277 12 view .LVU1108
 3412 005a 0120     		movs	r0, #1
 3413              	.LVL286:
 277:Drivers/STM32F4xx_HAL_Driver/Src/stm32f4xx_ll_usb.c ****   }
 3414              		.loc 1 277 12 view .LVU1109
 3415 005c EBE7     		b	.L208
 3416              	.LVL287:
ARM GAS  /tmp/ccELzqP8.s 			page 104


 3417              	.L211:
 282:Drivers/STM32F4xx_HAL_Driver/Src/stm32f4xx_ll_usb.c ****   }
 3418              		.loc 1 282 12 view .LVU1110
 3419 005e 0120     		movs	r0, #1
 3420 0060 E9E7     		b	.L208
 3421              		.cfi_endproc
 3422              	.LFE138:
 3424              		.section	.text.USB_ActivateSetup,"ax",%progbits
 3425              		.align	1
 3426              		.global	USB_ActivateSetup
 3427              		.syntax unified
 3428              		.thumb
 3429              		.thumb_func
 3430              		.fpu fpv4-sp-d16
 3432              	USB_ActivateSetup:
 3433              	.LVL288:
 3434              	.LFB166:
1352:Drivers/STM32F4xx_HAL_Driver/Src/stm32f4xx_ll_usb.c ****   uint32_t USBx_BASE = (uint32_t)USBx;
 3435              		.loc 1 1352 1 is_stmt 1 view -0
 3436              		.cfi_startproc
 3437              		@ args = 0, pretend = 0, frame = 0
 3438              		@ frame_needed = 0, uses_anonymous_args = 0
 3439              		@ link register save eliminated.
1353:Drivers/STM32F4xx_HAL_Driver/Src/stm32f4xx_ll_usb.c **** 
 3440              		.loc 1 1353 3 view .LVU1112
1356:Drivers/STM32F4xx_HAL_Driver/Src/stm32f4xx_ll_usb.c **** 
 3441              		.loc 1 1356 3 view .LVU1113
1356:Drivers/STM32F4xx_HAL_Driver/Src/stm32f4xx_ll_usb.c **** 
 3442              		.loc 1 1356 26 is_stmt 0 view .LVU1114
 3443 0000 D0F80039 		ldr	r3, [r0, #2304]
 3444 0004 23F4FF63 		bic	r3, r3, #2040
 3445 0008 23F00703 		bic	r3, r3, #7
 3446 000c C0F80039 		str	r3, [r0, #2304]
1358:Drivers/STM32F4xx_HAL_Driver/Src/stm32f4xx_ll_usb.c **** 
 3447              		.loc 1 1358 3 is_stmt 1 view .LVU1115
1358:Drivers/STM32F4xx_HAL_Driver/Src/stm32f4xx_ll_usb.c **** 
 3448              		.loc 1 1358 21 is_stmt 0 view .LVU1116
 3449 0010 D0F80438 		ldr	r3, [r0, #2052]
 3450 0014 43F48073 		orr	r3, r3, #256
 3451 0018 C0F80438 		str	r3, [r0, #2052]
1360:Drivers/STM32F4xx_HAL_Driver/Src/stm32f4xx_ll_usb.c **** }
 3452              		.loc 1 1360 3 is_stmt 1 view .LVU1117
1361:Drivers/STM32F4xx_HAL_Driver/Src/stm32f4xx_ll_usb.c **** 
 3453              		.loc 1 1361 1 is_stmt 0 view .LVU1118
 3454 001c 0020     		movs	r0, #0
 3455              	.LVL289:
1361:Drivers/STM32F4xx_HAL_Driver/Src/stm32f4xx_ll_usb.c **** 
 3456              		.loc 1 1361 1 view .LVU1119
 3457 001e 7047     		bx	lr
 3458              		.cfi_endproc
 3459              	.LFE166:
 3461              		.section	.text.USB_EP0_OutStart,"ax",%progbits
 3462              		.align	1
 3463              		.global	USB_EP0_OutStart
 3464              		.syntax unified
 3465              		.thumb
 3466              		.thumb_func
ARM GAS  /tmp/ccELzqP8.s 			page 105


 3467              		.fpu fpv4-sp-d16
 3469              	USB_EP0_OutStart:
 3470              	.LVL290:
 3471              	.LFB167:
1374:Drivers/STM32F4xx_HAL_Driver/Src/stm32f4xx_ll_usb.c ****   uint32_t USBx_BASE = (uint32_t)USBx;
 3472              		.loc 1 1374 1 is_stmt 1 view -0
 3473              		.cfi_startproc
 3474              		@ args = 0, pretend = 0, frame = 0
 3475              		@ frame_needed = 0, uses_anonymous_args = 0
 3476              		@ link register save eliminated.
1374:Drivers/STM32F4xx_HAL_Driver/Src/stm32f4xx_ll_usb.c ****   uint32_t USBx_BASE = (uint32_t)USBx;
 3477              		.loc 1 1374 1 is_stmt 0 view .LVU1121
 3478 0000 10B4     		push	{r4}
 3479              	.LCFI41:
 3480              		.cfi_def_cfa_offset 4
 3481              		.cfi_offset 4, -4
1375:Drivers/STM32F4xx_HAL_Driver/Src/stm32f4xx_ll_usb.c ****   uint32_t gSNPSiD = *(__IO const uint32_t *)(&USBx->CID + 0x1U);
 3482              		.loc 1 1375 3 is_stmt 1 view .LVU1122
 3483              	.LVL291:
1376:Drivers/STM32F4xx_HAL_Driver/Src/stm32f4xx_ll_usb.c **** 
 3484              		.loc 1 1376 3 view .LVU1123
1376:Drivers/STM32F4xx_HAL_Driver/Src/stm32f4xx_ll_usb.c **** 
 3485              		.loc 1 1376 12 is_stmt 0 view .LVU1124
 3486 0002 046C     		ldr	r4, [r0, #64]
 3487              	.LVL292:
1378:Drivers/STM32F4xx_HAL_Driver/Src/stm32f4xx_ll_usb.c ****   {
 3488              		.loc 1 1378 3 is_stmt 1 view .LVU1125
1378:Drivers/STM32F4xx_HAL_Driver/Src/stm32f4xx_ll_usb.c ****   {
 3489              		.loc 1 1378 6 is_stmt 0 view .LVU1126
 3490 0004 154B     		ldr	r3, .L220
 3491 0006 9C42     		cmp	r4, r3
 3492 0008 03D9     		bls	.L216
1380:Drivers/STM32F4xx_HAL_Driver/Src/stm32f4xx_ll_usb.c ****     {
 3493              		.loc 1 1380 5 is_stmt 1 view .LVU1127
1380:Drivers/STM32F4xx_HAL_Driver/Src/stm32f4xx_ll_usb.c ****     {
 3494              		.loc 1 1380 24 is_stmt 0 view .LVU1128
 3495 000a D0F8003B 		ldr	r3, [r0, #2816]
1380:Drivers/STM32F4xx_HAL_Driver/Src/stm32f4xx_ll_usb.c ****     {
 3496              		.loc 1 1380 8 view .LVU1129
 3497 000e 002B     		cmp	r3, #0
 3498 0010 16DB     		blt	.L217
 3499              	.L216:
1386:Drivers/STM32F4xx_HAL_Driver/Src/stm32f4xx_ll_usb.c ****   USBx_OUTEP(0U)->DOEPTSIZ |= (USB_OTG_DOEPTSIZ_PKTCNT & (1U << 19));
 3500              		.loc 1 1386 3 is_stmt 1 view .LVU1130
1386:Drivers/STM32F4xx_HAL_Driver/Src/stm32f4xx_ll_usb.c ****   USBx_OUTEP(0U)->DOEPTSIZ |= (USB_OTG_DOEPTSIZ_PKTCNT & (1U << 19));
 3501              		.loc 1 1386 28 is_stmt 0 view .LVU1131
 3502 0012 0024     		movs	r4, #0
 3503              	.LVL293:
1386:Drivers/STM32F4xx_HAL_Driver/Src/stm32f4xx_ll_usb.c ****   USBx_OUTEP(0U)->DOEPTSIZ |= (USB_OTG_DOEPTSIZ_PKTCNT & (1U << 19));
 3504              		.loc 1 1386 28 view .LVU1132
 3505 0014 C0F8104B 		str	r4, [r0, #2832]
1387:Drivers/STM32F4xx_HAL_Driver/Src/stm32f4xx_ll_usb.c ****   USBx_OUTEP(0U)->DOEPTSIZ |= (3U * 8U);
 3506              		.loc 1 1387 3 is_stmt 1 view .LVU1133
1387:Drivers/STM32F4xx_HAL_Driver/Src/stm32f4xx_ll_usb.c ****   USBx_OUTEP(0U)->DOEPTSIZ |= (3U * 8U);
 3507              		.loc 1 1387 28 is_stmt 0 view .LVU1134
 3508 0018 D0F8104B 		ldr	r4, [r0, #2832]
 3509 001c 44F40024 		orr	r4, r4, #524288
ARM GAS  /tmp/ccELzqP8.s 			page 106


 3510 0020 C0F8104B 		str	r4, [r0, #2832]
1388:Drivers/STM32F4xx_HAL_Driver/Src/stm32f4xx_ll_usb.c ****   USBx_OUTEP(0U)->DOEPTSIZ |=  USB_OTG_DOEPTSIZ_STUPCNT;
 3511              		.loc 1 1388 3 is_stmt 1 view .LVU1135
1388:Drivers/STM32F4xx_HAL_Driver/Src/stm32f4xx_ll_usb.c ****   USBx_OUTEP(0U)->DOEPTSIZ |=  USB_OTG_DOEPTSIZ_STUPCNT;
 3512              		.loc 1 1388 28 is_stmt 0 view .LVU1136
 3513 0024 D0F8104B 		ldr	r4, [r0, #2832]
 3514 0028 44F01804 		orr	r4, r4, #24
 3515 002c C0F8104B 		str	r4, [r0, #2832]
1389:Drivers/STM32F4xx_HAL_Driver/Src/stm32f4xx_ll_usb.c **** 
 3516              		.loc 1 1389 3 is_stmt 1 view .LVU1137
1389:Drivers/STM32F4xx_HAL_Driver/Src/stm32f4xx_ll_usb.c **** 
 3517              		.loc 1 1389 28 is_stmt 0 view .LVU1138
 3518 0030 D0F8104B 		ldr	r4, [r0, #2832]
 3519 0034 44F0C044 		orr	r4, r4, #1610612736
 3520 0038 C0F8104B 		str	r4, [r0, #2832]
1391:Drivers/STM32F4xx_HAL_Driver/Src/stm32f4xx_ll_usb.c ****   {
 3521              		.loc 1 1391 3 is_stmt 1 view .LVU1139
1391:Drivers/STM32F4xx_HAL_Driver/Src/stm32f4xx_ll_usb.c ****   {
 3522              		.loc 1 1391 6 is_stmt 0 view .LVU1140
 3523 003c 0129     		cmp	r1, #1
 3524 003e 03D0     		beq	.L219
 3525              	.L217:
1399:Drivers/STM32F4xx_HAL_Driver/Src/stm32f4xx_ll_usb.c **** 
 3526              		.loc 1 1399 1 view .LVU1141
 3527 0040 0020     		movs	r0, #0
 3528              	.LVL294:
1399:Drivers/STM32F4xx_HAL_Driver/Src/stm32f4xx_ll_usb.c **** 
 3529              		.loc 1 1399 1 view .LVU1142
 3530 0042 5DF8044B 		ldr	r4, [sp], #4
 3531              	.LCFI42:
 3532              		.cfi_remember_state
 3533              		.cfi_restore 4
 3534              		.cfi_def_cfa_offset 0
 3535 0046 7047     		bx	lr
 3536              	.LVL295:
 3537              	.L219:
 3538              	.LCFI43:
 3539              		.cfi_restore_state
1393:Drivers/STM32F4xx_HAL_Driver/Src/stm32f4xx_ll_usb.c ****     /* EP enable */
 3540              		.loc 1 1393 5 is_stmt 1 view .LVU1143
1393:Drivers/STM32F4xx_HAL_Driver/Src/stm32f4xx_ll_usb.c ****     /* EP enable */
 3541              		.loc 1 1393 29 is_stmt 0 view .LVU1144
 3542 0048 C0F8142B 		str	r2, [r0, #2836]
1395:Drivers/STM32F4xx_HAL_Driver/Src/stm32f4xx_ll_usb.c ****   }
 3543              		.loc 1 1395 5 is_stmt 1 view .LVU1145
1395:Drivers/STM32F4xx_HAL_Driver/Src/stm32f4xx_ll_usb.c ****   }
 3544              		.loc 1 1395 29 is_stmt 0 view .LVU1146
 3545 004c D0F8003B 		ldr	r3, [r0, #2816]
 3546 0050 43F08023 		orr	r3, r3, #-2147450880
 3547 0054 C0F8003B 		str	r3, [r0, #2816]
 3548 0058 F2E7     		b	.L217
 3549              	.L221:
 3550 005a 00BF     		.align	2
 3551              	.L220:
 3552 005c 0A30544F 		.word	1330917386
 3553              		.cfi_endproc
 3554              	.LFE167:
ARM GAS  /tmp/ccELzqP8.s 			page 107


 3556              		.section	.text.USB_HostInit,"ax",%progbits
 3557              		.align	1
 3558              		.global	USB_HostInit
 3559              		.syntax unified
 3560              		.thumb
 3561              		.thumb_func
 3562              		.fpu fpv4-sp-d16
 3564              	USB_HostInit:
 3565              	.LVL296:
 3566              	.LFB169:
1444:Drivers/STM32F4xx_HAL_Driver/Src/stm32f4xx_ll_usb.c **** 
1445:Drivers/STM32F4xx_HAL_Driver/Src/stm32f4xx_ll_usb.c **** /**
1446:Drivers/STM32F4xx_HAL_Driver/Src/stm32f4xx_ll_usb.c ****   * @brief  USB_HostInit : Initializes the USB OTG controller registers
1447:Drivers/STM32F4xx_HAL_Driver/Src/stm32f4xx_ll_usb.c ****   *         for Host mode
1448:Drivers/STM32F4xx_HAL_Driver/Src/stm32f4xx_ll_usb.c ****   * @param  USBx  Selected device
1449:Drivers/STM32F4xx_HAL_Driver/Src/stm32f4xx_ll_usb.c ****   * @param  cfg   pointer to a USB_OTG_CfgTypeDef structure that contains
1450:Drivers/STM32F4xx_HAL_Driver/Src/stm32f4xx_ll_usb.c ****   *         the configuration information for the specified USBx peripheral.
1451:Drivers/STM32F4xx_HAL_Driver/Src/stm32f4xx_ll_usb.c ****   * @retval HAL status
1452:Drivers/STM32F4xx_HAL_Driver/Src/stm32f4xx_ll_usb.c ****   */
1453:Drivers/STM32F4xx_HAL_Driver/Src/stm32f4xx_ll_usb.c **** HAL_StatusTypeDef USB_HostInit(USB_OTG_GlobalTypeDef *USBx, USB_OTG_CfgTypeDef cfg)
1454:Drivers/STM32F4xx_HAL_Driver/Src/stm32f4xx_ll_usb.c **** {
 3567              		.loc 1 1454 1 is_stmt 1 view -0
 3568              		.cfi_startproc
 3569              		@ args = 20, pretend = 16, frame = 0
 3570              		@ frame_needed = 0, uses_anonymous_args = 0
 3571              		.loc 1 1454 1 is_stmt 0 view .LVU1148
 3572 0000 84B0     		sub	sp, sp, #16
 3573              	.LCFI44:
 3574              		.cfi_def_cfa_offset 16
 3575 0002 38B5     		push	{r3, r4, r5, lr}
 3576              	.LCFI45:
 3577              		.cfi_def_cfa_offset 32
 3578              		.cfi_offset 3, -32
 3579              		.cfi_offset 4, -28
 3580              		.cfi_offset 5, -24
 3581              		.cfi_offset 14, -20
 3582 0004 0446     		mov	r4, r0
 3583 0006 05A8     		add	r0, sp, #20
 3584 0008 80E80E00 		stm	r0, {r1, r2, r3}
1455:Drivers/STM32F4xx_HAL_Driver/Src/stm32f4xx_ll_usb.c ****   HAL_StatusTypeDef ret = HAL_OK;
 3585              		.loc 1 1455 3 is_stmt 1 view .LVU1149
 3586              	.LVL297:
1456:Drivers/STM32F4xx_HAL_Driver/Src/stm32f4xx_ll_usb.c ****   uint32_t USBx_BASE = (uint32_t)USBx;
 3587              		.loc 1 1456 3 view .LVU1150
1457:Drivers/STM32F4xx_HAL_Driver/Src/stm32f4xx_ll_usb.c ****   uint32_t i;
 3588              		.loc 1 1457 3 view .LVU1151
1458:Drivers/STM32F4xx_HAL_Driver/Src/stm32f4xx_ll_usb.c **** 
1459:Drivers/STM32F4xx_HAL_Driver/Src/stm32f4xx_ll_usb.c ****   /* Restart the Phy Clock */
1460:Drivers/STM32F4xx_HAL_Driver/Src/stm32f4xx_ll_usb.c ****   USBx_PCGCCTL = 0U;
 3589              		.loc 1 1460 3 view .LVU1152
 3590              		.loc 1 1460 16 is_stmt 0 view .LVU1153
 3591 000c 0023     		movs	r3, #0
 3592 000e C4F8003E 		str	r3, [r4, #3584]
1461:Drivers/STM32F4xx_HAL_Driver/Src/stm32f4xx_ll_usb.c **** 
1462:Drivers/STM32F4xx_HAL_Driver/Src/stm32f4xx_ll_usb.c **** #if defined(STM32F446xx) || defined(STM32F469xx) || defined(STM32F479xx) || defined(STM32F412Zx) \
1463:Drivers/STM32F4xx_HAL_Driver/Src/stm32f4xx_ll_usb.c ****  || defined(STM32F412Vx) || defined(STM32F412Rx) || defined(STM32F412Cx) || defined(STM32F413xx) \
1464:Drivers/STM32F4xx_HAL_Driver/Src/stm32f4xx_ll_usb.c ****  || defined(STM32F423xx)
ARM GAS  /tmp/ccELzqP8.s 			page 108


1465:Drivers/STM32F4xx_HAL_Driver/Src/stm32f4xx_ll_usb.c ****   /* Disable HW VBUS sensing */
1466:Drivers/STM32F4xx_HAL_Driver/Src/stm32f4xx_ll_usb.c ****   USBx->GCCFG &= ~(USB_OTG_GCCFG_VBDEN);
 3593              		.loc 1 1466 3 is_stmt 1 view .LVU1154
 3594              		.loc 1 1466 15 is_stmt 0 view .LVU1155
 3595 0012 A36B     		ldr	r3, [r4, #56]
 3596 0014 23F40013 		bic	r3, r3, #2097152
 3597 0018 A363     		str	r3, [r4, #56]
1467:Drivers/STM32F4xx_HAL_Driver/Src/stm32f4xx_ll_usb.c **** #else
1468:Drivers/STM32F4xx_HAL_Driver/Src/stm32f4xx_ll_usb.c ****   /*
1469:Drivers/STM32F4xx_HAL_Driver/Src/stm32f4xx_ll_usb.c ****   * Disable HW VBUS sensing. VBUS is internally considered to be always
1470:Drivers/STM32F4xx_HAL_Driver/Src/stm32f4xx_ll_usb.c ****   * at VBUS-Valid level (5V).
1471:Drivers/STM32F4xx_HAL_Driver/Src/stm32f4xx_ll_usb.c ****   */
1472:Drivers/STM32F4xx_HAL_Driver/Src/stm32f4xx_ll_usb.c ****   USBx->GCCFG |= USB_OTG_GCCFG_NOVBUSSENS;
1473:Drivers/STM32F4xx_HAL_Driver/Src/stm32f4xx_ll_usb.c ****   USBx->GCCFG &= ~USB_OTG_GCCFG_VBUSBSEN;
1474:Drivers/STM32F4xx_HAL_Driver/Src/stm32f4xx_ll_usb.c ****   USBx->GCCFG &= ~USB_OTG_GCCFG_VBUSASEN;
1475:Drivers/STM32F4xx_HAL_Driver/Src/stm32f4xx_ll_usb.c **** #endif /* defined(STM32F446xx) || defined(STM32F469xx) || defined(STM32F479xx) || defined(STM32F412
1476:Drivers/STM32F4xx_HAL_Driver/Src/stm32f4xx_ll_usb.c ****           defined(STM32F412Vx) || defined(STM32F412Rx) || defined(STM32F412Cx) || defined(STM32F413
1477:Drivers/STM32F4xx_HAL_Driver/Src/stm32f4xx_ll_usb.c ****           defined(STM32F423xx) */
1478:Drivers/STM32F4xx_HAL_Driver/Src/stm32f4xx_ll_usb.c **** #if defined(STM32F412Zx) || defined(STM32F412Vx) || defined(STM32F412Rx) \
1479:Drivers/STM32F4xx_HAL_Driver/Src/stm32f4xx_ll_usb.c ****  || defined(STM32F412Cx) || defined(STM32F413xx) || defined(STM32F423xx)
1480:Drivers/STM32F4xx_HAL_Driver/Src/stm32f4xx_ll_usb.c ****   /* Disable Battery chargin detector */
1481:Drivers/STM32F4xx_HAL_Driver/Src/stm32f4xx_ll_usb.c ****   USBx->GCCFG &= ~(USB_OTG_GCCFG_BCDEN);
1482:Drivers/STM32F4xx_HAL_Driver/Src/stm32f4xx_ll_usb.c **** #endif /* defined(STM32F412Zx) || defined(STM32F412Vx) || defined(STM32F412Rx) ||
1483:Drivers/STM32F4xx_HAL_Driver/Src/stm32f4xx_ll_usb.c ****           defined(STM32F412Cx) || defined(STM32F413xx) || defined(STM32F423xx) */
1484:Drivers/STM32F4xx_HAL_Driver/Src/stm32f4xx_ll_usb.c **** 
1485:Drivers/STM32F4xx_HAL_Driver/Src/stm32f4xx_ll_usb.c ****   if ((USBx->GUSBCFG & USB_OTG_GUSBCFG_PHYSEL) == 0U)
 3598              		.loc 1 1485 3 is_stmt 1 view .LVU1156
 3599              		.loc 1 1485 12 is_stmt 0 view .LVU1157
 3600 001a E368     		ldr	r3, [r4, #12]
 3601              		.loc 1 1485 6 view .LVU1158
 3602 001c 13F0400F 		tst	r3, #64
 3603 0020 11D1     		bne	.L223
1486:Drivers/STM32F4xx_HAL_Driver/Src/stm32f4xx_ll_usb.c ****   {
1487:Drivers/STM32F4xx_HAL_Driver/Src/stm32f4xx_ll_usb.c ****     if (cfg.speed == USBH_FSLS_SPEED)
 3604              		.loc 1 1487 5 is_stmt 1 view .LVU1159
 3605              		.loc 1 1487 12 is_stmt 0 view .LVU1160
 3606 0022 9DF81730 		ldrb	r3, [sp, #23]	@ zero_extendqisi2
 3607              		.loc 1 1487 8 view .LVU1161
 3608 0026 012B     		cmp	r3, #1
 3609 0028 06D0     		beq	.L236
1488:Drivers/STM32F4xx_HAL_Driver/Src/stm32f4xx_ll_usb.c ****     {
1489:Drivers/STM32F4xx_HAL_Driver/Src/stm32f4xx_ll_usb.c ****       /* Force Device Enumeration to FS/LS mode only */
1490:Drivers/STM32F4xx_HAL_Driver/Src/stm32f4xx_ll_usb.c ****       USBx_HOST->HCFG |= USB_OTG_HCFG_FSLSS;
1491:Drivers/STM32F4xx_HAL_Driver/Src/stm32f4xx_ll_usb.c ****     }
1492:Drivers/STM32F4xx_HAL_Driver/Src/stm32f4xx_ll_usb.c ****     else
1493:Drivers/STM32F4xx_HAL_Driver/Src/stm32f4xx_ll_usb.c ****     {
1494:Drivers/STM32F4xx_HAL_Driver/Src/stm32f4xx_ll_usb.c ****       /* Set default Max speed support */
1495:Drivers/STM32F4xx_HAL_Driver/Src/stm32f4xx_ll_usb.c ****       USBx_HOST->HCFG &= ~(USB_OTG_HCFG_FSLSS);
 3610              		.loc 1 1495 7 is_stmt 1 view .LVU1162
 3611              		.loc 1 1495 23 is_stmt 0 view .LVU1163
 3612 002a D4F80034 		ldr	r3, [r4, #1024]
 3613 002e 23F00403 		bic	r3, r3, #4
 3614 0032 C4F80034 		str	r3, [r4, #1024]
 3615 0036 0CE0     		b	.L225
 3616              	.L236:
1490:Drivers/STM32F4xx_HAL_Driver/Src/stm32f4xx_ll_usb.c ****     }
 3617              		.loc 1 1490 7 is_stmt 1 view .LVU1164
ARM GAS  /tmp/ccELzqP8.s 			page 109


1490:Drivers/STM32F4xx_HAL_Driver/Src/stm32f4xx_ll_usb.c ****     }
 3618              		.loc 1 1490 23 is_stmt 0 view .LVU1165
 3619 0038 D4F80034 		ldr	r3, [r4, #1024]
 3620 003c 43F00403 		orr	r3, r3, #4
 3621 0040 C4F80034 		str	r3, [r4, #1024]
 3622 0044 05E0     		b	.L225
 3623              	.L223:
1496:Drivers/STM32F4xx_HAL_Driver/Src/stm32f4xx_ll_usb.c ****     }
1497:Drivers/STM32F4xx_HAL_Driver/Src/stm32f4xx_ll_usb.c ****   }
1498:Drivers/STM32F4xx_HAL_Driver/Src/stm32f4xx_ll_usb.c ****   else
1499:Drivers/STM32F4xx_HAL_Driver/Src/stm32f4xx_ll_usb.c ****   {
1500:Drivers/STM32F4xx_HAL_Driver/Src/stm32f4xx_ll_usb.c ****     /* Set default Max speed support */
1501:Drivers/STM32F4xx_HAL_Driver/Src/stm32f4xx_ll_usb.c ****     USBx_HOST->HCFG &= ~(USB_OTG_HCFG_FSLSS);
 3624              		.loc 1 1501 5 is_stmt 1 view .LVU1166
 3625              		.loc 1 1501 21 is_stmt 0 view .LVU1167
 3626 0046 D4F80034 		ldr	r3, [r4, #1024]
 3627 004a 23F00403 		bic	r3, r3, #4
 3628 004e C4F80034 		str	r3, [r4, #1024]
 3629              	.L225:
1502:Drivers/STM32F4xx_HAL_Driver/Src/stm32f4xx_ll_usb.c ****   }
1503:Drivers/STM32F4xx_HAL_Driver/Src/stm32f4xx_ll_usb.c **** 
1504:Drivers/STM32F4xx_HAL_Driver/Src/stm32f4xx_ll_usb.c ****   /* Make sure the FIFOs are flushed. */
1505:Drivers/STM32F4xx_HAL_Driver/Src/stm32f4xx_ll_usb.c ****   if (USB_FlushTxFifo(USBx, 0x10U) != HAL_OK) /* all Tx FIFOs */
 3630              		.loc 1 1505 3 is_stmt 1 view .LVU1168
 3631              		.loc 1 1505 7 is_stmt 0 view .LVU1169
 3632 0052 1021     		movs	r1, #16
 3633 0054 2046     		mov	r0, r4
 3634              	.LVL298:
 3635              		.loc 1 1505 7 view .LVU1170
 3636 0056 FFF7FEFF 		bl	USB_FlushTxFifo
 3637              	.LVL299:
 3638              		.loc 1 1505 6 view .LVU1171
 3639 005a 0546     		mov	r5, r0
 3640 005c 00B1     		cbz	r0, .L226
1506:Drivers/STM32F4xx_HAL_Driver/Src/stm32f4xx_ll_usb.c ****   {
1507:Drivers/STM32F4xx_HAL_Driver/Src/stm32f4xx_ll_usb.c ****     ret = HAL_ERROR;
 3641              		.loc 1 1507 9 view .LVU1172
 3642 005e 0125     		movs	r5, #1
 3643              	.L226:
 3644              	.LVL300:
1508:Drivers/STM32F4xx_HAL_Driver/Src/stm32f4xx_ll_usb.c ****   }
1509:Drivers/STM32F4xx_HAL_Driver/Src/stm32f4xx_ll_usb.c **** 
1510:Drivers/STM32F4xx_HAL_Driver/Src/stm32f4xx_ll_usb.c ****   if (USB_FlushRxFifo(USBx) != HAL_OK)
 3645              		.loc 1 1510 3 is_stmt 1 view .LVU1173
 3646              		.loc 1 1510 7 is_stmt 0 view .LVU1174
 3647 0060 2046     		mov	r0, r4
 3648 0062 FFF7FEFF 		bl	USB_FlushRxFifo
 3649              	.LVL301:
 3650              		.loc 1 1510 6 view .LVU1175
 3651 0066 00B1     		cbz	r0, .L227
1511:Drivers/STM32F4xx_HAL_Driver/Src/stm32f4xx_ll_usb.c ****   {
1512:Drivers/STM32F4xx_HAL_Driver/Src/stm32f4xx_ll_usb.c ****     ret = HAL_ERROR;
 3652              		.loc 1 1512 9 view .LVU1176
 3653 0068 0125     		movs	r5, #1
 3654              	.LVL302:
 3655              	.L227:
1513:Drivers/STM32F4xx_HAL_Driver/Src/stm32f4xx_ll_usb.c ****   }
ARM GAS  /tmp/ccELzqP8.s 			page 110


1514:Drivers/STM32F4xx_HAL_Driver/Src/stm32f4xx_ll_usb.c **** 
1515:Drivers/STM32F4xx_HAL_Driver/Src/stm32f4xx_ll_usb.c ****   /* Clear all pending HC Interrupts */
1516:Drivers/STM32F4xx_HAL_Driver/Src/stm32f4xx_ll_usb.c ****   for (i = 0U; i < cfg.Host_channels; i++)
 3656              		.loc 1 1516 3 is_stmt 1 view .LVU1177
 3657              		.loc 1 1516 10 is_stmt 0 view .LVU1178
 3658 006a 0022     		movs	r2, #0
 3659              		.loc 1 1516 3 view .LVU1179
 3660 006c 09E0     		b	.L228
 3661              	.LVL303:
 3662              	.L229:
1517:Drivers/STM32F4xx_HAL_Driver/Src/stm32f4xx_ll_usb.c ****   {
1518:Drivers/STM32F4xx_HAL_Driver/Src/stm32f4xx_ll_usb.c ****     USBx_HC(i)->HCINT = CLEAR_INTERRUPT_MASK;
 3663              		.loc 1 1518 5 is_stmt 1 discriminator 3 view .LVU1180
 3664 006e 04EB4213 		add	r3, r4, r2, lsl #5
 3665              		.loc 1 1518 23 is_stmt 0 discriminator 3 view .LVU1181
 3666 0072 4FF0FF31 		mov	r1, #-1
 3667 0076 C3F80815 		str	r1, [r3, #1288]
1519:Drivers/STM32F4xx_HAL_Driver/Src/stm32f4xx_ll_usb.c ****     USBx_HC(i)->HCINTMSK = 0U;
 3668              		.loc 1 1519 5 is_stmt 1 discriminator 3 view .LVU1182
 3669              		.loc 1 1519 26 is_stmt 0 discriminator 3 view .LVU1183
 3670 007a 0021     		movs	r1, #0
 3671 007c C3F80C15 		str	r1, [r3, #1292]
1516:Drivers/STM32F4xx_HAL_Driver/Src/stm32f4xx_ll_usb.c ****   {
 3672              		.loc 1 1516 39 is_stmt 1 discriminator 3 view .LVU1184
1516:Drivers/STM32F4xx_HAL_Driver/Src/stm32f4xx_ll_usb.c ****   {
 3673              		.loc 1 1516 40 is_stmt 0 discriminator 3 view .LVU1185
 3674 0080 0132     		adds	r2, r2, #1
 3675              	.LVL304:
 3676              	.L228:
1516:Drivers/STM32F4xx_HAL_Driver/Src/stm32f4xx_ll_usb.c ****   {
 3677              		.loc 1 1516 16 is_stmt 1 discriminator 1 view .LVU1186
1516:Drivers/STM32F4xx_HAL_Driver/Src/stm32f4xx_ll_usb.c ****   {
 3678              		.loc 1 1516 23 is_stmt 0 discriminator 1 view .LVU1187
 3679 0082 9DF81530 		ldrb	r3, [sp, #21]	@ zero_extendqisi2
1516:Drivers/STM32F4xx_HAL_Driver/Src/stm32f4xx_ll_usb.c ****   {
 3680              		.loc 1 1516 3 discriminator 1 view .LVU1188
 3681 0086 9342     		cmp	r3, r2
 3682 0088 F1D8     		bhi	.L229
1520:Drivers/STM32F4xx_HAL_Driver/Src/stm32f4xx_ll_usb.c ****   }
1521:Drivers/STM32F4xx_HAL_Driver/Src/stm32f4xx_ll_usb.c **** 
1522:Drivers/STM32F4xx_HAL_Driver/Src/stm32f4xx_ll_usb.c ****   /* Disable all interrupts. */
1523:Drivers/STM32F4xx_HAL_Driver/Src/stm32f4xx_ll_usb.c ****   USBx->GINTMSK = 0U;
 3683              		.loc 1 1523 3 is_stmt 1 view .LVU1189
 3684              		.loc 1 1523 17 is_stmt 0 view .LVU1190
 3685 008a 0023     		movs	r3, #0
 3686 008c A361     		str	r3, [r4, #24]
1524:Drivers/STM32F4xx_HAL_Driver/Src/stm32f4xx_ll_usb.c **** 
1525:Drivers/STM32F4xx_HAL_Driver/Src/stm32f4xx_ll_usb.c ****   /* Clear any pending interrupts */
1526:Drivers/STM32F4xx_HAL_Driver/Src/stm32f4xx_ll_usb.c ****   USBx->GINTSTS = CLEAR_INTERRUPT_MASK;
 3687              		.loc 1 1526 3 is_stmt 1 view .LVU1191
 3688              		.loc 1 1526 17 is_stmt 0 view .LVU1192
 3689 008e 4FF0FF33 		mov	r3, #-1
 3690 0092 6361     		str	r3, [r4, #20]
1527:Drivers/STM32F4xx_HAL_Driver/Src/stm32f4xx_ll_usb.c **** #if defined (USB_OTG_HS)
1528:Drivers/STM32F4xx_HAL_Driver/Src/stm32f4xx_ll_usb.c ****   if (USBx == USB_OTG_HS)
 3691              		.loc 1 1528 3 is_stmt 1 view .LVU1193
 3692              		.loc 1 1528 6 is_stmt 0 view .LVU1194
ARM GAS  /tmp/ccELzqP8.s 			page 111


 3693 0094 124B     		ldr	r3, .L238
 3694 0096 9C42     		cmp	r4, r3
 3695 0098 17D0     		beq	.L237
1529:Drivers/STM32F4xx_HAL_Driver/Src/stm32f4xx_ll_usb.c ****   {
1530:Drivers/STM32F4xx_HAL_Driver/Src/stm32f4xx_ll_usb.c ****     /* set Rx FIFO size */
1531:Drivers/STM32F4xx_HAL_Driver/Src/stm32f4xx_ll_usb.c ****     USBx->GRXFSIZ  = 0x200U;
1532:Drivers/STM32F4xx_HAL_Driver/Src/stm32f4xx_ll_usb.c ****     USBx->DIEPTXF0_HNPTXFSIZ = (uint32_t)(((0x100U << 16) & USB_OTG_NPTXFD) | 0x200U);
1533:Drivers/STM32F4xx_HAL_Driver/Src/stm32f4xx_ll_usb.c ****     USBx->HPTXFSIZ = (uint32_t)(((0xE0U << 16) & USB_OTG_HPTXFSIZ_PTXFD) | 0x300U);
1534:Drivers/STM32F4xx_HAL_Driver/Src/stm32f4xx_ll_usb.c ****   }
1535:Drivers/STM32F4xx_HAL_Driver/Src/stm32f4xx_ll_usb.c ****   else
1536:Drivers/STM32F4xx_HAL_Driver/Src/stm32f4xx_ll_usb.c **** #endif /* defined (USB_OTG_HS) */
1537:Drivers/STM32F4xx_HAL_Driver/Src/stm32f4xx_ll_usb.c ****   {
1538:Drivers/STM32F4xx_HAL_Driver/Src/stm32f4xx_ll_usb.c ****     /* set Rx FIFO size */
1539:Drivers/STM32F4xx_HAL_Driver/Src/stm32f4xx_ll_usb.c ****     USBx->GRXFSIZ  = 0x80U;
 3696              		.loc 1 1539 5 is_stmt 1 view .LVU1195
 3697              		.loc 1 1539 20 is_stmt 0 view .LVU1196
 3698 009a 8023     		movs	r3, #128
 3699 009c 6362     		str	r3, [r4, #36]
1540:Drivers/STM32F4xx_HAL_Driver/Src/stm32f4xx_ll_usb.c ****     USBx->DIEPTXF0_HNPTXFSIZ = (uint32_t)(((0x60U << 16) & USB_OTG_NPTXFD) | 0x80U);
 3700              		.loc 1 1540 5 is_stmt 1 view .LVU1197
 3701              		.loc 1 1540 30 is_stmt 0 view .LVU1198
 3702 009e 03F5C003 		add	r3, r3, #6291456
 3703 00a2 A362     		str	r3, [r4, #40]
1541:Drivers/STM32F4xx_HAL_Driver/Src/stm32f4xx_ll_usb.c ****     USBx->HPTXFSIZ = (uint32_t)(((0x40U << 16)& USB_OTG_HPTXFSIZ_PTXFD) | 0xE0U);
 3704              		.loc 1 1541 5 is_stmt 1 view .LVU1199
 3705              		.loc 1 1541 20 is_stmt 0 view .LVU1200
 3706 00a4 0F4B     		ldr	r3, .L238+4
 3707 00a6 C4F80031 		str	r3, [r4, #256]
 3708              	.L231:
1542:Drivers/STM32F4xx_HAL_Driver/Src/stm32f4xx_ll_usb.c ****   }
1543:Drivers/STM32F4xx_HAL_Driver/Src/stm32f4xx_ll_usb.c **** 
1544:Drivers/STM32F4xx_HAL_Driver/Src/stm32f4xx_ll_usb.c ****   /* Enable the common interrupts */
1545:Drivers/STM32F4xx_HAL_Driver/Src/stm32f4xx_ll_usb.c ****   if (cfg.dma_enable == 0U)
 3709              		.loc 1 1545 3 is_stmt 1 view .LVU1201
 3710              		.loc 1 1545 10 is_stmt 0 view .LVU1202
 3711 00aa 9DF81630 		ldrb	r3, [sp, #22]	@ zero_extendqisi2
 3712              		.loc 1 1545 6 view .LVU1203
 3713 00ae 1BB9     		cbnz	r3, .L232
1546:Drivers/STM32F4xx_HAL_Driver/Src/stm32f4xx_ll_usb.c ****   {
1547:Drivers/STM32F4xx_HAL_Driver/Src/stm32f4xx_ll_usb.c ****     USBx->GINTMSK |= USB_OTG_GINTMSK_RXFLVLM;
 3714              		.loc 1 1547 5 is_stmt 1 view .LVU1204
 3715              		.loc 1 1547 19 is_stmt 0 view .LVU1205
 3716 00b0 A369     		ldr	r3, [r4, #24]
 3717 00b2 43F01003 		orr	r3, r3, #16
 3718 00b6 A361     		str	r3, [r4, #24]
 3719              	.L232:
1548:Drivers/STM32F4xx_HAL_Driver/Src/stm32f4xx_ll_usb.c ****   }
1549:Drivers/STM32F4xx_HAL_Driver/Src/stm32f4xx_ll_usb.c **** 
1550:Drivers/STM32F4xx_HAL_Driver/Src/stm32f4xx_ll_usb.c ****   /* Enable interrupts matching to the Host mode ONLY */
1551:Drivers/STM32F4xx_HAL_Driver/Src/stm32f4xx_ll_usb.c ****   USBx->GINTMSK |= (USB_OTG_GINTMSK_PRTIM            | USB_OTG_GINTMSK_HCIM | \
 3720              		.loc 1 1551 3 is_stmt 1 view .LVU1206
 3721              		.loc 1 1551 17 is_stmt 0 view .LVU1207
 3722 00b8 A269     		ldr	r2, [r4, #24]
 3723              	.LVL305:
 3724              		.loc 1 1551 17 view .LVU1208
 3725 00ba 0B4B     		ldr	r3, .L238+8
 3726 00bc 1343     		orrs	r3, r3, r2
ARM GAS  /tmp/ccELzqP8.s 			page 112


 3727 00be A361     		str	r3, [r4, #24]
1552:Drivers/STM32F4xx_HAL_Driver/Src/stm32f4xx_ll_usb.c ****                     USB_OTG_GINTMSK_SOFM             | USB_OTG_GINTSTS_DISCINT | \
1553:Drivers/STM32F4xx_HAL_Driver/Src/stm32f4xx_ll_usb.c ****                     USB_OTG_GINTMSK_PXFRM_IISOOXFRM  | USB_OTG_GINTMSK_WUIM);
1554:Drivers/STM32F4xx_HAL_Driver/Src/stm32f4xx_ll_usb.c **** 
1555:Drivers/STM32F4xx_HAL_Driver/Src/stm32f4xx_ll_usb.c ****   return ret;
 3728              		.loc 1 1555 3 is_stmt 1 view .LVU1209
1556:Drivers/STM32F4xx_HAL_Driver/Src/stm32f4xx_ll_usb.c **** }
 3729              		.loc 1 1556 1 is_stmt 0 view .LVU1210
 3730 00c0 2846     		mov	r0, r5
 3731 00c2 BDE83840 		pop	{r3, r4, r5, lr}
 3732              	.LCFI46:
 3733              		.cfi_remember_state
 3734              		.cfi_restore 14
 3735              		.cfi_restore 5
 3736              		.cfi_restore 4
 3737              		.cfi_restore 3
 3738              		.cfi_def_cfa_offset 16
 3739              	.LVL306:
 3740              		.loc 1 1556 1 view .LVU1211
 3741 00c6 04B0     		add	sp, sp, #16
 3742              	.LCFI47:
 3743              		.cfi_def_cfa_offset 0
 3744 00c8 7047     		bx	lr
 3745              	.LVL307:
 3746              	.L237:
 3747              	.LCFI48:
 3748              		.cfi_restore_state
1531:Drivers/STM32F4xx_HAL_Driver/Src/stm32f4xx_ll_usb.c ****     USBx->DIEPTXF0_HNPTXFSIZ = (uint32_t)(((0x100U << 16) & USB_OTG_NPTXFD) | 0x200U);
 3749              		.loc 1 1531 5 is_stmt 1 view .LVU1212
1531:Drivers/STM32F4xx_HAL_Driver/Src/stm32f4xx_ll_usb.c ****     USBx->DIEPTXF0_HNPTXFSIZ = (uint32_t)(((0x100U << 16) & USB_OTG_NPTXFD) | 0x200U);
 3750              		.loc 1 1531 20 is_stmt 0 view .LVU1213
 3751 00ca 4FF40073 		mov	r3, #512
 3752 00ce 6362     		str	r3, [r4, #36]
1532:Drivers/STM32F4xx_HAL_Driver/Src/stm32f4xx_ll_usb.c ****     USBx->HPTXFSIZ = (uint32_t)(((0xE0U << 16) & USB_OTG_HPTXFSIZ_PTXFD) | 0x300U);
 3753              		.loc 1 1532 5 is_stmt 1 view .LVU1214
1532:Drivers/STM32F4xx_HAL_Driver/Src/stm32f4xx_ll_usb.c ****     USBx->HPTXFSIZ = (uint32_t)(((0xE0U << 16) & USB_OTG_HPTXFSIZ_PTXFD) | 0x300U);
 3754              		.loc 1 1532 30 is_stmt 0 view .LVU1215
 3755 00d0 03F18073 		add	r3, r3, #16777216
 3756 00d4 A362     		str	r3, [r4, #40]
1533:Drivers/STM32F4xx_HAL_Driver/Src/stm32f4xx_ll_usb.c ****   }
 3757              		.loc 1 1533 5 is_stmt 1 view .LVU1216
1533:Drivers/STM32F4xx_HAL_Driver/Src/stm32f4xx_ll_usb.c ****   }
 3758              		.loc 1 1533 20 is_stmt 0 view .LVU1217
 3759 00d6 054B     		ldr	r3, .L238+12
 3760 00d8 C4F80031 		str	r3, [r4, #256]
 3761 00dc E5E7     		b	.L231
 3762              	.L239:
 3763 00de 00BF     		.align	2
 3764              	.L238:
 3765 00e0 00000440 		.word	1074003968
 3766 00e4 E0004000 		.word	4194528
 3767 00e8 080020A3 		.word	-1558183928
 3768 00ec 0003E000 		.word	14680832
 3769              		.cfi_endproc
 3770              	.LFE169:
 3772              		.section	.text.USB_InitFSLSPClkSel,"ax",%progbits
 3773              		.align	1
ARM GAS  /tmp/ccELzqP8.s 			page 113


 3774              		.global	USB_InitFSLSPClkSel
 3775              		.syntax unified
 3776              		.thumb
 3777              		.thumb_func
 3778              		.fpu fpv4-sp-d16
 3780              	USB_InitFSLSPClkSel:
 3781              	.LVL308:
 3782              	.LFB170:
1557:Drivers/STM32F4xx_HAL_Driver/Src/stm32f4xx_ll_usb.c **** 
1558:Drivers/STM32F4xx_HAL_Driver/Src/stm32f4xx_ll_usb.c **** /**
1559:Drivers/STM32F4xx_HAL_Driver/Src/stm32f4xx_ll_usb.c ****   * @brief  USB_InitFSLSPClkSel : Initializes the FSLSPClkSel field of the
1560:Drivers/STM32F4xx_HAL_Driver/Src/stm32f4xx_ll_usb.c ****   *         HCFG register on the PHY type and set the right frame interval
1561:Drivers/STM32F4xx_HAL_Driver/Src/stm32f4xx_ll_usb.c ****   * @param  USBx  Selected device
1562:Drivers/STM32F4xx_HAL_Driver/Src/stm32f4xx_ll_usb.c ****   * @param  freq  clock frequency
1563:Drivers/STM32F4xx_HAL_Driver/Src/stm32f4xx_ll_usb.c ****   *          This parameter can be one of these values:
1564:Drivers/STM32F4xx_HAL_Driver/Src/stm32f4xx_ll_usb.c ****   *           HCFG_48_MHZ : Full Speed 48 MHz Clock
1565:Drivers/STM32F4xx_HAL_Driver/Src/stm32f4xx_ll_usb.c ****   *           HCFG_6_MHZ : Low Speed 6 MHz Clock
1566:Drivers/STM32F4xx_HAL_Driver/Src/stm32f4xx_ll_usb.c ****   * @retval HAL status
1567:Drivers/STM32F4xx_HAL_Driver/Src/stm32f4xx_ll_usb.c ****   */
1568:Drivers/STM32F4xx_HAL_Driver/Src/stm32f4xx_ll_usb.c **** HAL_StatusTypeDef USB_InitFSLSPClkSel(const USB_OTG_GlobalTypeDef *USBx, uint8_t freq)
1569:Drivers/STM32F4xx_HAL_Driver/Src/stm32f4xx_ll_usb.c **** {
 3783              		.loc 1 1569 1 is_stmt 1 view -0
 3784              		.cfi_startproc
 3785              		@ args = 0, pretend = 0, frame = 0
 3786              		@ frame_needed = 0, uses_anonymous_args = 0
 3787              		@ link register save eliminated.
1570:Drivers/STM32F4xx_HAL_Driver/Src/stm32f4xx_ll_usb.c ****   uint32_t USBx_BASE = (uint32_t)USBx;
 3788              		.loc 1 1570 3 view .LVU1219
1571:Drivers/STM32F4xx_HAL_Driver/Src/stm32f4xx_ll_usb.c **** 
1572:Drivers/STM32F4xx_HAL_Driver/Src/stm32f4xx_ll_usb.c ****   USBx_HOST->HCFG &= ~(USB_OTG_HCFG_FSLSPCS);
 3789              		.loc 1 1572 3 view .LVU1220
 3790              		.loc 1 1572 19 is_stmt 0 view .LVU1221
 3791 0000 00F5806C 		add	ip, r0, #1024
 3792 0004 D0F80034 		ldr	r3, [r0, #1024]
 3793 0008 23F00303 		bic	r3, r3, #3
 3794 000c C0F80034 		str	r3, [r0, #1024]
1573:Drivers/STM32F4xx_HAL_Driver/Src/stm32f4xx_ll_usb.c ****   USBx_HOST->HCFG |= (uint32_t)freq & USB_OTG_HCFG_FSLSPCS;
 3795              		.loc 1 1573 3 is_stmt 1 view .LVU1222
 3796              		.loc 1 1573 19 is_stmt 0 view .LVU1223
 3797 0010 D0F80034 		ldr	r3, [r0, #1024]
 3798              		.loc 1 1573 37 view .LVU1224
 3799 0014 01F00302 		and	r2, r1, #3
 3800              		.loc 1 1573 19 view .LVU1225
 3801 0018 1343     		orrs	r3, r3, r2
 3802 001a C0F80034 		str	r3, [r0, #1024]
1574:Drivers/STM32F4xx_HAL_Driver/Src/stm32f4xx_ll_usb.c **** 
1575:Drivers/STM32F4xx_HAL_Driver/Src/stm32f4xx_ll_usb.c ****   if (freq == HCFG_48_MHZ)
 3803              		.loc 1 1575 3 is_stmt 1 view .LVU1226
 3804              		.loc 1 1575 6 is_stmt 0 view .LVU1227
 3805 001e 0129     		cmp	r1, #1
 3806 0020 07D0     		beq	.L244
1576:Drivers/STM32F4xx_HAL_Driver/Src/stm32f4xx_ll_usb.c ****   {
1577:Drivers/STM32F4xx_HAL_Driver/Src/stm32f4xx_ll_usb.c ****     USBx_HOST->HFIR = HFIR_48_MHZ;
1578:Drivers/STM32F4xx_HAL_Driver/Src/stm32f4xx_ll_usb.c ****   }
1579:Drivers/STM32F4xx_HAL_Driver/Src/stm32f4xx_ll_usb.c ****   else if (freq == HCFG_6_MHZ)
 3807              		.loc 1 1579 8 is_stmt 1 view .LVU1228
 3808              		.loc 1 1579 11 is_stmt 0 view .LVU1229
ARM GAS  /tmp/ccELzqP8.s 			page 114


 3809 0022 0229     		cmp	r1, #2
 3810 0024 0BD1     		bne	.L243
1580:Drivers/STM32F4xx_HAL_Driver/Src/stm32f4xx_ll_usb.c ****   {
1581:Drivers/STM32F4xx_HAL_Driver/Src/stm32f4xx_ll_usb.c ****     USBx_HOST->HFIR = HFIR_6_MHZ;
 3811              		.loc 1 1581 5 is_stmt 1 view .LVU1230
 3812              		.loc 1 1581 21 is_stmt 0 view .LVU1231
 3813 0026 41F27073 		movw	r3, #6000
 3814 002a CCF80430 		str	r3, [ip, #4]
1582:Drivers/STM32F4xx_HAL_Driver/Src/stm32f4xx_ll_usb.c ****   }
1583:Drivers/STM32F4xx_HAL_Driver/Src/stm32f4xx_ll_usb.c ****   else
1584:Drivers/STM32F4xx_HAL_Driver/Src/stm32f4xx_ll_usb.c ****   {
1585:Drivers/STM32F4xx_HAL_Driver/Src/stm32f4xx_ll_usb.c ****     return HAL_ERROR;
1586:Drivers/STM32F4xx_HAL_Driver/Src/stm32f4xx_ll_usb.c ****   }
1587:Drivers/STM32F4xx_HAL_Driver/Src/stm32f4xx_ll_usb.c **** 
1588:Drivers/STM32F4xx_HAL_Driver/Src/stm32f4xx_ll_usb.c ****   return HAL_OK;
 3815              		.loc 1 1588 10 view .LVU1232
 3816 002e 0020     		movs	r0, #0
 3817              	.LVL309:
 3818              		.loc 1 1588 10 view .LVU1233
 3819 0030 7047     		bx	lr
 3820              	.LVL310:
 3821              	.L244:
1577:Drivers/STM32F4xx_HAL_Driver/Src/stm32f4xx_ll_usb.c ****   }
 3822              		.loc 1 1577 5 is_stmt 1 view .LVU1234
1577:Drivers/STM32F4xx_HAL_Driver/Src/stm32f4xx_ll_usb.c ****   }
 3823              		.loc 1 1577 21 is_stmt 0 view .LVU1235
 3824 0032 4BF68033 		movw	r3, #48000
 3825 0036 CCF80430 		str	r3, [ip, #4]
 3826              		.loc 1 1588 10 view .LVU1236
 3827 003a 0020     		movs	r0, #0
 3828              	.LVL311:
 3829              		.loc 1 1588 10 view .LVU1237
 3830 003c 7047     		bx	lr
 3831              	.LVL312:
 3832              	.L243:
1585:Drivers/STM32F4xx_HAL_Driver/Src/stm32f4xx_ll_usb.c ****   }
 3833              		.loc 1 1585 12 view .LVU1238
 3834 003e 0120     		movs	r0, #1
 3835              	.LVL313:
1589:Drivers/STM32F4xx_HAL_Driver/Src/stm32f4xx_ll_usb.c **** }
 3836              		.loc 1 1589 1 view .LVU1239
 3837 0040 7047     		bx	lr
 3838              		.cfi_endproc
 3839              	.LFE170:
 3841              		.section	.text.USB_ResetPort,"ax",%progbits
 3842              		.align	1
 3843              		.global	USB_ResetPort
 3844              		.syntax unified
 3845              		.thumb
 3846              		.thumb_func
 3847              		.fpu fpv4-sp-d16
 3849              	USB_ResetPort:
 3850              	.LVL314:
 3851              	.LFB171:
1590:Drivers/STM32F4xx_HAL_Driver/Src/stm32f4xx_ll_usb.c **** 
1591:Drivers/STM32F4xx_HAL_Driver/Src/stm32f4xx_ll_usb.c **** /**
1592:Drivers/STM32F4xx_HAL_Driver/Src/stm32f4xx_ll_usb.c ****   * @brief  USB_OTG_ResetPort : Reset Host Port
ARM GAS  /tmp/ccELzqP8.s 			page 115


1593:Drivers/STM32F4xx_HAL_Driver/Src/stm32f4xx_ll_usb.c ****   * @param  USBx  Selected device
1594:Drivers/STM32F4xx_HAL_Driver/Src/stm32f4xx_ll_usb.c ****   * @retval HAL status
1595:Drivers/STM32F4xx_HAL_Driver/Src/stm32f4xx_ll_usb.c ****   * @note (1)The application must wait at least 10 ms
1596:Drivers/STM32F4xx_HAL_Driver/Src/stm32f4xx_ll_usb.c ****   *   before clearing the reset bit.
1597:Drivers/STM32F4xx_HAL_Driver/Src/stm32f4xx_ll_usb.c ****   */
1598:Drivers/STM32F4xx_HAL_Driver/Src/stm32f4xx_ll_usb.c **** HAL_StatusTypeDef USB_ResetPort(const USB_OTG_GlobalTypeDef *USBx)
1599:Drivers/STM32F4xx_HAL_Driver/Src/stm32f4xx_ll_usb.c **** {
 3852              		.loc 1 1599 1 is_stmt 1 view -0
 3853              		.cfi_startproc
 3854              		@ args = 0, pretend = 0, frame = 8
 3855              		@ frame_needed = 0, uses_anonymous_args = 0
 3856              		.loc 1 1599 1 is_stmt 0 view .LVU1241
 3857 0000 30B5     		push	{r4, r5, lr}
 3858              	.LCFI49:
 3859              		.cfi_def_cfa_offset 12
 3860              		.cfi_offset 4, -12
 3861              		.cfi_offset 5, -8
 3862              		.cfi_offset 14, -4
 3863 0002 83B0     		sub	sp, sp, #12
 3864              	.LCFI50:
 3865              		.cfi_def_cfa_offset 24
 3866 0004 0446     		mov	r4, r0
1600:Drivers/STM32F4xx_HAL_Driver/Src/stm32f4xx_ll_usb.c ****   uint32_t USBx_BASE = (uint32_t)USBx;
 3867              		.loc 1 1600 3 is_stmt 1 view .LVU1242
 3868              	.LVL315:
1601:Drivers/STM32F4xx_HAL_Driver/Src/stm32f4xx_ll_usb.c **** 
1602:Drivers/STM32F4xx_HAL_Driver/Src/stm32f4xx_ll_usb.c ****   __IO uint32_t hprt0 = 0U;
 3869              		.loc 1 1602 3 view .LVU1243
 3870              		.loc 1 1602 17 is_stmt 0 view .LVU1244
 3871 0006 0025     		movs	r5, #0
 3872 0008 0195     		str	r5, [sp, #4]
1603:Drivers/STM32F4xx_HAL_Driver/Src/stm32f4xx_ll_usb.c **** 
1604:Drivers/STM32F4xx_HAL_Driver/Src/stm32f4xx_ll_usb.c ****   hprt0 = USBx_HPRT0;
 3873              		.loc 1 1604 3 is_stmt 1 view .LVU1245
 3874              		.loc 1 1604 11 is_stmt 0 view .LVU1246
 3875 000a D0F84034 		ldr	r3, [r0, #1088]
 3876              		.loc 1 1604 9 view .LVU1247
 3877 000e 0193     		str	r3, [sp, #4]
1605:Drivers/STM32F4xx_HAL_Driver/Src/stm32f4xx_ll_usb.c **** 
1606:Drivers/STM32F4xx_HAL_Driver/Src/stm32f4xx_ll_usb.c ****   hprt0 &= ~(USB_OTG_HPRT_PENA | USB_OTG_HPRT_PCDET |
 3878              		.loc 1 1606 3 is_stmt 1 view .LVU1248
 3879              		.loc 1 1606 9 is_stmt 0 view .LVU1249
 3880 0010 019B     		ldr	r3, [sp, #4]
 3881 0012 23F02E03 		bic	r3, r3, #46
 3882 0016 0193     		str	r3, [sp, #4]
1607:Drivers/STM32F4xx_HAL_Driver/Src/stm32f4xx_ll_usb.c ****              USB_OTG_HPRT_PENCHNG | USB_OTG_HPRT_POCCHNG);
1608:Drivers/STM32F4xx_HAL_Driver/Src/stm32f4xx_ll_usb.c **** 
1609:Drivers/STM32F4xx_HAL_Driver/Src/stm32f4xx_ll_usb.c ****   USBx_HPRT0 = (USB_OTG_HPRT_PRST | hprt0);
 3883              		.loc 1 1609 3 is_stmt 1 view .LVU1250
 3884              		.loc 1 1609 35 is_stmt 0 view .LVU1251
 3885 0018 019B     		ldr	r3, [sp, #4]
 3886 001a 43F48073 		orr	r3, r3, #256
 3887              		.loc 1 1609 14 view .LVU1252
 3888 001e C0F84034 		str	r3, [r0, #1088]
1610:Drivers/STM32F4xx_HAL_Driver/Src/stm32f4xx_ll_usb.c ****   HAL_Delay(100U);                                 /* See Note #1 */
 3889              		.loc 1 1610 3 is_stmt 1 view .LVU1253
 3890 0022 6420     		movs	r0, #100
ARM GAS  /tmp/ccELzqP8.s 			page 116


 3891              	.LVL316:
 3892              		.loc 1 1610 3 is_stmt 0 view .LVU1254
 3893 0024 FFF7FEFF 		bl	HAL_Delay
 3894              	.LVL317:
1611:Drivers/STM32F4xx_HAL_Driver/Src/stm32f4xx_ll_usb.c ****   USBx_HPRT0 = ((~USB_OTG_HPRT_PRST) & hprt0);
 3895              		.loc 1 1611 3 is_stmt 1 view .LVU1255
 3896              		.loc 1 1611 38 is_stmt 0 view .LVU1256
 3897 0028 019B     		ldr	r3, [sp, #4]
 3898 002a 23F48073 		bic	r3, r3, #256
 3899              		.loc 1 1611 14 view .LVU1257
 3900 002e C4F84034 		str	r3, [r4, #1088]
1612:Drivers/STM32F4xx_HAL_Driver/Src/stm32f4xx_ll_usb.c ****   HAL_Delay(10U);
 3901              		.loc 1 1612 3 is_stmt 1 view .LVU1258
 3902 0032 0A20     		movs	r0, #10
 3903 0034 FFF7FEFF 		bl	HAL_Delay
 3904              	.LVL318:
1613:Drivers/STM32F4xx_HAL_Driver/Src/stm32f4xx_ll_usb.c **** 
1614:Drivers/STM32F4xx_HAL_Driver/Src/stm32f4xx_ll_usb.c ****   return HAL_OK;
 3905              		.loc 1 1614 3 view .LVU1259
1615:Drivers/STM32F4xx_HAL_Driver/Src/stm32f4xx_ll_usb.c **** }
 3906              		.loc 1 1615 1 is_stmt 0 view .LVU1260
 3907 0038 2846     		mov	r0, r5
 3908 003a 03B0     		add	sp, sp, #12
 3909              	.LCFI51:
 3910              		.cfi_def_cfa_offset 12
 3911              		@ sp needed
 3912 003c 30BD     		pop	{r4, r5, pc}
 3913              		.loc 1 1615 1 view .LVU1261
 3914              		.cfi_endproc
 3915              	.LFE171:
 3917              		.section	.text.USB_DriveVbus,"ax",%progbits
 3918              		.align	1
 3919              		.global	USB_DriveVbus
 3920              		.syntax unified
 3921              		.thumb
 3922              		.thumb_func
 3923              		.fpu fpv4-sp-d16
 3925              	USB_DriveVbus:
 3926              	.LVL319:
 3927              	.LFB172:
1616:Drivers/STM32F4xx_HAL_Driver/Src/stm32f4xx_ll_usb.c **** 
1617:Drivers/STM32F4xx_HAL_Driver/Src/stm32f4xx_ll_usb.c **** /**
1618:Drivers/STM32F4xx_HAL_Driver/Src/stm32f4xx_ll_usb.c ****   * @brief  USB_DriveVbus : activate or de-activate vbus
1619:Drivers/STM32F4xx_HAL_Driver/Src/stm32f4xx_ll_usb.c ****   * @param  state  VBUS state
1620:Drivers/STM32F4xx_HAL_Driver/Src/stm32f4xx_ll_usb.c ****   *          This parameter can be one of these values:
1621:Drivers/STM32F4xx_HAL_Driver/Src/stm32f4xx_ll_usb.c ****   *           0 : Deactivate VBUS
1622:Drivers/STM32F4xx_HAL_Driver/Src/stm32f4xx_ll_usb.c ****   *           1 : Activate VBUS
1623:Drivers/STM32F4xx_HAL_Driver/Src/stm32f4xx_ll_usb.c ****   * @retval HAL status
1624:Drivers/STM32F4xx_HAL_Driver/Src/stm32f4xx_ll_usb.c ****   */
1625:Drivers/STM32F4xx_HAL_Driver/Src/stm32f4xx_ll_usb.c **** HAL_StatusTypeDef USB_DriveVbus(const USB_OTG_GlobalTypeDef *USBx, uint8_t state)
1626:Drivers/STM32F4xx_HAL_Driver/Src/stm32f4xx_ll_usb.c **** {
 3928              		.loc 1 1626 1 is_stmt 1 view -0
 3929              		.cfi_startproc
 3930              		@ args = 0, pretend = 0, frame = 8
 3931              		@ frame_needed = 0, uses_anonymous_args = 0
 3932              		@ link register save eliminated.
 3933              		.loc 1 1626 1 is_stmt 0 view .LVU1263
ARM GAS  /tmp/ccELzqP8.s 			page 117


 3934 0000 82B0     		sub	sp, sp, #8
 3935              	.LCFI52:
 3936              		.cfi_def_cfa_offset 8
1627:Drivers/STM32F4xx_HAL_Driver/Src/stm32f4xx_ll_usb.c ****   uint32_t USBx_BASE = (uint32_t)USBx;
 3937              		.loc 1 1627 3 is_stmt 1 view .LVU1264
 3938              	.LVL320:
1628:Drivers/STM32F4xx_HAL_Driver/Src/stm32f4xx_ll_usb.c ****   __IO uint32_t hprt0 = 0U;
 3939              		.loc 1 1628 3 view .LVU1265
 3940              		.loc 1 1628 17 is_stmt 0 view .LVU1266
 3941 0002 0023     		movs	r3, #0
 3942 0004 0193     		str	r3, [sp, #4]
1629:Drivers/STM32F4xx_HAL_Driver/Src/stm32f4xx_ll_usb.c **** 
1630:Drivers/STM32F4xx_HAL_Driver/Src/stm32f4xx_ll_usb.c ****   hprt0 = USBx_HPRT0;
 3943              		.loc 1 1630 3 is_stmt 1 view .LVU1267
 3944              		.loc 1 1630 11 is_stmt 0 view .LVU1268
 3945 0006 D0F84034 		ldr	r3, [r0, #1088]
 3946              		.loc 1 1630 9 view .LVU1269
 3947 000a 0193     		str	r3, [sp, #4]
1631:Drivers/STM32F4xx_HAL_Driver/Src/stm32f4xx_ll_usb.c **** 
1632:Drivers/STM32F4xx_HAL_Driver/Src/stm32f4xx_ll_usb.c ****   hprt0 &= ~(USB_OTG_HPRT_PENA | USB_OTG_HPRT_PCDET |
 3948              		.loc 1 1632 3 is_stmt 1 view .LVU1270
 3949              		.loc 1 1632 9 is_stmt 0 view .LVU1271
 3950 000c 019B     		ldr	r3, [sp, #4]
 3951 000e 23F02E03 		bic	r3, r3, #46
 3952 0012 0193     		str	r3, [sp, #4]
1633:Drivers/STM32F4xx_HAL_Driver/Src/stm32f4xx_ll_usb.c ****              USB_OTG_HPRT_PENCHNG | USB_OTG_HPRT_POCCHNG);
1634:Drivers/STM32F4xx_HAL_Driver/Src/stm32f4xx_ll_usb.c **** 
1635:Drivers/STM32F4xx_HAL_Driver/Src/stm32f4xx_ll_usb.c ****   if (((hprt0 & USB_OTG_HPRT_PPWR) == 0U) && (state == 1U))
 3953              		.loc 1 1635 3 is_stmt 1 view .LVU1272
 3954              		.loc 1 1635 15 is_stmt 0 view .LVU1273
 3955 0014 019B     		ldr	r3, [sp, #4]
 3956              		.loc 1 1635 6 view .LVU1274
 3957 0016 13F4805F 		tst	r3, #4096
 3958 001a 01D1     		bne	.L248
 3959              		.loc 1 1635 43 discriminator 1 view .LVU1275
 3960 001c 0129     		cmp	r1, #1
 3961 001e 0CD0     		beq	.L251
 3962              	.L248:
1636:Drivers/STM32F4xx_HAL_Driver/Src/stm32f4xx_ll_usb.c ****   {
1637:Drivers/STM32F4xx_HAL_Driver/Src/stm32f4xx_ll_usb.c ****     USBx_HPRT0 = (USB_OTG_HPRT_PPWR | hprt0);
1638:Drivers/STM32F4xx_HAL_Driver/Src/stm32f4xx_ll_usb.c ****   }
1639:Drivers/STM32F4xx_HAL_Driver/Src/stm32f4xx_ll_usb.c ****   if (((hprt0 & USB_OTG_HPRT_PPWR) == USB_OTG_HPRT_PPWR) && (state == 0U))
 3963              		.loc 1 1639 3 is_stmt 1 view .LVU1276
 3964              		.loc 1 1639 15 is_stmt 0 view .LVU1277
 3965 0020 019B     		ldr	r3, [sp, #4]
 3966              		.loc 1 1639 6 view .LVU1278
 3967 0022 13F4805F 		tst	r3, #4096
 3968 0026 05D0     		beq	.L249
 3969              		.loc 1 1639 58 discriminator 1 view .LVU1279
 3970 0028 21B9     		cbnz	r1, .L249
1640:Drivers/STM32F4xx_HAL_Driver/Src/stm32f4xx_ll_usb.c ****   {
1641:Drivers/STM32F4xx_HAL_Driver/Src/stm32f4xx_ll_usb.c ****     USBx_HPRT0 = ((~USB_OTG_HPRT_PPWR) & hprt0);
 3971              		.loc 1 1641 5 is_stmt 1 view .LVU1280
 3972              		.loc 1 1641 40 is_stmt 0 view .LVU1281
 3973 002a 019B     		ldr	r3, [sp, #4]
 3974 002c 23F48053 		bic	r3, r3, #4096
 3975              		.loc 1 1641 16 view .LVU1282
ARM GAS  /tmp/ccELzqP8.s 			page 118


 3976 0030 C0F84034 		str	r3, [r0, #1088]
 3977              	.L249:
1642:Drivers/STM32F4xx_HAL_Driver/Src/stm32f4xx_ll_usb.c ****   }
1643:Drivers/STM32F4xx_HAL_Driver/Src/stm32f4xx_ll_usb.c ****   return HAL_OK;
 3978              		.loc 1 1643 3 is_stmt 1 view .LVU1283
1644:Drivers/STM32F4xx_HAL_Driver/Src/stm32f4xx_ll_usb.c **** }
 3979              		.loc 1 1644 1 is_stmt 0 view .LVU1284
 3980 0034 0020     		movs	r0, #0
 3981              	.LVL321:
 3982              		.loc 1 1644 1 view .LVU1285
 3983 0036 02B0     		add	sp, sp, #8
 3984              	.LCFI53:
 3985              		.cfi_remember_state
 3986              		.cfi_def_cfa_offset 0
 3987              		@ sp needed
 3988 0038 7047     		bx	lr
 3989              	.LVL322:
 3990              	.L251:
 3991              	.LCFI54:
 3992              		.cfi_restore_state
1637:Drivers/STM32F4xx_HAL_Driver/Src/stm32f4xx_ll_usb.c ****   }
 3993              		.loc 1 1637 5 is_stmt 1 view .LVU1286
1637:Drivers/STM32F4xx_HAL_Driver/Src/stm32f4xx_ll_usb.c ****   }
 3994              		.loc 1 1637 37 is_stmt 0 view .LVU1287
 3995 003a 019B     		ldr	r3, [sp, #4]
 3996 003c 43F48053 		orr	r3, r3, #4096
1637:Drivers/STM32F4xx_HAL_Driver/Src/stm32f4xx_ll_usb.c ****   }
 3997              		.loc 1 1637 16 view .LVU1288
 3998 0040 C0F84034 		str	r3, [r0, #1088]
 3999 0044 ECE7     		b	.L248
 4000              		.cfi_endproc
 4001              	.LFE172:
 4003              		.section	.text.USB_GetHostSpeed,"ax",%progbits
 4004              		.align	1
 4005              		.global	USB_GetHostSpeed
 4006              		.syntax unified
 4007              		.thumb
 4008              		.thumb_func
 4009              		.fpu fpv4-sp-d16
 4011              	USB_GetHostSpeed:
 4012              	.LVL323:
 4013              	.LFB173:
1645:Drivers/STM32F4xx_HAL_Driver/Src/stm32f4xx_ll_usb.c **** 
1646:Drivers/STM32F4xx_HAL_Driver/Src/stm32f4xx_ll_usb.c **** /**
1647:Drivers/STM32F4xx_HAL_Driver/Src/stm32f4xx_ll_usb.c ****   * @brief  Return Host Port speed
1648:Drivers/STM32F4xx_HAL_Driver/Src/stm32f4xx_ll_usb.c ****   * @param  USBx  Selected device
1649:Drivers/STM32F4xx_HAL_Driver/Src/stm32f4xx_ll_usb.c ****   * @retval speed : Host port device speed
1650:Drivers/STM32F4xx_HAL_Driver/Src/stm32f4xx_ll_usb.c ****   *          This parameter can be one of these values:
1651:Drivers/STM32F4xx_HAL_Driver/Src/stm32f4xx_ll_usb.c ****   *            @arg HCD_DEVICE_SPEED_HIGH: High speed mode
1652:Drivers/STM32F4xx_HAL_Driver/Src/stm32f4xx_ll_usb.c ****   *            @arg HCD_DEVICE_SPEED_FULL: Full speed mode
1653:Drivers/STM32F4xx_HAL_Driver/Src/stm32f4xx_ll_usb.c ****   *            @arg HCD_DEVICE_SPEED_LOW: Low speed mode
1654:Drivers/STM32F4xx_HAL_Driver/Src/stm32f4xx_ll_usb.c ****   */
1655:Drivers/STM32F4xx_HAL_Driver/Src/stm32f4xx_ll_usb.c **** uint32_t USB_GetHostSpeed(USB_OTG_GlobalTypeDef const *USBx)
1656:Drivers/STM32F4xx_HAL_Driver/Src/stm32f4xx_ll_usb.c **** {
 4014              		.loc 1 1656 1 is_stmt 1 view -0
 4015              		.cfi_startproc
 4016              		@ args = 0, pretend = 0, frame = 8
ARM GAS  /tmp/ccELzqP8.s 			page 119


 4017              		@ frame_needed = 0, uses_anonymous_args = 0
 4018              		@ link register save eliminated.
 4019              		.loc 1 1656 1 is_stmt 0 view .LVU1290
 4020 0000 82B0     		sub	sp, sp, #8
 4021              	.LCFI55:
 4022              		.cfi_def_cfa_offset 8
1657:Drivers/STM32F4xx_HAL_Driver/Src/stm32f4xx_ll_usb.c ****   uint32_t USBx_BASE = (uint32_t)USBx;
 4023              		.loc 1 1657 3 is_stmt 1 view .LVU1291
 4024              	.LVL324:
1658:Drivers/STM32F4xx_HAL_Driver/Src/stm32f4xx_ll_usb.c ****   __IO uint32_t hprt0 = 0U;
 4025              		.loc 1 1658 3 view .LVU1292
 4026              		.loc 1 1658 17 is_stmt 0 view .LVU1293
 4027 0002 0023     		movs	r3, #0
 4028 0004 0193     		str	r3, [sp, #4]
1659:Drivers/STM32F4xx_HAL_Driver/Src/stm32f4xx_ll_usb.c **** 
1660:Drivers/STM32F4xx_HAL_Driver/Src/stm32f4xx_ll_usb.c ****   hprt0 = USBx_HPRT0;
 4029              		.loc 1 1660 3 is_stmt 1 view .LVU1294
 4030              		.loc 1 1660 11 is_stmt 0 view .LVU1295
 4031 0006 D0F84034 		ldr	r3, [r0, #1088]
 4032              		.loc 1 1660 9 view .LVU1296
 4033 000a 0193     		str	r3, [sp, #4]
1661:Drivers/STM32F4xx_HAL_Driver/Src/stm32f4xx_ll_usb.c ****   return ((hprt0 & USB_OTG_HPRT_PSPD) >> 17);
 4034              		.loc 1 1661 3 is_stmt 1 view .LVU1297
 4035              		.loc 1 1661 39 is_stmt 0 view .LVU1298
 4036 000c 0198     		ldr	r0, [sp, #4]
 4037              	.LVL325:
1662:Drivers/STM32F4xx_HAL_Driver/Src/stm32f4xx_ll_usb.c **** }
 4038              		.loc 1 1662 1 view .LVU1299
 4039 000e C0F34140 		ubfx	r0, r0, #17, #2
 4040 0012 02B0     		add	sp, sp, #8
 4041              	.LCFI56:
 4042              		.cfi_def_cfa_offset 0
 4043              		@ sp needed
 4044 0014 7047     		bx	lr
 4045              		.cfi_endproc
 4046              	.LFE173:
 4048              		.section	.text.USB_GetCurrentFrame,"ax",%progbits
 4049              		.align	1
 4050              		.global	USB_GetCurrentFrame
 4051              		.syntax unified
 4052              		.thumb
 4053              		.thumb_func
 4054              		.fpu fpv4-sp-d16
 4056              	USB_GetCurrentFrame:
 4057              	.LVL326:
 4058              	.LFB174:
1663:Drivers/STM32F4xx_HAL_Driver/Src/stm32f4xx_ll_usb.c **** 
1664:Drivers/STM32F4xx_HAL_Driver/Src/stm32f4xx_ll_usb.c **** /**
1665:Drivers/STM32F4xx_HAL_Driver/Src/stm32f4xx_ll_usb.c ****   * @brief  Return Host Current Frame number
1666:Drivers/STM32F4xx_HAL_Driver/Src/stm32f4xx_ll_usb.c ****   * @param  USBx  Selected device
1667:Drivers/STM32F4xx_HAL_Driver/Src/stm32f4xx_ll_usb.c ****   * @retval current frame number
1668:Drivers/STM32F4xx_HAL_Driver/Src/stm32f4xx_ll_usb.c ****   */
1669:Drivers/STM32F4xx_HAL_Driver/Src/stm32f4xx_ll_usb.c **** uint32_t USB_GetCurrentFrame(USB_OTG_GlobalTypeDef const *USBx)
1670:Drivers/STM32F4xx_HAL_Driver/Src/stm32f4xx_ll_usb.c **** {
 4059              		.loc 1 1670 1 is_stmt 1 view -0
 4060              		.cfi_startproc
 4061              		@ args = 0, pretend = 0, frame = 0
ARM GAS  /tmp/ccELzqP8.s 			page 120


 4062              		@ frame_needed = 0, uses_anonymous_args = 0
 4063              		@ link register save eliminated.
1671:Drivers/STM32F4xx_HAL_Driver/Src/stm32f4xx_ll_usb.c ****   uint32_t USBx_BASE = (uint32_t)USBx;
 4064              		.loc 1 1671 3 view .LVU1301
1672:Drivers/STM32F4xx_HAL_Driver/Src/stm32f4xx_ll_usb.c **** 
1673:Drivers/STM32F4xx_HAL_Driver/Src/stm32f4xx_ll_usb.c ****   return (USBx_HOST->HFNUM & USB_OTG_HFNUM_FRNUM);
 4065              		.loc 1 1673 3 view .LVU1302
 4066              		.loc 1 1673 11 is_stmt 0 view .LVU1303
 4067 0000 00F58060 		add	r0, r0, #1024
 4068              	.LVL327:
 4069              		.loc 1 1673 20 view .LVU1304
 4070 0004 8068     		ldr	r0, [r0, #8]
 4071              	.LVL328:
1674:Drivers/STM32F4xx_HAL_Driver/Src/stm32f4xx_ll_usb.c **** }
 4072              		.loc 1 1674 1 view .LVU1305
 4073 0006 80B2     		uxth	r0, r0
 4074 0008 7047     		bx	lr
 4075              		.cfi_endproc
 4076              	.LFE174:
 4078              		.section	.text.USB_HC_Init,"ax",%progbits
 4079              		.align	1
 4080              		.global	USB_HC_Init
 4081              		.syntax unified
 4082              		.thumb
 4083              		.thumb_func
 4084              		.fpu fpv4-sp-d16
 4086              	USB_HC_Init:
 4087              	.LVL329:
 4088              	.LFB175:
1675:Drivers/STM32F4xx_HAL_Driver/Src/stm32f4xx_ll_usb.c **** 
1676:Drivers/STM32F4xx_HAL_Driver/Src/stm32f4xx_ll_usb.c **** /**
1677:Drivers/STM32F4xx_HAL_Driver/Src/stm32f4xx_ll_usb.c ****   * @brief  Initialize a host channel
1678:Drivers/STM32F4xx_HAL_Driver/Src/stm32f4xx_ll_usb.c ****   * @param  USBx  Selected device
1679:Drivers/STM32F4xx_HAL_Driver/Src/stm32f4xx_ll_usb.c ****   * @param  ch_num  Channel number
1680:Drivers/STM32F4xx_HAL_Driver/Src/stm32f4xx_ll_usb.c ****   *         This parameter can be a value from 1 to 15
1681:Drivers/STM32F4xx_HAL_Driver/Src/stm32f4xx_ll_usb.c ****   * @param  epnum  Endpoint number
1682:Drivers/STM32F4xx_HAL_Driver/Src/stm32f4xx_ll_usb.c ****   *          This parameter can be a value from 1 to 15
1683:Drivers/STM32F4xx_HAL_Driver/Src/stm32f4xx_ll_usb.c ****   * @param  dev_address  Current device address
1684:Drivers/STM32F4xx_HAL_Driver/Src/stm32f4xx_ll_usb.c ****   *          This parameter can be a value from 0 to 255
1685:Drivers/STM32F4xx_HAL_Driver/Src/stm32f4xx_ll_usb.c ****   * @param  speed  Current device speed
1686:Drivers/STM32F4xx_HAL_Driver/Src/stm32f4xx_ll_usb.c ****   *          This parameter can be one of these values:
1687:Drivers/STM32F4xx_HAL_Driver/Src/stm32f4xx_ll_usb.c ****   *            @arg USB_OTG_SPEED_HIGH: High speed mode
1688:Drivers/STM32F4xx_HAL_Driver/Src/stm32f4xx_ll_usb.c ****   *            @arg USB_OTG_SPEED_FULL: Full speed mode
1689:Drivers/STM32F4xx_HAL_Driver/Src/stm32f4xx_ll_usb.c ****   *            @arg USB_OTG_SPEED_LOW: Low speed mode
1690:Drivers/STM32F4xx_HAL_Driver/Src/stm32f4xx_ll_usb.c ****   * @param  ep_type  Endpoint Type
1691:Drivers/STM32F4xx_HAL_Driver/Src/stm32f4xx_ll_usb.c ****   *          This parameter can be one of these values:
1692:Drivers/STM32F4xx_HAL_Driver/Src/stm32f4xx_ll_usb.c ****   *            @arg EP_TYPE_CTRL: Control type
1693:Drivers/STM32F4xx_HAL_Driver/Src/stm32f4xx_ll_usb.c ****   *            @arg EP_TYPE_ISOC: Isochronous type
1694:Drivers/STM32F4xx_HAL_Driver/Src/stm32f4xx_ll_usb.c ****   *            @arg EP_TYPE_BULK: Bulk type
1695:Drivers/STM32F4xx_HAL_Driver/Src/stm32f4xx_ll_usb.c ****   *            @arg EP_TYPE_INTR: Interrupt type
1696:Drivers/STM32F4xx_HAL_Driver/Src/stm32f4xx_ll_usb.c ****   * @param  mps  Max Packet Size
1697:Drivers/STM32F4xx_HAL_Driver/Src/stm32f4xx_ll_usb.c ****   *          This parameter can be a value from 0 to 32K
1698:Drivers/STM32F4xx_HAL_Driver/Src/stm32f4xx_ll_usb.c ****   * @retval HAL state
1699:Drivers/STM32F4xx_HAL_Driver/Src/stm32f4xx_ll_usb.c ****   */
1700:Drivers/STM32F4xx_HAL_Driver/Src/stm32f4xx_ll_usb.c **** HAL_StatusTypeDef USB_HC_Init(USB_OTG_GlobalTypeDef *USBx, uint8_t ch_num,
1701:Drivers/STM32F4xx_HAL_Driver/Src/stm32f4xx_ll_usb.c ****                               uint8_t epnum, uint8_t dev_address, uint8_t speed,
1702:Drivers/STM32F4xx_HAL_Driver/Src/stm32f4xx_ll_usb.c ****                               uint8_t ep_type, uint16_t mps)
ARM GAS  /tmp/ccELzqP8.s 			page 121


1703:Drivers/STM32F4xx_HAL_Driver/Src/stm32f4xx_ll_usb.c **** {
 4089              		.loc 1 1703 1 is_stmt 1 view -0
 4090              		.cfi_startproc
 4091              		@ args = 12, pretend = 0, frame = 0
 4092              		@ frame_needed = 0, uses_anonymous_args = 0
 4093              		.loc 1 1703 1 is_stmt 0 view .LVU1307
 4094 0000 2DE9F843 		push	{r3, r4, r5, r6, r7, r8, r9, lr}
 4095              	.LCFI57:
 4096              		.cfi_def_cfa_offset 32
 4097              		.cfi_offset 3, -32
 4098              		.cfi_offset 4, -28
 4099              		.cfi_offset 5, -24
 4100              		.cfi_offset 6, -20
 4101              		.cfi_offset 7, -16
 4102              		.cfi_offset 8, -12
 4103              		.cfi_offset 9, -8
 4104              		.cfi_offset 14, -4
 4105 0004 9146     		mov	r9, r2
 4106 0006 1C46     		mov	r4, r3
 4107 0008 9DF82450 		ldrb	r5, [sp, #36]	@ zero_extendqisi2
1704:Drivers/STM32F4xx_HAL_Driver/Src/stm32f4xx_ll_usb.c ****   HAL_StatusTypeDef ret = HAL_OK;
 4108              		.loc 1 1704 3 is_stmt 1 view .LVU1308
 4109              	.LVL330:
1705:Drivers/STM32F4xx_HAL_Driver/Src/stm32f4xx_ll_usb.c ****   uint32_t USBx_BASE = (uint32_t)USBx;
 4110              		.loc 1 1705 3 view .LVU1309
1706:Drivers/STM32F4xx_HAL_Driver/Src/stm32f4xx_ll_usb.c ****   uint32_t HCcharEpDir;
 4111              		.loc 1 1706 3 view .LVU1310
1707:Drivers/STM32F4xx_HAL_Driver/Src/stm32f4xx_ll_usb.c ****   uint32_t HCcharLowSpeed;
 4112              		.loc 1 1707 3 view .LVU1311
1708:Drivers/STM32F4xx_HAL_Driver/Src/stm32f4xx_ll_usb.c ****   uint32_t HostCoreSpeed;
 4113              		.loc 1 1708 3 view .LVU1312
1709:Drivers/STM32F4xx_HAL_Driver/Src/stm32f4xx_ll_usb.c **** 
1710:Drivers/STM32F4xx_HAL_Driver/Src/stm32f4xx_ll_usb.c ****   /* Clear old interrupt conditions for this host channel. */
1711:Drivers/STM32F4xx_HAL_Driver/Src/stm32f4xx_ll_usb.c ****   USBx_HC((uint32_t)ch_num)->HCINT = CLEAR_INTERRUPT_MASK;
 4114              		.loc 1 1711 3 view .LVU1313
 4115 000c 00EB4116 		add	r6, r0, r1, lsl #5
 4116 0010 06F5A063 		add	r3, r6, #1280
 4117              	.LVL331:
 4118              		.loc 1 1711 36 is_stmt 0 view .LVU1314
 4119 0014 4FF0FF32 		mov	r2, #-1
 4120              	.LVL332:
 4121              		.loc 1 1711 36 view .LVU1315
 4122 0018 9A60     		str	r2, [r3, #8]
1712:Drivers/STM32F4xx_HAL_Driver/Src/stm32f4xx_ll_usb.c **** 
1713:Drivers/STM32F4xx_HAL_Driver/Src/stm32f4xx_ll_usb.c ****   /* Enable channel interrupts required for this transfer. */
1714:Drivers/STM32F4xx_HAL_Driver/Src/stm32f4xx_ll_usb.c ****   switch (ep_type)
 4123              		.loc 1 1714 3 is_stmt 1 view .LVU1316
 4124 001a 032D     		cmp	r5, #3
 4125 001c 7BD8     		bhi	.L266
 4126 001e DFE805F0 		tbb	[pc, r5]
 4127              	.L258:
 4128 0022 02       		.byte	(.L259-.L258)/2
 4129 0023 6C       		.byte	(.L260-.L258)/2
 4130 0024 02       		.byte	(.L259-.L258)/2
 4131 0025 19       		.byte	(.L257-.L258)/2
 4132              		.p2align 1
 4133              	.L259:
ARM GAS  /tmp/ccELzqP8.s 			page 122


1715:Drivers/STM32F4xx_HAL_Driver/Src/stm32f4xx_ll_usb.c ****   {
1716:Drivers/STM32F4xx_HAL_Driver/Src/stm32f4xx_ll_usb.c ****     case EP_TYPE_CTRL:
1717:Drivers/STM32F4xx_HAL_Driver/Src/stm32f4xx_ll_usb.c ****     case EP_TYPE_BULK:
1718:Drivers/STM32F4xx_HAL_Driver/Src/stm32f4xx_ll_usb.c ****       USBx_HC((uint32_t)ch_num)->HCINTMSK = USB_OTG_HCINTMSK_XFRCM  |
 4134              		.loc 1 1718 7 view .LVU1317
 4135              		.loc 1 1718 43 is_stmt 0 view .LVU1318
 4136 0026 40F29D42 		movw	r2, #1181
 4137 002a DA60     		str	r2, [r3, #12]
1719:Drivers/STM32F4xx_HAL_Driver/Src/stm32f4xx_ll_usb.c ****                                             USB_OTG_HCINTMSK_STALLM |
1720:Drivers/STM32F4xx_HAL_Driver/Src/stm32f4xx_ll_usb.c ****                                             USB_OTG_HCINTMSK_TXERRM |
1721:Drivers/STM32F4xx_HAL_Driver/Src/stm32f4xx_ll_usb.c ****                                             USB_OTG_HCINTMSK_DTERRM |
1722:Drivers/STM32F4xx_HAL_Driver/Src/stm32f4xx_ll_usb.c ****                                             USB_OTG_HCINTMSK_AHBERR |
1723:Drivers/STM32F4xx_HAL_Driver/Src/stm32f4xx_ll_usb.c ****                                             USB_OTG_HCINTMSK_NAKM;
1724:Drivers/STM32F4xx_HAL_Driver/Src/stm32f4xx_ll_usb.c **** 
1725:Drivers/STM32F4xx_HAL_Driver/Src/stm32f4xx_ll_usb.c ****       if ((epnum & 0x80U) == 0x80U)
 4138              		.loc 1 1725 7 is_stmt 1 view .LVU1319
 4139              		.loc 1 1725 10 is_stmt 0 view .LVU1320
 4140 002c 19F0800F 		tst	r9, #128
 4141 0030 04D1     		bne	.L274
1726:Drivers/STM32F4xx_HAL_Driver/Src/stm32f4xx_ll_usb.c ****       {
1727:Drivers/STM32F4xx_HAL_Driver/Src/stm32f4xx_ll_usb.c ****         USBx_HC((uint32_t)ch_num)->HCINTMSK |= USB_OTG_HCINTMSK_BBERRM;
1728:Drivers/STM32F4xx_HAL_Driver/Src/stm32f4xx_ll_usb.c ****       }
1729:Drivers/STM32F4xx_HAL_Driver/Src/stm32f4xx_ll_usb.c ****       else
1730:Drivers/STM32F4xx_HAL_Driver/Src/stm32f4xx_ll_usb.c ****       {
1731:Drivers/STM32F4xx_HAL_Driver/Src/stm32f4xx_ll_usb.c **** #if defined (USB_OTG_HS)
1732:Drivers/STM32F4xx_HAL_Driver/Src/stm32f4xx_ll_usb.c ****         if (USBx == USB_OTG_HS)
 4142              		.loc 1 1732 9 is_stmt 1 view .LVU1321
 4143              		.loc 1 1732 12 is_stmt 0 view .LVU1322
 4144 0032 3F4A     		ldr	r2, .L281
 4145 0034 9042     		cmp	r0, r2
 4146 0036 07D0     		beq	.L275
1704:Drivers/STM32F4xx_HAL_Driver/Src/stm32f4xx_ll_usb.c ****   uint32_t USBx_BASE = (uint32_t)USBx;
 4147              		.loc 1 1704 21 view .LVU1323
 4148 0038 0027     		movs	r7, #0
 4149 003a 12E0     		b	.L256
 4150              	.L274:
1727:Drivers/STM32F4xx_HAL_Driver/Src/stm32f4xx_ll_usb.c ****       }
 4151              		.loc 1 1727 9 is_stmt 1 view .LVU1324
1727:Drivers/STM32F4xx_HAL_Driver/Src/stm32f4xx_ll_usb.c ****       }
 4152              		.loc 1 1727 45 is_stmt 0 view .LVU1325
 4153 003c DA68     		ldr	r2, [r3, #12]
 4154 003e 42F48072 		orr	r2, r2, #256
 4155 0042 DA60     		str	r2, [r3, #12]
1704:Drivers/STM32F4xx_HAL_Driver/Src/stm32f4xx_ll_usb.c ****   uint32_t USBx_BASE = (uint32_t)USBx;
 4156              		.loc 1 1704 21 view .LVU1326
 4157 0044 0027     		movs	r7, #0
 4158 0046 0CE0     		b	.L256
 4159              	.L275:
1733:Drivers/STM32F4xx_HAL_Driver/Src/stm32f4xx_ll_usb.c ****         {
1734:Drivers/STM32F4xx_HAL_Driver/Src/stm32f4xx_ll_usb.c ****           USBx_HC((uint32_t)ch_num)->HCINTMSK |= USB_OTG_HCINTMSK_NYET |
 4160              		.loc 1 1734 11 is_stmt 1 view .LVU1327
 4161              		.loc 1 1734 47 is_stmt 0 view .LVU1328
 4162 0048 DA68     		ldr	r2, [r3, #12]
 4163 004a 42F06002 		orr	r2, r2, #96
 4164 004e DA60     		str	r2, [r3, #12]
1704:Drivers/STM32F4xx_HAL_Driver/Src/stm32f4xx_ll_usb.c ****   uint32_t USBx_BASE = (uint32_t)USBx;
 4165              		.loc 1 1704 21 view .LVU1329
ARM GAS  /tmp/ccELzqP8.s 			page 123


 4166 0050 0027     		movs	r7, #0
 4167 0052 06E0     		b	.L256
 4168              	.L257:
1735:Drivers/STM32F4xx_HAL_Driver/Src/stm32f4xx_ll_usb.c ****                                                  USB_OTG_HCINTMSK_ACKM;
1736:Drivers/STM32F4xx_HAL_Driver/Src/stm32f4xx_ll_usb.c ****         }
1737:Drivers/STM32F4xx_HAL_Driver/Src/stm32f4xx_ll_usb.c **** #endif /* defined (USB_OTG_HS) */
1738:Drivers/STM32F4xx_HAL_Driver/Src/stm32f4xx_ll_usb.c ****       }
1739:Drivers/STM32F4xx_HAL_Driver/Src/stm32f4xx_ll_usb.c ****       break;
1740:Drivers/STM32F4xx_HAL_Driver/Src/stm32f4xx_ll_usb.c **** 
1741:Drivers/STM32F4xx_HAL_Driver/Src/stm32f4xx_ll_usb.c ****     case EP_TYPE_INTR:
1742:Drivers/STM32F4xx_HAL_Driver/Src/stm32f4xx_ll_usb.c ****       USBx_HC((uint32_t)ch_num)->HCINTMSK = USB_OTG_HCINTMSK_XFRCM  |
 4169              		.loc 1 1742 7 is_stmt 1 view .LVU1330
 4170              		.loc 1 1742 43 is_stmt 0 view .LVU1331
 4171 0054 40F29D62 		movw	r2, #1693
 4172 0058 DA60     		str	r2, [r3, #12]
1743:Drivers/STM32F4xx_HAL_Driver/Src/stm32f4xx_ll_usb.c ****                                             USB_OTG_HCINTMSK_STALLM |
1744:Drivers/STM32F4xx_HAL_Driver/Src/stm32f4xx_ll_usb.c ****                                             USB_OTG_HCINTMSK_TXERRM |
1745:Drivers/STM32F4xx_HAL_Driver/Src/stm32f4xx_ll_usb.c ****                                             USB_OTG_HCINTMSK_DTERRM |
1746:Drivers/STM32F4xx_HAL_Driver/Src/stm32f4xx_ll_usb.c ****                                             USB_OTG_HCINTMSK_NAKM   |
1747:Drivers/STM32F4xx_HAL_Driver/Src/stm32f4xx_ll_usb.c ****                                             USB_OTG_HCINTMSK_AHBERR |
1748:Drivers/STM32F4xx_HAL_Driver/Src/stm32f4xx_ll_usb.c ****                                             USB_OTG_HCINTMSK_FRMORM;
1749:Drivers/STM32F4xx_HAL_Driver/Src/stm32f4xx_ll_usb.c **** 
1750:Drivers/STM32F4xx_HAL_Driver/Src/stm32f4xx_ll_usb.c ****       if ((epnum & 0x80U) == 0x80U)
 4173              		.loc 1 1750 7 is_stmt 1 view .LVU1332
 4174              		.loc 1 1750 10 is_stmt 0 view .LVU1333
 4175 005a 19F0800F 		tst	r9, #128
 4176 005e 46D1     		bne	.L276
1704:Drivers/STM32F4xx_HAL_Driver/Src/stm32f4xx_ll_usb.c ****   uint32_t USBx_BASE = (uint32_t)USBx;
 4177              		.loc 1 1704 21 view .LVU1334
 4178 0060 0027     		movs	r7, #0
 4179              	.L256:
 4180              	.LVL333:
1751:Drivers/STM32F4xx_HAL_Driver/Src/stm32f4xx_ll_usb.c ****       {
1752:Drivers/STM32F4xx_HAL_Driver/Src/stm32f4xx_ll_usb.c ****         USBx_HC((uint32_t)ch_num)->HCINTMSK |= USB_OTG_HCINTMSK_BBERRM;
1753:Drivers/STM32F4xx_HAL_Driver/Src/stm32f4xx_ll_usb.c ****       }
1754:Drivers/STM32F4xx_HAL_Driver/Src/stm32f4xx_ll_usb.c **** 
1755:Drivers/STM32F4xx_HAL_Driver/Src/stm32f4xx_ll_usb.c ****       break;
1756:Drivers/STM32F4xx_HAL_Driver/Src/stm32f4xx_ll_usb.c **** 
1757:Drivers/STM32F4xx_HAL_Driver/Src/stm32f4xx_ll_usb.c ****     case EP_TYPE_ISOC:
1758:Drivers/STM32F4xx_HAL_Driver/Src/stm32f4xx_ll_usb.c ****       USBx_HC((uint32_t)ch_num)->HCINTMSK = USB_OTG_HCINTMSK_XFRCM  |
1759:Drivers/STM32F4xx_HAL_Driver/Src/stm32f4xx_ll_usb.c ****                                             USB_OTG_HCINTMSK_ACKM   |
1760:Drivers/STM32F4xx_HAL_Driver/Src/stm32f4xx_ll_usb.c ****                                             USB_OTG_HCINTMSK_AHBERR |
1761:Drivers/STM32F4xx_HAL_Driver/Src/stm32f4xx_ll_usb.c ****                                             USB_OTG_HCINTMSK_FRMORM;
1762:Drivers/STM32F4xx_HAL_Driver/Src/stm32f4xx_ll_usb.c **** 
1763:Drivers/STM32F4xx_HAL_Driver/Src/stm32f4xx_ll_usb.c ****       if ((epnum & 0x80U) == 0x80U)
1764:Drivers/STM32F4xx_HAL_Driver/Src/stm32f4xx_ll_usb.c ****       {
1765:Drivers/STM32F4xx_HAL_Driver/Src/stm32f4xx_ll_usb.c ****         USBx_HC((uint32_t)ch_num)->HCINTMSK |= (USB_OTG_HCINTMSK_TXERRM | USB_OTG_HCINTMSK_BBERRM);
1766:Drivers/STM32F4xx_HAL_Driver/Src/stm32f4xx_ll_usb.c ****       }
1767:Drivers/STM32F4xx_HAL_Driver/Src/stm32f4xx_ll_usb.c ****       break;
1768:Drivers/STM32F4xx_HAL_Driver/Src/stm32f4xx_ll_usb.c **** 
1769:Drivers/STM32F4xx_HAL_Driver/Src/stm32f4xx_ll_usb.c ****     default:
1770:Drivers/STM32F4xx_HAL_Driver/Src/stm32f4xx_ll_usb.c ****       ret = HAL_ERROR;
1771:Drivers/STM32F4xx_HAL_Driver/Src/stm32f4xx_ll_usb.c ****       break;
1772:Drivers/STM32F4xx_HAL_Driver/Src/stm32f4xx_ll_usb.c ****   }
1773:Drivers/STM32F4xx_HAL_Driver/Src/stm32f4xx_ll_usb.c **** 
1774:Drivers/STM32F4xx_HAL_Driver/Src/stm32f4xx_ll_usb.c ****   /* Clear Hub Start Split transaction */
1775:Drivers/STM32F4xx_HAL_Driver/Src/stm32f4xx_ll_usb.c ****   USBx_HC((uint32_t)ch_num)->HCSPLT = 0U;
ARM GAS  /tmp/ccELzqP8.s 			page 124


 4181              		.loc 1 1775 3 is_stmt 1 view .LVU1335
 4182              		.loc 1 1775 37 is_stmt 0 view .LVU1336
 4183 0062 0022     		movs	r2, #0
 4184 0064 5A60     		str	r2, [r3, #4]
1776:Drivers/STM32F4xx_HAL_Driver/Src/stm32f4xx_ll_usb.c **** 
1777:Drivers/STM32F4xx_HAL_Driver/Src/stm32f4xx_ll_usb.c ****   /* Enable host channel Halt interrupt */
1778:Drivers/STM32F4xx_HAL_Driver/Src/stm32f4xx_ll_usb.c ****   USBx_HC((uint32_t)ch_num)->HCINTMSK |= USB_OTG_HCINTMSK_CHHM;
 4185              		.loc 1 1778 3 is_stmt 1 view .LVU1337
 4186              		.loc 1 1778 39 is_stmt 0 view .LVU1338
 4187 0066 DA68     		ldr	r2, [r3, #12]
 4188 0068 42F00202 		orr	r2, r2, #2
 4189 006c DA60     		str	r2, [r3, #12]
1779:Drivers/STM32F4xx_HAL_Driver/Src/stm32f4xx_ll_usb.c **** 
1780:Drivers/STM32F4xx_HAL_Driver/Src/stm32f4xx_ll_usb.c ****   /* Enable the top level host channel interrupt. */
1781:Drivers/STM32F4xx_HAL_Driver/Src/stm32f4xx_ll_usb.c ****   USBx_HOST->HAINTMSK |= 1UL << (ch_num & 0xFU);
 4190              		.loc 1 1781 3 is_stmt 1 view .LVU1339
 4191              		.loc 1 1781 23 is_stmt 0 view .LVU1340
 4192 006e D0F81834 		ldr	r3, [r0, #1048]
 4193              		.loc 1 1781 41 view .LVU1341
 4194 0072 01F00F01 		and	r1, r1, #15
 4195              	.LVL334:
 4196              		.loc 1 1781 30 view .LVU1342
 4197 0076 0122     		movs	r2, #1
 4198 0078 02FA01F1 		lsl	r1, r2, r1
 4199              		.loc 1 1781 23 view .LVU1343
 4200 007c 1943     		orrs	r1, r1, r3
 4201 007e C0F81814 		str	r1, [r0, #1048]
1782:Drivers/STM32F4xx_HAL_Driver/Src/stm32f4xx_ll_usb.c **** 
1783:Drivers/STM32F4xx_HAL_Driver/Src/stm32f4xx_ll_usb.c ****   /* Make sure host channel interrupts are enabled. */
1784:Drivers/STM32F4xx_HAL_Driver/Src/stm32f4xx_ll_usb.c ****   USBx->GINTMSK |= USB_OTG_GINTMSK_HCIM;
 4202              		.loc 1 1784 3 is_stmt 1 view .LVU1344
 4203              		.loc 1 1784 17 is_stmt 0 view .LVU1345
 4204 0082 8369     		ldr	r3, [r0, #24]
 4205 0084 43F00073 		orr	r3, r3, #33554432
 4206 0088 8361     		str	r3, [r0, #24]
1785:Drivers/STM32F4xx_HAL_Driver/Src/stm32f4xx_ll_usb.c **** 
1786:Drivers/STM32F4xx_HAL_Driver/Src/stm32f4xx_ll_usb.c ****   /* Program the HCCHAR register */
1787:Drivers/STM32F4xx_HAL_Driver/Src/stm32f4xx_ll_usb.c ****   if ((epnum & 0x80U) == 0x80U)
 4207              		.loc 1 1787 3 is_stmt 1 view .LVU1346
 4208              		.loc 1 1787 6 is_stmt 0 view .LVU1347
 4209 008a 19F0800F 		tst	r9, #128
 4210 008e 44D1     		bne	.L277
1788:Drivers/STM32F4xx_HAL_Driver/Src/stm32f4xx_ll_usb.c ****   {
1789:Drivers/STM32F4xx_HAL_Driver/Src/stm32f4xx_ll_usb.c ****     HCcharEpDir = (0x1U << 15) & USB_OTG_HCCHAR_EPDIR;
1790:Drivers/STM32F4xx_HAL_Driver/Src/stm32f4xx_ll_usb.c ****   }
1791:Drivers/STM32F4xx_HAL_Driver/Src/stm32f4xx_ll_usb.c ****   else
1792:Drivers/STM32F4xx_HAL_Driver/Src/stm32f4xx_ll_usb.c ****   {
1793:Drivers/STM32F4xx_HAL_Driver/Src/stm32f4xx_ll_usb.c ****     HCcharEpDir = 0U;
 4211              		.loc 1 1793 17 view .LVU1348
 4212 0090 4FF00008 		mov	r8, #0
 4213              	.L262:
 4214              	.LVL335:
1794:Drivers/STM32F4xx_HAL_Driver/Src/stm32f4xx_ll_usb.c ****   }
1795:Drivers/STM32F4xx_HAL_Driver/Src/stm32f4xx_ll_usb.c **** 
1796:Drivers/STM32F4xx_HAL_Driver/Src/stm32f4xx_ll_usb.c ****   HostCoreSpeed = USB_GetHostSpeed(USBx);
 4215              		.loc 1 1796 3 is_stmt 1 view .LVU1349
 4216              		.loc 1 1796 19 is_stmt 0 view .LVU1350
ARM GAS  /tmp/ccELzqP8.s 			page 125


 4217 0094 FFF7FEFF 		bl	USB_GetHostSpeed
 4218              	.LVL336:
1797:Drivers/STM32F4xx_HAL_Driver/Src/stm32f4xx_ll_usb.c **** 
1798:Drivers/STM32F4xx_HAL_Driver/Src/stm32f4xx_ll_usb.c ****   /* LS device plugged to HUB */
1799:Drivers/STM32F4xx_HAL_Driver/Src/stm32f4xx_ll_usb.c ****   if ((speed == HPRT0_PRTSPD_LOW_SPEED) && (HostCoreSpeed != HPRT0_PRTSPD_LOW_SPEED))
 4219              		.loc 1 1799 3 is_stmt 1 view .LVU1351
 4220              		.loc 1 1799 6 is_stmt 0 view .LVU1352
 4221 0098 9DF82030 		ldrb	r3, [sp, #32]	@ zero_extendqisi2
 4222 009c 022B     		cmp	r3, #2
 4223 009e 3FD0     		beq	.L278
1800:Drivers/STM32F4xx_HAL_Driver/Src/stm32f4xx_ll_usb.c ****   {
1801:Drivers/STM32F4xx_HAL_Driver/Src/stm32f4xx_ll_usb.c ****     HCcharLowSpeed = (0x1U << 17) & USB_OTG_HCCHAR_LSDEV;
1802:Drivers/STM32F4xx_HAL_Driver/Src/stm32f4xx_ll_usb.c ****   }
1803:Drivers/STM32F4xx_HAL_Driver/Src/stm32f4xx_ll_usb.c ****   else
1804:Drivers/STM32F4xx_HAL_Driver/Src/stm32f4xx_ll_usb.c ****   {
1805:Drivers/STM32F4xx_HAL_Driver/Src/stm32f4xx_ll_usb.c ****     HCcharLowSpeed = 0U;
 4224              		.loc 1 1805 20 view .LVU1353
 4225 00a0 0021     		movs	r1, #0
 4226              	.L263:
 4227              	.LVL337:
1806:Drivers/STM32F4xx_HAL_Driver/Src/stm32f4xx_ll_usb.c ****   }
1807:Drivers/STM32F4xx_HAL_Driver/Src/stm32f4xx_ll_usb.c **** 
1808:Drivers/STM32F4xx_HAL_Driver/Src/stm32f4xx_ll_usb.c ****   USBx_HC((uint32_t)ch_num)->HCCHAR = (((uint32_t)dev_address << 22) & USB_OTG_HCCHAR_DAD) |
 4228              		.loc 1 1808 3 is_stmt 1 view .LVU1354
 4229              		.loc 1 1808 63 is_stmt 0 view .LVU1355
 4230 00a2 A305     		lsls	r3, r4, #22
 4231              		.loc 1 1808 70 view .LVU1356
 4232 00a4 03F0FE53 		and	r3, r3, #532676608
1809:Drivers/STM32F4xx_HAL_Driver/Src/stm32f4xx_ll_usb.c ****                                       ((((uint32_t)epnum & 0x7FU) << 11) & USB_OTG_HCCHAR_EPNUM) |
 4233              		.loc 1 1809 67 view .LVU1357
 4234 00a8 4FEAC929 		lsl	r9, r9, #11
 4235              		.loc 1 1809 74 view .LVU1358
 4236 00ac 09F4F049 		and	r9, r9, #30720
1808:Drivers/STM32F4xx_HAL_Driver/Src/stm32f4xx_ll_usb.c ****                                       ((((uint32_t)epnum & 0x7FU) << 11) & USB_OTG_HCCHAR_EPNUM) |
 4237              		.loc 1 1808 92 view .LVU1359
 4238 00b0 43EA0903 		orr	r3, r3, r9
1810:Drivers/STM32F4xx_HAL_Driver/Src/stm32f4xx_ll_usb.c ****                                       (((uint32_t)ep_type << 18) & USB_OTG_HCCHAR_EPTYP) |
 4239              		.loc 1 1810 59 view .LVU1360
 4240 00b4 AC04     		lsls	r4, r5, #18
 4241              		.loc 1 1810 66 view .LVU1361
 4242 00b6 04F44024 		and	r4, r4, #786432
1809:Drivers/STM32F4xx_HAL_Driver/Src/stm32f4xx_ll_usb.c ****                                       ((((uint32_t)epnum & 0x7FU) << 11) & USB_OTG_HCCHAR_EPNUM) |
 4243              		.loc 1 1809 98 view .LVU1362
 4244 00ba 2343     		orrs	r3, r3, r4
1811:Drivers/STM32F4xx_HAL_Driver/Src/stm32f4xx_ll_usb.c ****                                       ((uint32_t)mps & USB_OTG_HCCHAR_MPSIZ) |
 4245              		.loc 1 1811 54 view .LVU1363
 4246 00bc BDF82820 		ldrh	r2, [sp, #40]
 4247 00c0 C2F30A02 		ubfx	r2, r2, #0, #11
1810:Drivers/STM32F4xx_HAL_Driver/Src/stm32f4xx_ll_usb.c ****                                       (((uint32_t)ep_type << 18) & USB_OTG_HCCHAR_EPTYP) |
 4248              		.loc 1 1810 90 view .LVU1364
 4249 00c4 1343     		orrs	r3, r3, r2
1812:Drivers/STM32F4xx_HAL_Driver/Src/stm32f4xx_ll_usb.c ****                                       USB_OTG_HCCHAR_MC_0 | HCcharEpDir | HCcharLowSpeed;
 4250              		.loc 1 1812 59 view .LVU1365
 4251 00c6 43EA0803 		orr	r3, r3, r8
 4252              		.loc 1 1812 73 view .LVU1366
 4253 00ca 0B43     		orrs	r3, r3, r1
 4254 00cc 43F48013 		orr	r3, r3, #1048576
ARM GAS  /tmp/ccELzqP8.s 			page 126


1808:Drivers/STM32F4xx_HAL_Driver/Src/stm32f4xx_ll_usb.c ****                                       ((((uint32_t)epnum & 0x7FU) << 11) & USB_OTG_HCCHAR_EPNUM) |
 4255              		.loc 1 1808 37 view .LVU1367
 4256 00d0 C6F80035 		str	r3, [r6, #1280]
1813:Drivers/STM32F4xx_HAL_Driver/Src/stm32f4xx_ll_usb.c **** 
1814:Drivers/STM32F4xx_HAL_Driver/Src/stm32f4xx_ll_usb.c ****   if ((ep_type == EP_TYPE_INTR) || (ep_type == EP_TYPE_ISOC))
 4257              		.loc 1 1814 3 is_stmt 1 view .LVU1368
 4258              		.loc 1 1814 6 is_stmt 0 view .LVU1369
 4259 00d4 032D     		cmp	r5, #3
 4260 00d6 01D0     		beq	.L264
 4261              		.loc 1 1814 33 discriminator 1 view .LVU1370
 4262 00d8 012D     		cmp	r5, #1
 4263 00da 05D1     		bne	.L265
 4264              	.L264:
1815:Drivers/STM32F4xx_HAL_Driver/Src/stm32f4xx_ll_usb.c ****   {
1816:Drivers/STM32F4xx_HAL_Driver/Src/stm32f4xx_ll_usb.c ****     USBx_HC((uint32_t)ch_num)->HCCHAR |= USB_OTG_HCCHAR_ODDFRM;
 4265              		.loc 1 1816 5 is_stmt 1 view .LVU1371
 4266              		.loc 1 1816 39 is_stmt 0 view .LVU1372
 4267 00dc D6F80035 		ldr	r3, [r6, #1280]
 4268 00e0 43F00053 		orr	r3, r3, #536870912
 4269 00e4 C6F80035 		str	r3, [r6, #1280]
 4270              	.L265:
1817:Drivers/STM32F4xx_HAL_Driver/Src/stm32f4xx_ll_usb.c ****   }
1818:Drivers/STM32F4xx_HAL_Driver/Src/stm32f4xx_ll_usb.c **** 
1819:Drivers/STM32F4xx_HAL_Driver/Src/stm32f4xx_ll_usb.c ****   return ret;
 4271              		.loc 1 1819 3 is_stmt 1 view .LVU1373
1820:Drivers/STM32F4xx_HAL_Driver/Src/stm32f4xx_ll_usb.c **** }
 4272              		.loc 1 1820 1 is_stmt 0 view .LVU1374
 4273 00e8 3846     		mov	r0, r7
 4274              	.LVL338:
 4275              		.loc 1 1820 1 view .LVU1375
 4276 00ea BDE8F883 		pop	{r3, r4, r5, r6, r7, r8, r9, pc}
 4277              	.LVL339:
 4278              	.L276:
1752:Drivers/STM32F4xx_HAL_Driver/Src/stm32f4xx_ll_usb.c ****       }
 4279              		.loc 1 1752 9 is_stmt 1 view .LVU1376
1752:Drivers/STM32F4xx_HAL_Driver/Src/stm32f4xx_ll_usb.c ****       }
 4280              		.loc 1 1752 45 is_stmt 0 view .LVU1377
 4281 00ee DA68     		ldr	r2, [r3, #12]
 4282 00f0 42F48072 		orr	r2, r2, #256
 4283 00f4 DA60     		str	r2, [r3, #12]
1704:Drivers/STM32F4xx_HAL_Driver/Src/stm32f4xx_ll_usb.c ****   uint32_t USBx_BASE = (uint32_t)USBx;
 4284              		.loc 1 1704 21 view .LVU1378
 4285 00f6 0027     		movs	r7, #0
 4286 00f8 B3E7     		b	.L256
 4287              	.L260:
1758:Drivers/STM32F4xx_HAL_Driver/Src/stm32f4xx_ll_usb.c ****                                             USB_OTG_HCINTMSK_ACKM   |
 4288              		.loc 1 1758 7 is_stmt 1 view .LVU1379
1758:Drivers/STM32F4xx_HAL_Driver/Src/stm32f4xx_ll_usb.c ****                                             USB_OTG_HCINTMSK_ACKM   |
 4289              		.loc 1 1758 43 is_stmt 0 view .LVU1380
 4290 00fa 40F22522 		movw	r2, #549
 4291 00fe DA60     		str	r2, [r3, #12]
1763:Drivers/STM32F4xx_HAL_Driver/Src/stm32f4xx_ll_usb.c ****       {
 4292              		.loc 1 1763 7 is_stmt 1 view .LVU1381
1763:Drivers/STM32F4xx_HAL_Driver/Src/stm32f4xx_ll_usb.c ****       {
 4293              		.loc 1 1763 10 is_stmt 0 view .LVU1382
 4294 0100 19F0800F 		tst	r9, #128
 4295 0104 01D1     		bne	.L279
ARM GAS  /tmp/ccELzqP8.s 			page 127


1704:Drivers/STM32F4xx_HAL_Driver/Src/stm32f4xx_ll_usb.c ****   uint32_t USBx_BASE = (uint32_t)USBx;
 4296              		.loc 1 1704 21 view .LVU1383
 4297 0106 0027     		movs	r7, #0
 4298 0108 ABE7     		b	.L256
 4299              	.L279:
1765:Drivers/STM32F4xx_HAL_Driver/Src/stm32f4xx_ll_usb.c ****       }
 4300              		.loc 1 1765 9 is_stmt 1 view .LVU1384
1765:Drivers/STM32F4xx_HAL_Driver/Src/stm32f4xx_ll_usb.c ****       }
 4301              		.loc 1 1765 45 is_stmt 0 view .LVU1385
 4302 010a DA68     		ldr	r2, [r3, #12]
 4303 010c 42F4C072 		orr	r2, r2, #384
 4304 0110 DA60     		str	r2, [r3, #12]
1704:Drivers/STM32F4xx_HAL_Driver/Src/stm32f4xx_ll_usb.c ****   uint32_t USBx_BASE = (uint32_t)USBx;
 4305              		.loc 1 1704 21 view .LVU1386
 4306 0112 0027     		movs	r7, #0
 4307 0114 A5E7     		b	.L256
 4308              	.L266:
1714:Drivers/STM32F4xx_HAL_Driver/Src/stm32f4xx_ll_usb.c ****   {
 4309              		.loc 1 1714 3 view .LVU1387
 4310 0116 0127     		movs	r7, #1
 4311 0118 A3E7     		b	.L256
 4312              	.LVL340:
 4313              	.L277:
1789:Drivers/STM32F4xx_HAL_Driver/Src/stm32f4xx_ll_usb.c ****   }
 4314              		.loc 1 1789 17 view .LVU1388
 4315 011a 4FF40048 		mov	r8, #32768
 4316 011e B9E7     		b	.L262
 4317              	.LVL341:
 4318              	.L278:
1799:Drivers/STM32F4xx_HAL_Driver/Src/stm32f4xx_ll_usb.c ****   {
 4319              		.loc 1 1799 41 discriminator 1 view .LVU1389
 4320 0120 0228     		cmp	r0, #2
 4321 0122 02D0     		beq	.L280
1801:Drivers/STM32F4xx_HAL_Driver/Src/stm32f4xx_ll_usb.c ****   }
 4322              		.loc 1 1801 20 view .LVU1390
 4323 0124 4FF40031 		mov	r1, #131072
 4324 0128 BBE7     		b	.L263
 4325              	.L280:
1805:Drivers/STM32F4xx_HAL_Driver/Src/stm32f4xx_ll_usb.c ****   }
 4326              		.loc 1 1805 20 view .LVU1391
 4327 012a 0021     		movs	r1, #0
 4328 012c B9E7     		b	.L263
 4329              	.L282:
 4330 012e 00BF     		.align	2
 4331              	.L281:
 4332 0130 00000440 		.word	1074003968
 4333              		.cfi_endproc
 4334              	.LFE175:
 4336              		.section	.text.USB_HC_ReadInterrupt,"ax",%progbits
 4337              		.align	1
 4338              		.global	USB_HC_ReadInterrupt
 4339              		.syntax unified
 4340              		.thumb
 4341              		.thumb_func
 4342              		.fpu fpv4-sp-d16
 4344              	USB_HC_ReadInterrupt:
 4345              	.LVL342:
ARM GAS  /tmp/ccELzqP8.s 			page 128


 4346              	.LFB177:
1821:Drivers/STM32F4xx_HAL_Driver/Src/stm32f4xx_ll_usb.c **** 
1822:Drivers/STM32F4xx_HAL_Driver/Src/stm32f4xx_ll_usb.c **** /**
1823:Drivers/STM32F4xx_HAL_Driver/Src/stm32f4xx_ll_usb.c ****   * @brief  Start a transfer over a host channel
1824:Drivers/STM32F4xx_HAL_Driver/Src/stm32f4xx_ll_usb.c ****   * @param  USBx  Selected device
1825:Drivers/STM32F4xx_HAL_Driver/Src/stm32f4xx_ll_usb.c ****   * @param  hc  pointer to host channel structure
1826:Drivers/STM32F4xx_HAL_Driver/Src/stm32f4xx_ll_usb.c ****   * @param  dma USB dma enabled or disabled
1827:Drivers/STM32F4xx_HAL_Driver/Src/stm32f4xx_ll_usb.c ****   *          This parameter can be one of these values:
1828:Drivers/STM32F4xx_HAL_Driver/Src/stm32f4xx_ll_usb.c ****   *           0 : DMA feature not used
1829:Drivers/STM32F4xx_HAL_Driver/Src/stm32f4xx_ll_usb.c ****   *           1 : DMA feature used
1830:Drivers/STM32F4xx_HAL_Driver/Src/stm32f4xx_ll_usb.c ****   * @retval HAL state
1831:Drivers/STM32F4xx_HAL_Driver/Src/stm32f4xx_ll_usb.c ****   */
1832:Drivers/STM32F4xx_HAL_Driver/Src/stm32f4xx_ll_usb.c **** HAL_StatusTypeDef USB_HC_StartXfer(USB_OTG_GlobalTypeDef *USBx, USB_OTG_HCTypeDef *hc, uint8_t dma)
1833:Drivers/STM32F4xx_HAL_Driver/Src/stm32f4xx_ll_usb.c **** {
1834:Drivers/STM32F4xx_HAL_Driver/Src/stm32f4xx_ll_usb.c ****   uint32_t USBx_BASE = (uint32_t)USBx;
1835:Drivers/STM32F4xx_HAL_Driver/Src/stm32f4xx_ll_usb.c ****   uint32_t ch_num = (uint32_t)hc->ch_num;
1836:Drivers/STM32F4xx_HAL_Driver/Src/stm32f4xx_ll_usb.c ****   __IO uint32_t tmpreg;
1837:Drivers/STM32F4xx_HAL_Driver/Src/stm32f4xx_ll_usb.c ****   uint8_t  is_oddframe;
1838:Drivers/STM32F4xx_HAL_Driver/Src/stm32f4xx_ll_usb.c ****   uint16_t len_words;
1839:Drivers/STM32F4xx_HAL_Driver/Src/stm32f4xx_ll_usb.c ****   uint16_t num_packets;
1840:Drivers/STM32F4xx_HAL_Driver/Src/stm32f4xx_ll_usb.c ****   uint16_t max_hc_pkt_count = HC_MAX_PKT_CNT;
1841:Drivers/STM32F4xx_HAL_Driver/Src/stm32f4xx_ll_usb.c **** 
1842:Drivers/STM32F4xx_HAL_Driver/Src/stm32f4xx_ll_usb.c **** #if defined (USB_OTG_HS)
1843:Drivers/STM32F4xx_HAL_Driver/Src/stm32f4xx_ll_usb.c ****   if (USBx == USB_OTG_HS)
1844:Drivers/STM32F4xx_HAL_Driver/Src/stm32f4xx_ll_usb.c ****   {
1845:Drivers/STM32F4xx_HAL_Driver/Src/stm32f4xx_ll_usb.c ****     /* in DMA mode host Core automatically issues ping in case of NYET/NAK */
1846:Drivers/STM32F4xx_HAL_Driver/Src/stm32f4xx_ll_usb.c ****     if (dma == 1U)
1847:Drivers/STM32F4xx_HAL_Driver/Src/stm32f4xx_ll_usb.c ****     {
1848:Drivers/STM32F4xx_HAL_Driver/Src/stm32f4xx_ll_usb.c ****       if (((hc->ep_type == EP_TYPE_CTRL) || (hc->ep_type == EP_TYPE_BULK)) && (hc->do_ssplit == 0U)
1849:Drivers/STM32F4xx_HAL_Driver/Src/stm32f4xx_ll_usb.c ****       {
1850:Drivers/STM32F4xx_HAL_Driver/Src/stm32f4xx_ll_usb.c **** 
1851:Drivers/STM32F4xx_HAL_Driver/Src/stm32f4xx_ll_usb.c ****         USBx_HC((uint32_t)ch_num)->HCINTMSK &= ~(USB_OTG_HCINTMSK_NYET |
1852:Drivers/STM32F4xx_HAL_Driver/Src/stm32f4xx_ll_usb.c ****                                                  USB_OTG_HCINTMSK_ACKM |
1853:Drivers/STM32F4xx_HAL_Driver/Src/stm32f4xx_ll_usb.c ****                                                  USB_OTG_HCINTMSK_NAKM);
1854:Drivers/STM32F4xx_HAL_Driver/Src/stm32f4xx_ll_usb.c ****       }
1855:Drivers/STM32F4xx_HAL_Driver/Src/stm32f4xx_ll_usb.c ****     }
1856:Drivers/STM32F4xx_HAL_Driver/Src/stm32f4xx_ll_usb.c ****     else
1857:Drivers/STM32F4xx_HAL_Driver/Src/stm32f4xx_ll_usb.c ****     {
1858:Drivers/STM32F4xx_HAL_Driver/Src/stm32f4xx_ll_usb.c ****       if ((hc->speed == USBH_HS_SPEED) && (hc->do_ping == 1U))
1859:Drivers/STM32F4xx_HAL_Driver/Src/stm32f4xx_ll_usb.c ****       {
1860:Drivers/STM32F4xx_HAL_Driver/Src/stm32f4xx_ll_usb.c ****         (void)USB_DoPing(USBx, hc->ch_num);
1861:Drivers/STM32F4xx_HAL_Driver/Src/stm32f4xx_ll_usb.c ****         return HAL_OK;
1862:Drivers/STM32F4xx_HAL_Driver/Src/stm32f4xx_ll_usb.c ****       }
1863:Drivers/STM32F4xx_HAL_Driver/Src/stm32f4xx_ll_usb.c ****     }
1864:Drivers/STM32F4xx_HAL_Driver/Src/stm32f4xx_ll_usb.c ****   }
1865:Drivers/STM32F4xx_HAL_Driver/Src/stm32f4xx_ll_usb.c **** #endif /* defined (USB_OTG_HS) */
1866:Drivers/STM32F4xx_HAL_Driver/Src/stm32f4xx_ll_usb.c **** 
1867:Drivers/STM32F4xx_HAL_Driver/Src/stm32f4xx_ll_usb.c ****   if (hc->do_ssplit == 1U)
1868:Drivers/STM32F4xx_HAL_Driver/Src/stm32f4xx_ll_usb.c ****   {
1869:Drivers/STM32F4xx_HAL_Driver/Src/stm32f4xx_ll_usb.c ****     /* Set number of packet to 1 for Split transaction */
1870:Drivers/STM32F4xx_HAL_Driver/Src/stm32f4xx_ll_usb.c ****     num_packets = 1U;
1871:Drivers/STM32F4xx_HAL_Driver/Src/stm32f4xx_ll_usb.c **** 
1872:Drivers/STM32F4xx_HAL_Driver/Src/stm32f4xx_ll_usb.c ****     if (hc->ep_is_in != 0U)
1873:Drivers/STM32F4xx_HAL_Driver/Src/stm32f4xx_ll_usb.c ****     {
1874:Drivers/STM32F4xx_HAL_Driver/Src/stm32f4xx_ll_usb.c ****       hc->XferSize = (uint32_t)num_packets * hc->max_packet;
1875:Drivers/STM32F4xx_HAL_Driver/Src/stm32f4xx_ll_usb.c ****     }
1876:Drivers/STM32F4xx_HAL_Driver/Src/stm32f4xx_ll_usb.c ****     else
ARM GAS  /tmp/ccELzqP8.s 			page 129


1877:Drivers/STM32F4xx_HAL_Driver/Src/stm32f4xx_ll_usb.c ****     {
1878:Drivers/STM32F4xx_HAL_Driver/Src/stm32f4xx_ll_usb.c ****       if (hc->ep_type == EP_TYPE_ISOC)
1879:Drivers/STM32F4xx_HAL_Driver/Src/stm32f4xx_ll_usb.c ****       {
1880:Drivers/STM32F4xx_HAL_Driver/Src/stm32f4xx_ll_usb.c ****         if (hc->xfer_len > ISO_SPLT_MPS)
1881:Drivers/STM32F4xx_HAL_Driver/Src/stm32f4xx_ll_usb.c ****         {
1882:Drivers/STM32F4xx_HAL_Driver/Src/stm32f4xx_ll_usb.c ****           /* Isochrone Max Packet Size for Split mode */
1883:Drivers/STM32F4xx_HAL_Driver/Src/stm32f4xx_ll_usb.c ****           hc->XferSize = hc->max_packet;
1884:Drivers/STM32F4xx_HAL_Driver/Src/stm32f4xx_ll_usb.c ****           hc->xfer_len = hc->XferSize;
1885:Drivers/STM32F4xx_HAL_Driver/Src/stm32f4xx_ll_usb.c **** 
1886:Drivers/STM32F4xx_HAL_Driver/Src/stm32f4xx_ll_usb.c ****           if ((hc->iso_splt_xactPos == HCSPLT_BEGIN) || (hc->iso_splt_xactPos == HCSPLT_MIDDLE))
1887:Drivers/STM32F4xx_HAL_Driver/Src/stm32f4xx_ll_usb.c ****           {
1888:Drivers/STM32F4xx_HAL_Driver/Src/stm32f4xx_ll_usb.c ****             hc->iso_splt_xactPos = HCSPLT_MIDDLE;
1889:Drivers/STM32F4xx_HAL_Driver/Src/stm32f4xx_ll_usb.c ****           }
1890:Drivers/STM32F4xx_HAL_Driver/Src/stm32f4xx_ll_usb.c ****           else
1891:Drivers/STM32F4xx_HAL_Driver/Src/stm32f4xx_ll_usb.c ****           {
1892:Drivers/STM32F4xx_HAL_Driver/Src/stm32f4xx_ll_usb.c ****             hc->iso_splt_xactPos = HCSPLT_BEGIN;
1893:Drivers/STM32F4xx_HAL_Driver/Src/stm32f4xx_ll_usb.c ****           }
1894:Drivers/STM32F4xx_HAL_Driver/Src/stm32f4xx_ll_usb.c ****         }
1895:Drivers/STM32F4xx_HAL_Driver/Src/stm32f4xx_ll_usb.c ****         else
1896:Drivers/STM32F4xx_HAL_Driver/Src/stm32f4xx_ll_usb.c ****         {
1897:Drivers/STM32F4xx_HAL_Driver/Src/stm32f4xx_ll_usb.c ****           hc->XferSize = hc->xfer_len;
1898:Drivers/STM32F4xx_HAL_Driver/Src/stm32f4xx_ll_usb.c **** 
1899:Drivers/STM32F4xx_HAL_Driver/Src/stm32f4xx_ll_usb.c ****           if ((hc->iso_splt_xactPos != HCSPLT_BEGIN) && (hc->iso_splt_xactPos != HCSPLT_MIDDLE))
1900:Drivers/STM32F4xx_HAL_Driver/Src/stm32f4xx_ll_usb.c ****           {
1901:Drivers/STM32F4xx_HAL_Driver/Src/stm32f4xx_ll_usb.c ****             hc->iso_splt_xactPos = HCSPLT_FULL;
1902:Drivers/STM32F4xx_HAL_Driver/Src/stm32f4xx_ll_usb.c ****           }
1903:Drivers/STM32F4xx_HAL_Driver/Src/stm32f4xx_ll_usb.c ****           else
1904:Drivers/STM32F4xx_HAL_Driver/Src/stm32f4xx_ll_usb.c ****           {
1905:Drivers/STM32F4xx_HAL_Driver/Src/stm32f4xx_ll_usb.c ****             hc->iso_splt_xactPos = HCSPLT_END;
1906:Drivers/STM32F4xx_HAL_Driver/Src/stm32f4xx_ll_usb.c ****           }
1907:Drivers/STM32F4xx_HAL_Driver/Src/stm32f4xx_ll_usb.c ****         }
1908:Drivers/STM32F4xx_HAL_Driver/Src/stm32f4xx_ll_usb.c ****       }
1909:Drivers/STM32F4xx_HAL_Driver/Src/stm32f4xx_ll_usb.c ****       else
1910:Drivers/STM32F4xx_HAL_Driver/Src/stm32f4xx_ll_usb.c ****       {
1911:Drivers/STM32F4xx_HAL_Driver/Src/stm32f4xx_ll_usb.c ****         if ((dma == 1U) && (hc->xfer_len > hc->max_packet))
1912:Drivers/STM32F4xx_HAL_Driver/Src/stm32f4xx_ll_usb.c ****         {
1913:Drivers/STM32F4xx_HAL_Driver/Src/stm32f4xx_ll_usb.c ****           hc->XferSize = (uint32_t)num_packets * hc->max_packet;
1914:Drivers/STM32F4xx_HAL_Driver/Src/stm32f4xx_ll_usb.c ****         }
1915:Drivers/STM32F4xx_HAL_Driver/Src/stm32f4xx_ll_usb.c ****         else
1916:Drivers/STM32F4xx_HAL_Driver/Src/stm32f4xx_ll_usb.c ****         {
1917:Drivers/STM32F4xx_HAL_Driver/Src/stm32f4xx_ll_usb.c ****           hc->XferSize = hc->xfer_len;
1918:Drivers/STM32F4xx_HAL_Driver/Src/stm32f4xx_ll_usb.c ****         }
1919:Drivers/STM32F4xx_HAL_Driver/Src/stm32f4xx_ll_usb.c ****       }
1920:Drivers/STM32F4xx_HAL_Driver/Src/stm32f4xx_ll_usb.c ****     }
1921:Drivers/STM32F4xx_HAL_Driver/Src/stm32f4xx_ll_usb.c ****   }
1922:Drivers/STM32F4xx_HAL_Driver/Src/stm32f4xx_ll_usb.c ****   else
1923:Drivers/STM32F4xx_HAL_Driver/Src/stm32f4xx_ll_usb.c ****   {
1924:Drivers/STM32F4xx_HAL_Driver/Src/stm32f4xx_ll_usb.c ****     /* Compute the expected number of packets associated to the transfer */
1925:Drivers/STM32F4xx_HAL_Driver/Src/stm32f4xx_ll_usb.c ****     if (hc->xfer_len > 0U)
1926:Drivers/STM32F4xx_HAL_Driver/Src/stm32f4xx_ll_usb.c ****     {
1927:Drivers/STM32F4xx_HAL_Driver/Src/stm32f4xx_ll_usb.c ****       num_packets = (uint16_t)((hc->xfer_len + hc->max_packet - 1U) / hc->max_packet);
1928:Drivers/STM32F4xx_HAL_Driver/Src/stm32f4xx_ll_usb.c **** 
1929:Drivers/STM32F4xx_HAL_Driver/Src/stm32f4xx_ll_usb.c ****       if (num_packets > max_hc_pkt_count)
1930:Drivers/STM32F4xx_HAL_Driver/Src/stm32f4xx_ll_usb.c ****       {
1931:Drivers/STM32F4xx_HAL_Driver/Src/stm32f4xx_ll_usb.c ****         num_packets = max_hc_pkt_count;
1932:Drivers/STM32F4xx_HAL_Driver/Src/stm32f4xx_ll_usb.c ****         hc->XferSize = (uint32_t)num_packets * hc->max_packet;
1933:Drivers/STM32F4xx_HAL_Driver/Src/stm32f4xx_ll_usb.c ****       }
ARM GAS  /tmp/ccELzqP8.s 			page 130


1934:Drivers/STM32F4xx_HAL_Driver/Src/stm32f4xx_ll_usb.c ****     }
1935:Drivers/STM32F4xx_HAL_Driver/Src/stm32f4xx_ll_usb.c ****     else
1936:Drivers/STM32F4xx_HAL_Driver/Src/stm32f4xx_ll_usb.c ****     {
1937:Drivers/STM32F4xx_HAL_Driver/Src/stm32f4xx_ll_usb.c ****       num_packets = 1U;
1938:Drivers/STM32F4xx_HAL_Driver/Src/stm32f4xx_ll_usb.c ****     }
1939:Drivers/STM32F4xx_HAL_Driver/Src/stm32f4xx_ll_usb.c **** 
1940:Drivers/STM32F4xx_HAL_Driver/Src/stm32f4xx_ll_usb.c ****     /*
1941:Drivers/STM32F4xx_HAL_Driver/Src/stm32f4xx_ll_usb.c ****     * For IN channel HCTSIZ.XferSize is expected to be an integer multiple of
1942:Drivers/STM32F4xx_HAL_Driver/Src/stm32f4xx_ll_usb.c ****     * max_packet size.
1943:Drivers/STM32F4xx_HAL_Driver/Src/stm32f4xx_ll_usb.c ****     */
1944:Drivers/STM32F4xx_HAL_Driver/Src/stm32f4xx_ll_usb.c ****     if (hc->ep_is_in != 0U)
1945:Drivers/STM32F4xx_HAL_Driver/Src/stm32f4xx_ll_usb.c ****     {
1946:Drivers/STM32F4xx_HAL_Driver/Src/stm32f4xx_ll_usb.c ****       hc->XferSize = (uint32_t)num_packets * hc->max_packet;
1947:Drivers/STM32F4xx_HAL_Driver/Src/stm32f4xx_ll_usb.c ****     }
1948:Drivers/STM32F4xx_HAL_Driver/Src/stm32f4xx_ll_usb.c ****     else
1949:Drivers/STM32F4xx_HAL_Driver/Src/stm32f4xx_ll_usb.c ****     {
1950:Drivers/STM32F4xx_HAL_Driver/Src/stm32f4xx_ll_usb.c ****       hc->XferSize = hc->xfer_len;
1951:Drivers/STM32F4xx_HAL_Driver/Src/stm32f4xx_ll_usb.c ****     }
1952:Drivers/STM32F4xx_HAL_Driver/Src/stm32f4xx_ll_usb.c ****   }
1953:Drivers/STM32F4xx_HAL_Driver/Src/stm32f4xx_ll_usb.c **** 
1954:Drivers/STM32F4xx_HAL_Driver/Src/stm32f4xx_ll_usb.c ****   /* Initialize the HCTSIZn register */
1955:Drivers/STM32F4xx_HAL_Driver/Src/stm32f4xx_ll_usb.c ****   USBx_HC(ch_num)->HCTSIZ = (hc->XferSize & USB_OTG_HCTSIZ_XFRSIZ) |
1956:Drivers/STM32F4xx_HAL_Driver/Src/stm32f4xx_ll_usb.c ****                             (((uint32_t)num_packets << 19) & USB_OTG_HCTSIZ_PKTCNT) |
1957:Drivers/STM32F4xx_HAL_Driver/Src/stm32f4xx_ll_usb.c ****                             (((uint32_t)hc->data_pid << 29) & USB_OTG_HCTSIZ_DPID);
1958:Drivers/STM32F4xx_HAL_Driver/Src/stm32f4xx_ll_usb.c **** 
1959:Drivers/STM32F4xx_HAL_Driver/Src/stm32f4xx_ll_usb.c ****   if (dma != 0U)
1960:Drivers/STM32F4xx_HAL_Driver/Src/stm32f4xx_ll_usb.c ****   {
1961:Drivers/STM32F4xx_HAL_Driver/Src/stm32f4xx_ll_usb.c ****     /* xfer_buff MUST be 32-bits aligned */
1962:Drivers/STM32F4xx_HAL_Driver/Src/stm32f4xx_ll_usb.c ****     USBx_HC(ch_num)->HCDMA = (uint32_t)hc->xfer_buff;
1963:Drivers/STM32F4xx_HAL_Driver/Src/stm32f4xx_ll_usb.c ****   }
1964:Drivers/STM32F4xx_HAL_Driver/Src/stm32f4xx_ll_usb.c **** 
1965:Drivers/STM32F4xx_HAL_Driver/Src/stm32f4xx_ll_usb.c ****   is_oddframe = (((uint32_t)USBx_HOST->HFNUM & 0x01U) != 0U) ? 0U : 1U;
1966:Drivers/STM32F4xx_HAL_Driver/Src/stm32f4xx_ll_usb.c ****   USBx_HC(ch_num)->HCCHAR &= ~USB_OTG_HCCHAR_ODDFRM;
1967:Drivers/STM32F4xx_HAL_Driver/Src/stm32f4xx_ll_usb.c ****   USBx_HC(ch_num)->HCCHAR |= (uint32_t)is_oddframe << 29;
1968:Drivers/STM32F4xx_HAL_Driver/Src/stm32f4xx_ll_usb.c **** 
1969:Drivers/STM32F4xx_HAL_Driver/Src/stm32f4xx_ll_usb.c ****   if (hc->do_ssplit == 1U)
1970:Drivers/STM32F4xx_HAL_Driver/Src/stm32f4xx_ll_usb.c ****   {
1971:Drivers/STM32F4xx_HAL_Driver/Src/stm32f4xx_ll_usb.c ****     /* Set Hub start Split transaction */
1972:Drivers/STM32F4xx_HAL_Driver/Src/stm32f4xx_ll_usb.c ****     USBx_HC((uint32_t)ch_num)->HCSPLT = ((uint32_t)hc->hub_addr << USB_OTG_HCSPLT_HUBADDR_Pos) |
1973:Drivers/STM32F4xx_HAL_Driver/Src/stm32f4xx_ll_usb.c ****                                         (uint32_t)hc->hub_port_nbr | USB_OTG_HCSPLT_SPLITEN;
1974:Drivers/STM32F4xx_HAL_Driver/Src/stm32f4xx_ll_usb.c **** 
1975:Drivers/STM32F4xx_HAL_Driver/Src/stm32f4xx_ll_usb.c ****     /* unmask ack & nyet for IN/OUT transactions */
1976:Drivers/STM32F4xx_HAL_Driver/Src/stm32f4xx_ll_usb.c ****     USBx_HC((uint32_t)ch_num)->HCINTMSK |= (USB_OTG_HCINTMSK_ACKM |
1977:Drivers/STM32F4xx_HAL_Driver/Src/stm32f4xx_ll_usb.c ****                                             USB_OTG_HCINTMSK_NYET);
1978:Drivers/STM32F4xx_HAL_Driver/Src/stm32f4xx_ll_usb.c **** 
1979:Drivers/STM32F4xx_HAL_Driver/Src/stm32f4xx_ll_usb.c ****     if ((hc->do_csplit == 1U) && (hc->ep_is_in == 0U))
1980:Drivers/STM32F4xx_HAL_Driver/Src/stm32f4xx_ll_usb.c ****     {
1981:Drivers/STM32F4xx_HAL_Driver/Src/stm32f4xx_ll_usb.c ****       USBx_HC((uint32_t)ch_num)->HCSPLT |= USB_OTG_HCSPLT_COMPLSPLT;
1982:Drivers/STM32F4xx_HAL_Driver/Src/stm32f4xx_ll_usb.c ****       USBx_HC((uint32_t)ch_num)->HCINTMSK |= USB_OTG_HCINTMSK_NYET;
1983:Drivers/STM32F4xx_HAL_Driver/Src/stm32f4xx_ll_usb.c ****     }
1984:Drivers/STM32F4xx_HAL_Driver/Src/stm32f4xx_ll_usb.c **** 
1985:Drivers/STM32F4xx_HAL_Driver/Src/stm32f4xx_ll_usb.c ****     if (((hc->ep_type == EP_TYPE_ISOC) || (hc->ep_type == EP_TYPE_INTR)) &&
1986:Drivers/STM32F4xx_HAL_Driver/Src/stm32f4xx_ll_usb.c ****         (hc->do_csplit == 1U) && (hc->ep_is_in == 1U))
1987:Drivers/STM32F4xx_HAL_Driver/Src/stm32f4xx_ll_usb.c ****     {
1988:Drivers/STM32F4xx_HAL_Driver/Src/stm32f4xx_ll_usb.c ****       USBx_HC((uint32_t)ch_num)->HCSPLT |= USB_OTG_HCSPLT_COMPLSPLT;
1989:Drivers/STM32F4xx_HAL_Driver/Src/stm32f4xx_ll_usb.c ****     }
1990:Drivers/STM32F4xx_HAL_Driver/Src/stm32f4xx_ll_usb.c **** 
ARM GAS  /tmp/ccELzqP8.s 			page 131


1991:Drivers/STM32F4xx_HAL_Driver/Src/stm32f4xx_ll_usb.c ****     /* Position management for iso out transaction on split mode */
1992:Drivers/STM32F4xx_HAL_Driver/Src/stm32f4xx_ll_usb.c ****     if ((hc->ep_type == EP_TYPE_ISOC) && (hc->ep_is_in == 0U))
1993:Drivers/STM32F4xx_HAL_Driver/Src/stm32f4xx_ll_usb.c ****     {
1994:Drivers/STM32F4xx_HAL_Driver/Src/stm32f4xx_ll_usb.c ****       /* Set data payload position */
1995:Drivers/STM32F4xx_HAL_Driver/Src/stm32f4xx_ll_usb.c ****       switch (hc->iso_splt_xactPos)
1996:Drivers/STM32F4xx_HAL_Driver/Src/stm32f4xx_ll_usb.c ****       {
1997:Drivers/STM32F4xx_HAL_Driver/Src/stm32f4xx_ll_usb.c ****         case HCSPLT_BEGIN:
1998:Drivers/STM32F4xx_HAL_Driver/Src/stm32f4xx_ll_usb.c ****           /* First data payload for OUT Transaction */
1999:Drivers/STM32F4xx_HAL_Driver/Src/stm32f4xx_ll_usb.c ****           USBx_HC((uint32_t)ch_num)->HCSPLT |= USB_OTG_HCSPLT_XACTPOS_1;
2000:Drivers/STM32F4xx_HAL_Driver/Src/stm32f4xx_ll_usb.c ****           break;
2001:Drivers/STM32F4xx_HAL_Driver/Src/stm32f4xx_ll_usb.c **** 
2002:Drivers/STM32F4xx_HAL_Driver/Src/stm32f4xx_ll_usb.c ****         case HCSPLT_MIDDLE:
2003:Drivers/STM32F4xx_HAL_Driver/Src/stm32f4xx_ll_usb.c ****           /* Middle data payload for OUT Transaction */
2004:Drivers/STM32F4xx_HAL_Driver/Src/stm32f4xx_ll_usb.c ****           USBx_HC((uint32_t)ch_num)->HCSPLT |= USB_OTG_HCSPLT_XACTPOS_Pos;
2005:Drivers/STM32F4xx_HAL_Driver/Src/stm32f4xx_ll_usb.c ****           break;
2006:Drivers/STM32F4xx_HAL_Driver/Src/stm32f4xx_ll_usb.c **** 
2007:Drivers/STM32F4xx_HAL_Driver/Src/stm32f4xx_ll_usb.c ****         case HCSPLT_END:
2008:Drivers/STM32F4xx_HAL_Driver/Src/stm32f4xx_ll_usb.c ****           /* End data payload for OUT Transaction */
2009:Drivers/STM32F4xx_HAL_Driver/Src/stm32f4xx_ll_usb.c ****           USBx_HC((uint32_t)ch_num)->HCSPLT |= USB_OTG_HCSPLT_XACTPOS_0;
2010:Drivers/STM32F4xx_HAL_Driver/Src/stm32f4xx_ll_usb.c ****           break;
2011:Drivers/STM32F4xx_HAL_Driver/Src/stm32f4xx_ll_usb.c **** 
2012:Drivers/STM32F4xx_HAL_Driver/Src/stm32f4xx_ll_usb.c ****         case HCSPLT_FULL:
2013:Drivers/STM32F4xx_HAL_Driver/Src/stm32f4xx_ll_usb.c ****           /* Entire data payload for OUT Transaction */
2014:Drivers/STM32F4xx_HAL_Driver/Src/stm32f4xx_ll_usb.c ****           USBx_HC((uint32_t)ch_num)->HCSPLT |= USB_OTG_HCSPLT_XACTPOS;
2015:Drivers/STM32F4xx_HAL_Driver/Src/stm32f4xx_ll_usb.c ****           break;
2016:Drivers/STM32F4xx_HAL_Driver/Src/stm32f4xx_ll_usb.c **** 
2017:Drivers/STM32F4xx_HAL_Driver/Src/stm32f4xx_ll_usb.c ****         default:
2018:Drivers/STM32F4xx_HAL_Driver/Src/stm32f4xx_ll_usb.c ****           break;
2019:Drivers/STM32F4xx_HAL_Driver/Src/stm32f4xx_ll_usb.c ****       }
2020:Drivers/STM32F4xx_HAL_Driver/Src/stm32f4xx_ll_usb.c ****     }
2021:Drivers/STM32F4xx_HAL_Driver/Src/stm32f4xx_ll_usb.c ****   }
2022:Drivers/STM32F4xx_HAL_Driver/Src/stm32f4xx_ll_usb.c ****   else
2023:Drivers/STM32F4xx_HAL_Driver/Src/stm32f4xx_ll_usb.c ****   {
2024:Drivers/STM32F4xx_HAL_Driver/Src/stm32f4xx_ll_usb.c ****     /* Clear Hub Start Split transaction */
2025:Drivers/STM32F4xx_HAL_Driver/Src/stm32f4xx_ll_usb.c ****     USBx_HC((uint32_t)ch_num)->HCSPLT = 0U;
2026:Drivers/STM32F4xx_HAL_Driver/Src/stm32f4xx_ll_usb.c ****   }
2027:Drivers/STM32F4xx_HAL_Driver/Src/stm32f4xx_ll_usb.c **** 
2028:Drivers/STM32F4xx_HAL_Driver/Src/stm32f4xx_ll_usb.c ****   /* Set host channel enable */
2029:Drivers/STM32F4xx_HAL_Driver/Src/stm32f4xx_ll_usb.c ****   tmpreg = USBx_HC(ch_num)->HCCHAR;
2030:Drivers/STM32F4xx_HAL_Driver/Src/stm32f4xx_ll_usb.c ****   tmpreg &= ~USB_OTG_HCCHAR_CHDIS;
2031:Drivers/STM32F4xx_HAL_Driver/Src/stm32f4xx_ll_usb.c **** 
2032:Drivers/STM32F4xx_HAL_Driver/Src/stm32f4xx_ll_usb.c ****   /* make sure to set the correct ep direction */
2033:Drivers/STM32F4xx_HAL_Driver/Src/stm32f4xx_ll_usb.c ****   if (hc->ep_is_in != 0U)
2034:Drivers/STM32F4xx_HAL_Driver/Src/stm32f4xx_ll_usb.c ****   {
2035:Drivers/STM32F4xx_HAL_Driver/Src/stm32f4xx_ll_usb.c ****     tmpreg |= USB_OTG_HCCHAR_EPDIR;
2036:Drivers/STM32F4xx_HAL_Driver/Src/stm32f4xx_ll_usb.c ****   }
2037:Drivers/STM32F4xx_HAL_Driver/Src/stm32f4xx_ll_usb.c ****   else
2038:Drivers/STM32F4xx_HAL_Driver/Src/stm32f4xx_ll_usb.c ****   {
2039:Drivers/STM32F4xx_HAL_Driver/Src/stm32f4xx_ll_usb.c ****     tmpreg &= ~USB_OTG_HCCHAR_EPDIR;
2040:Drivers/STM32F4xx_HAL_Driver/Src/stm32f4xx_ll_usb.c ****   }
2041:Drivers/STM32F4xx_HAL_Driver/Src/stm32f4xx_ll_usb.c ****   tmpreg |= USB_OTG_HCCHAR_CHENA;
2042:Drivers/STM32F4xx_HAL_Driver/Src/stm32f4xx_ll_usb.c ****   USBx_HC(ch_num)->HCCHAR = tmpreg;
2043:Drivers/STM32F4xx_HAL_Driver/Src/stm32f4xx_ll_usb.c **** 
2044:Drivers/STM32F4xx_HAL_Driver/Src/stm32f4xx_ll_usb.c ****   if (dma != 0U) /* dma mode */
2045:Drivers/STM32F4xx_HAL_Driver/Src/stm32f4xx_ll_usb.c ****   {
2046:Drivers/STM32F4xx_HAL_Driver/Src/stm32f4xx_ll_usb.c ****     return HAL_OK;
2047:Drivers/STM32F4xx_HAL_Driver/Src/stm32f4xx_ll_usb.c ****   }
ARM GAS  /tmp/ccELzqP8.s 			page 132


2048:Drivers/STM32F4xx_HAL_Driver/Src/stm32f4xx_ll_usb.c **** 
2049:Drivers/STM32F4xx_HAL_Driver/Src/stm32f4xx_ll_usb.c ****   if ((hc->ep_is_in == 0U) && (hc->xfer_len > 0U) && (hc->do_csplit == 0U))
2050:Drivers/STM32F4xx_HAL_Driver/Src/stm32f4xx_ll_usb.c ****   {
2051:Drivers/STM32F4xx_HAL_Driver/Src/stm32f4xx_ll_usb.c ****     switch (hc->ep_type)
2052:Drivers/STM32F4xx_HAL_Driver/Src/stm32f4xx_ll_usb.c ****     {
2053:Drivers/STM32F4xx_HAL_Driver/Src/stm32f4xx_ll_usb.c ****       /* Non periodic transfer */
2054:Drivers/STM32F4xx_HAL_Driver/Src/stm32f4xx_ll_usb.c ****       case EP_TYPE_CTRL:
2055:Drivers/STM32F4xx_HAL_Driver/Src/stm32f4xx_ll_usb.c ****       case EP_TYPE_BULK:
2056:Drivers/STM32F4xx_HAL_Driver/Src/stm32f4xx_ll_usb.c **** 
2057:Drivers/STM32F4xx_HAL_Driver/Src/stm32f4xx_ll_usb.c ****         len_words = (uint16_t)((hc->xfer_len + 3U) / 4U);
2058:Drivers/STM32F4xx_HAL_Driver/Src/stm32f4xx_ll_usb.c **** 
2059:Drivers/STM32F4xx_HAL_Driver/Src/stm32f4xx_ll_usb.c ****         /* check if there is enough space in FIFO space */
2060:Drivers/STM32F4xx_HAL_Driver/Src/stm32f4xx_ll_usb.c ****         if (len_words > (USBx->HNPTXSTS & 0xFFFFU))
2061:Drivers/STM32F4xx_HAL_Driver/Src/stm32f4xx_ll_usb.c ****         {
2062:Drivers/STM32F4xx_HAL_Driver/Src/stm32f4xx_ll_usb.c ****           /* need to process data in nptxfempty interrupt */
2063:Drivers/STM32F4xx_HAL_Driver/Src/stm32f4xx_ll_usb.c ****           USBx->GINTMSK |= USB_OTG_GINTMSK_NPTXFEM;
2064:Drivers/STM32F4xx_HAL_Driver/Src/stm32f4xx_ll_usb.c ****         }
2065:Drivers/STM32F4xx_HAL_Driver/Src/stm32f4xx_ll_usb.c ****         break;
2066:Drivers/STM32F4xx_HAL_Driver/Src/stm32f4xx_ll_usb.c **** 
2067:Drivers/STM32F4xx_HAL_Driver/Src/stm32f4xx_ll_usb.c ****       /* Periodic transfer */
2068:Drivers/STM32F4xx_HAL_Driver/Src/stm32f4xx_ll_usb.c ****       case EP_TYPE_INTR:
2069:Drivers/STM32F4xx_HAL_Driver/Src/stm32f4xx_ll_usb.c ****       case EP_TYPE_ISOC:
2070:Drivers/STM32F4xx_HAL_Driver/Src/stm32f4xx_ll_usb.c ****         len_words = (uint16_t)((hc->xfer_len + 3U) / 4U);
2071:Drivers/STM32F4xx_HAL_Driver/Src/stm32f4xx_ll_usb.c ****         /* check if there is enough space in FIFO space */
2072:Drivers/STM32F4xx_HAL_Driver/Src/stm32f4xx_ll_usb.c ****         if (len_words > (USBx_HOST->HPTXSTS & 0xFFFFU)) /* split the transfer */
2073:Drivers/STM32F4xx_HAL_Driver/Src/stm32f4xx_ll_usb.c ****         {
2074:Drivers/STM32F4xx_HAL_Driver/Src/stm32f4xx_ll_usb.c ****           /* need to process data in ptxfempty interrupt */
2075:Drivers/STM32F4xx_HAL_Driver/Src/stm32f4xx_ll_usb.c ****           USBx->GINTMSK |= USB_OTG_GINTMSK_PTXFEM;
2076:Drivers/STM32F4xx_HAL_Driver/Src/stm32f4xx_ll_usb.c ****         }
2077:Drivers/STM32F4xx_HAL_Driver/Src/stm32f4xx_ll_usb.c ****         break;
2078:Drivers/STM32F4xx_HAL_Driver/Src/stm32f4xx_ll_usb.c **** 
2079:Drivers/STM32F4xx_HAL_Driver/Src/stm32f4xx_ll_usb.c ****       default:
2080:Drivers/STM32F4xx_HAL_Driver/Src/stm32f4xx_ll_usb.c ****         break;
2081:Drivers/STM32F4xx_HAL_Driver/Src/stm32f4xx_ll_usb.c ****     }
2082:Drivers/STM32F4xx_HAL_Driver/Src/stm32f4xx_ll_usb.c **** 
2083:Drivers/STM32F4xx_HAL_Driver/Src/stm32f4xx_ll_usb.c ****     /* Write packet into the Tx FIFO. */
2084:Drivers/STM32F4xx_HAL_Driver/Src/stm32f4xx_ll_usb.c ****     (void)USB_WritePacket(USBx, hc->xfer_buff, hc->ch_num, (uint16_t)hc->xfer_len, 0);
2085:Drivers/STM32F4xx_HAL_Driver/Src/stm32f4xx_ll_usb.c ****   }
2086:Drivers/STM32F4xx_HAL_Driver/Src/stm32f4xx_ll_usb.c **** 
2087:Drivers/STM32F4xx_HAL_Driver/Src/stm32f4xx_ll_usb.c ****   return HAL_OK;
2088:Drivers/STM32F4xx_HAL_Driver/Src/stm32f4xx_ll_usb.c **** }
2089:Drivers/STM32F4xx_HAL_Driver/Src/stm32f4xx_ll_usb.c **** 
2090:Drivers/STM32F4xx_HAL_Driver/Src/stm32f4xx_ll_usb.c **** /**
2091:Drivers/STM32F4xx_HAL_Driver/Src/stm32f4xx_ll_usb.c ****   * @brief Read all host channel interrupts status
2092:Drivers/STM32F4xx_HAL_Driver/Src/stm32f4xx_ll_usb.c ****   * @param  USBx  Selected device
2093:Drivers/STM32F4xx_HAL_Driver/Src/stm32f4xx_ll_usb.c ****   * @retval HAL state
2094:Drivers/STM32F4xx_HAL_Driver/Src/stm32f4xx_ll_usb.c ****   */
2095:Drivers/STM32F4xx_HAL_Driver/Src/stm32f4xx_ll_usb.c **** uint32_t USB_HC_ReadInterrupt(const USB_OTG_GlobalTypeDef *USBx)
2096:Drivers/STM32F4xx_HAL_Driver/Src/stm32f4xx_ll_usb.c **** {
 4347              		.loc 1 2096 1 is_stmt 1 view -0
 4348              		.cfi_startproc
 4349              		@ args = 0, pretend = 0, frame = 0
 4350              		@ frame_needed = 0, uses_anonymous_args = 0
 4351              		@ link register save eliminated.
2097:Drivers/STM32F4xx_HAL_Driver/Src/stm32f4xx_ll_usb.c ****   uint32_t USBx_BASE = (uint32_t)USBx;
 4352              		.loc 1 2097 3 view .LVU1393
2098:Drivers/STM32F4xx_HAL_Driver/Src/stm32f4xx_ll_usb.c **** 
ARM GAS  /tmp/ccELzqP8.s 			page 133


2099:Drivers/STM32F4xx_HAL_Driver/Src/stm32f4xx_ll_usb.c ****   return ((USBx_HOST->HAINT) & 0xFFFFU);
 4353              		.loc 1 2099 3 view .LVU1394
 4354              		.loc 1 2099 12 is_stmt 0 view .LVU1395
 4355 0000 00F58060 		add	r0, r0, #1024
 4356              	.LVL343:
 4357              		.loc 1 2099 21 view .LVU1396
 4358 0004 4069     		ldr	r0, [r0, #20]
 4359              	.LVL344:
2100:Drivers/STM32F4xx_HAL_Driver/Src/stm32f4xx_ll_usb.c **** }
 4360              		.loc 1 2100 1 view .LVU1397
 4361 0006 80B2     		uxth	r0, r0
 4362 0008 7047     		bx	lr
 4363              		.cfi_endproc
 4364              	.LFE177:
 4366              		.section	.text.USB_HC_Halt,"ax",%progbits
 4367              		.align	1
 4368              		.global	USB_HC_Halt
 4369              		.syntax unified
 4370              		.thumb
 4371              		.thumb_func
 4372              		.fpu fpv4-sp-d16
 4374              	USB_HC_Halt:
 4375              	.LVL345:
 4376              	.LFB178:
2101:Drivers/STM32F4xx_HAL_Driver/Src/stm32f4xx_ll_usb.c **** 
2102:Drivers/STM32F4xx_HAL_Driver/Src/stm32f4xx_ll_usb.c **** /**
2103:Drivers/STM32F4xx_HAL_Driver/Src/stm32f4xx_ll_usb.c ****   * @brief  Halt a host channel
2104:Drivers/STM32F4xx_HAL_Driver/Src/stm32f4xx_ll_usb.c ****   * @param  USBx  Selected device
2105:Drivers/STM32F4xx_HAL_Driver/Src/stm32f4xx_ll_usb.c ****   * @param  hc_num  Host Channel number
2106:Drivers/STM32F4xx_HAL_Driver/Src/stm32f4xx_ll_usb.c ****   *         This parameter can be a value from 1 to 15
2107:Drivers/STM32F4xx_HAL_Driver/Src/stm32f4xx_ll_usb.c ****   * @retval HAL state
2108:Drivers/STM32F4xx_HAL_Driver/Src/stm32f4xx_ll_usb.c ****   */
2109:Drivers/STM32F4xx_HAL_Driver/Src/stm32f4xx_ll_usb.c **** HAL_StatusTypeDef USB_HC_Halt(const USB_OTG_GlobalTypeDef *USBx, uint8_t hc_num)
2110:Drivers/STM32F4xx_HAL_Driver/Src/stm32f4xx_ll_usb.c **** {
 4377              		.loc 1 2110 1 is_stmt 1 view -0
 4378              		.cfi_startproc
 4379              		@ args = 0, pretend = 0, frame = 8
 4380              		@ frame_needed = 0, uses_anonymous_args = 0
 4381              		@ link register save eliminated.
 4382              		.loc 1 2110 1 is_stmt 0 view .LVU1399
 4383 0000 70B4     		push	{r4, r5, r6}
 4384              	.LCFI58:
 4385              		.cfi_def_cfa_offset 12
 4386              		.cfi_offset 4, -12
 4387              		.cfi_offset 5, -8
 4388              		.cfi_offset 6, -4
 4389 0002 83B0     		sub	sp, sp, #12
 4390              	.LCFI59:
 4391              		.cfi_def_cfa_offset 24
2111:Drivers/STM32F4xx_HAL_Driver/Src/stm32f4xx_ll_usb.c ****   uint32_t USBx_BASE = (uint32_t)USBx;
 4392              		.loc 1 2111 3 is_stmt 1 view .LVU1400
 4393              	.LVL346:
2112:Drivers/STM32F4xx_HAL_Driver/Src/stm32f4xx_ll_usb.c ****   uint32_t hcnum = (uint32_t)hc_num;
 4394              		.loc 1 2112 3 view .LVU1401
2113:Drivers/STM32F4xx_HAL_Driver/Src/stm32f4xx_ll_usb.c ****   __IO uint32_t count = 0U;
 4395              		.loc 1 2113 3 view .LVU1402
 4396              		.loc 1 2113 17 is_stmt 0 view .LVU1403
ARM GAS  /tmp/ccELzqP8.s 			page 134


 4397 0004 0023     		movs	r3, #0
 4398 0006 0193     		str	r3, [sp, #4]
2114:Drivers/STM32F4xx_HAL_Driver/Src/stm32f4xx_ll_usb.c ****   uint32_t HcEpType = (USBx_HC(hcnum)->HCCHAR & USB_OTG_HCCHAR_EPTYP) >> 18;
 4399              		.loc 1 2114 3 is_stmt 1 view .LVU1404
 4400              		.loc 1 2114 24 is_stmt 0 view .LVU1405
 4401 0008 00EB4111 		add	r1, r0, r1, lsl #5
 4402              	.LVL347:
 4403              		.loc 1 2114 24 view .LVU1406
 4404 000c 01F5A062 		add	r2, r1, #1280
 4405              		.loc 1 2114 38 view .LVU1407
 4406 0010 D1F80035 		ldr	r3, [r1, #1280]
 4407              		.loc 1 2114 12 view .LVU1408
 4408 0014 C3F38143 		ubfx	r3, r3, #18, #2
 4409              	.LVL348:
2115:Drivers/STM32F4xx_HAL_Driver/Src/stm32f4xx_ll_usb.c ****   uint32_t ChannelEna = (USBx_HC(hcnum)->HCCHAR & USB_OTG_HCCHAR_CHENA) >> 31;
 4410              		.loc 1 2115 3 is_stmt 1 view .LVU1409
 4411              		.loc 1 2115 40 is_stmt 0 view .LVU1410
 4412 0018 D1F80055 		ldr	r5, [r1, #1280]
 4413              	.LVL349:
2116:Drivers/STM32F4xx_HAL_Driver/Src/stm32f4xx_ll_usb.c ****   uint32_t SplitEna = (USBx_HC(hcnum)->HCSPLT & USB_OTG_HCSPLT_SPLITEN) >> 31;
 4414              		.loc 1 2116 3 is_stmt 1 view .LVU1411
 4415              		.loc 1 2116 38 is_stmt 0 view .LVU1412
 4416 001c 5468     		ldr	r4, [r2, #4]
 4417              	.LVL350:
2117:Drivers/STM32F4xx_HAL_Driver/Src/stm32f4xx_ll_usb.c **** 
2118:Drivers/STM32F4xx_HAL_Driver/Src/stm32f4xx_ll_usb.c ****   /* In buffer DMA, Channel disable must not be programmed for non-split periodic channels.
2119:Drivers/STM32F4xx_HAL_Driver/Src/stm32f4xx_ll_usb.c ****      At the end of the next uframe/frame (in the worst case), the core generates a channel halted
2120:Drivers/STM32F4xx_HAL_Driver/Src/stm32f4xx_ll_usb.c ****      and disables the channel automatically. */
2121:Drivers/STM32F4xx_HAL_Driver/Src/stm32f4xx_ll_usb.c **** 
2122:Drivers/STM32F4xx_HAL_Driver/Src/stm32f4xx_ll_usb.c ****   if ((((USBx->GAHBCFG & USB_OTG_GAHBCFG_DMAEN) == USB_OTG_GAHBCFG_DMAEN) && (SplitEna == 0U)) &&
 4418              		.loc 1 2122 3 is_stmt 1 view .LVU1413
 4419              		.loc 1 2122 14 is_stmt 0 view .LVU1414
 4420 001e 8668     		ldr	r6, [r0, #8]
 4421              		.loc 1 2122 6 view .LVU1415
 4422 0020 16F0200F 		tst	r6, #32
 4423 0024 08D0     		beq	.L285
 4424 0026 ED0F     		lsrs	r5, r5, #31
 4425              	.LVL351:
 4426              		.loc 1 2122 6 view .LVU1416
 4427 0028 E40F     		lsrs	r4, r4, #31
 4428              	.LVL352:
 4429              		.loc 1 2122 75 discriminator 1 view .LVU1417
 4430 002a 2CB9     		cbnz	r4, .L285
 4431              		.loc 1 2122 96 discriminator 2 view .LVU1418
 4432 002c 002D     		cmp	r5, #0
 4433 002e 5AD0     		beq	.L286
2123:Drivers/STM32F4xx_HAL_Driver/Src/stm32f4xx_ll_usb.c ****       ((ChannelEna == 0U) || (((HcEpType == HCCHAR_ISOC) || (HcEpType == HCCHAR_INTR)))))
 4434              		.loc 1 2123 27 view .LVU1419
 4435 0030 012B     		cmp	r3, #1
 4436 0032 58D0     		beq	.L286
 4437              		.loc 1 2123 58 discriminator 1 view .LVU1420
 4438 0034 032B     		cmp	r3, #3
 4439 0036 56D0     		beq	.L286
 4440              	.LVL353:
 4441              	.L285:
2124:Drivers/STM32F4xx_HAL_Driver/Src/stm32f4xx_ll_usb.c ****   {
2125:Drivers/STM32F4xx_HAL_Driver/Src/stm32f4xx_ll_usb.c ****     return HAL_OK;
ARM GAS  /tmp/ccELzqP8.s 			page 135


2126:Drivers/STM32F4xx_HAL_Driver/Src/stm32f4xx_ll_usb.c ****   }
2127:Drivers/STM32F4xx_HAL_Driver/Src/stm32f4xx_ll_usb.c **** 
2128:Drivers/STM32F4xx_HAL_Driver/Src/stm32f4xx_ll_usb.c ****   /* Check for space in the request queue to issue the halt. */
2129:Drivers/STM32F4xx_HAL_Driver/Src/stm32f4xx_ll_usb.c ****   if ((HcEpType == HCCHAR_CTRL) || (HcEpType == HCCHAR_BULK))
 4442              		.loc 1 2129 3 is_stmt 1 view .LVU1421
 4443              		.loc 1 2129 6 is_stmt 0 view .LVU1422
 4444 0038 1BB3     		cbz	r3, .L287
 4445              		.loc 1 2129 33 discriminator 1 view .LVU1423
 4446 003a 022B     		cmp	r3, #2
 4447 003c 21D0     		beq	.L287
2130:Drivers/STM32F4xx_HAL_Driver/Src/stm32f4xx_ll_usb.c ****   {
2131:Drivers/STM32F4xx_HAL_Driver/Src/stm32f4xx_ll_usb.c ****     USBx_HC(hcnum)->HCCHAR |= USB_OTG_HCCHAR_CHDIS;
2132:Drivers/STM32F4xx_HAL_Driver/Src/stm32f4xx_ll_usb.c **** 
2133:Drivers/STM32F4xx_HAL_Driver/Src/stm32f4xx_ll_usb.c ****     if ((USBx->GAHBCFG & USB_OTG_GAHBCFG_DMAEN) == 0U)
2134:Drivers/STM32F4xx_HAL_Driver/Src/stm32f4xx_ll_usb.c ****     {
2135:Drivers/STM32F4xx_HAL_Driver/Src/stm32f4xx_ll_usb.c ****       if ((USBx->HNPTXSTS & (0xFFU << 16)) == 0U)
2136:Drivers/STM32F4xx_HAL_Driver/Src/stm32f4xx_ll_usb.c ****       {
2137:Drivers/STM32F4xx_HAL_Driver/Src/stm32f4xx_ll_usb.c ****         USBx_HC(hcnum)->HCCHAR &= ~USB_OTG_HCCHAR_CHENA;
2138:Drivers/STM32F4xx_HAL_Driver/Src/stm32f4xx_ll_usb.c ****         USBx_HC(hcnum)->HCCHAR |= USB_OTG_HCCHAR_CHENA;
2139:Drivers/STM32F4xx_HAL_Driver/Src/stm32f4xx_ll_usb.c ****         do
2140:Drivers/STM32F4xx_HAL_Driver/Src/stm32f4xx_ll_usb.c ****         {
2141:Drivers/STM32F4xx_HAL_Driver/Src/stm32f4xx_ll_usb.c ****           count++;
2142:Drivers/STM32F4xx_HAL_Driver/Src/stm32f4xx_ll_usb.c **** 
2143:Drivers/STM32F4xx_HAL_Driver/Src/stm32f4xx_ll_usb.c ****           if (count > 1000U)
2144:Drivers/STM32F4xx_HAL_Driver/Src/stm32f4xx_ll_usb.c ****           {
2145:Drivers/STM32F4xx_HAL_Driver/Src/stm32f4xx_ll_usb.c ****             break;
2146:Drivers/STM32F4xx_HAL_Driver/Src/stm32f4xx_ll_usb.c ****           }
2147:Drivers/STM32F4xx_HAL_Driver/Src/stm32f4xx_ll_usb.c ****         } while ((USBx_HC(hcnum)->HCCHAR & USB_OTG_HCCHAR_CHENA) == USB_OTG_HCCHAR_CHENA);
2148:Drivers/STM32F4xx_HAL_Driver/Src/stm32f4xx_ll_usb.c ****       }
2149:Drivers/STM32F4xx_HAL_Driver/Src/stm32f4xx_ll_usb.c ****       else
2150:Drivers/STM32F4xx_HAL_Driver/Src/stm32f4xx_ll_usb.c ****       {
2151:Drivers/STM32F4xx_HAL_Driver/Src/stm32f4xx_ll_usb.c ****         USBx_HC(hcnum)->HCCHAR |= USB_OTG_HCCHAR_CHENA;
2152:Drivers/STM32F4xx_HAL_Driver/Src/stm32f4xx_ll_usb.c ****       }
2153:Drivers/STM32F4xx_HAL_Driver/Src/stm32f4xx_ll_usb.c ****     }
2154:Drivers/STM32F4xx_HAL_Driver/Src/stm32f4xx_ll_usb.c ****     else
2155:Drivers/STM32F4xx_HAL_Driver/Src/stm32f4xx_ll_usb.c ****     {
2156:Drivers/STM32F4xx_HAL_Driver/Src/stm32f4xx_ll_usb.c ****       USBx_HC(hcnum)->HCCHAR |= USB_OTG_HCCHAR_CHENA;
2157:Drivers/STM32F4xx_HAL_Driver/Src/stm32f4xx_ll_usb.c ****     }
2158:Drivers/STM32F4xx_HAL_Driver/Src/stm32f4xx_ll_usb.c ****   }
2159:Drivers/STM32F4xx_HAL_Driver/Src/stm32f4xx_ll_usb.c ****   else
2160:Drivers/STM32F4xx_HAL_Driver/Src/stm32f4xx_ll_usb.c ****   {
2161:Drivers/STM32F4xx_HAL_Driver/Src/stm32f4xx_ll_usb.c ****     USBx_HC(hcnum)->HCCHAR |= USB_OTG_HCCHAR_CHDIS;
 4448              		.loc 1 2161 5 is_stmt 1 view .LVU1424
 4449              		.loc 1 2161 28 is_stmt 0 view .LVU1425
 4450 003e D1F80035 		ldr	r3, [r1, #1280]
 4451              	.LVL354:
 4452              		.loc 1 2161 28 view .LVU1426
 4453 0042 43F08043 		orr	r3, r3, #1073741824
 4454 0046 C1F80035 		str	r3, [r1, #1280]
2162:Drivers/STM32F4xx_HAL_Driver/Src/stm32f4xx_ll_usb.c **** 
2163:Drivers/STM32F4xx_HAL_Driver/Src/stm32f4xx_ll_usb.c ****     if ((USBx_HOST->HPTXSTS & (0xFFU << 16)) == 0U)
 4455              		.loc 1 2163 5 is_stmt 1 view .LVU1427
 4456              		.loc 1 2163 19 is_stmt 0 view .LVU1428
 4457 004a D0F81034 		ldr	r3, [r0, #1040]
 4458              		.loc 1 2163 8 view .LVU1429
 4459 004e 13F47F0F 		tst	r3, #16711680
 4460 0052 4CD1     		bne	.L292
ARM GAS  /tmp/ccELzqP8.s 			page 136


2164:Drivers/STM32F4xx_HAL_Driver/Src/stm32f4xx_ll_usb.c ****     {
2165:Drivers/STM32F4xx_HAL_Driver/Src/stm32f4xx_ll_usb.c ****       USBx_HC(hcnum)->HCCHAR &= ~USB_OTG_HCCHAR_CHENA;
 4461              		.loc 1 2165 7 is_stmt 1 view .LVU1430
 4462              		.loc 1 2165 30 is_stmt 0 view .LVU1431
 4463 0054 D1F80035 		ldr	r3, [r1, #1280]
 4464 0058 23F00043 		bic	r3, r3, #-2147483648
 4465 005c C1F80035 		str	r3, [r1, #1280]
2166:Drivers/STM32F4xx_HAL_Driver/Src/stm32f4xx_ll_usb.c ****       USBx_HC(hcnum)->HCCHAR |= USB_OTG_HCCHAR_CHENA;
 4466              		.loc 1 2166 7 is_stmt 1 view .LVU1432
 4467              		.loc 1 2166 30 is_stmt 0 view .LVU1433
 4468 0060 D1F80035 		ldr	r3, [r1, #1280]
 4469 0064 43F00043 		orr	r3, r3, #-2147483648
 4470 0068 C1F80035 		str	r3, [r1, #1280]
 4471              	.L293:
2167:Drivers/STM32F4xx_HAL_Driver/Src/stm32f4xx_ll_usb.c ****       do
 4472              		.loc 1 2167 7 is_stmt 1 view .LVU1434
2168:Drivers/STM32F4xx_HAL_Driver/Src/stm32f4xx_ll_usb.c ****       {
2169:Drivers/STM32F4xx_HAL_Driver/Src/stm32f4xx_ll_usb.c ****         count++;
 4473              		.loc 1 2169 9 view .LVU1435
 4474              		.loc 1 2169 14 is_stmt 0 view .LVU1436
 4475 006c 019B     		ldr	r3, [sp, #4]
 4476 006e 0133     		adds	r3, r3, #1
 4477 0070 0193     		str	r3, [sp, #4]
2170:Drivers/STM32F4xx_HAL_Driver/Src/stm32f4xx_ll_usb.c **** 
2171:Drivers/STM32F4xx_HAL_Driver/Src/stm32f4xx_ll_usb.c ****         if (count > 1000U)
 4478              		.loc 1 2171 9 is_stmt 1 view .LVU1437
 4479              		.loc 1 2171 19 is_stmt 0 view .LVU1438
 4480 0072 019B     		ldr	r3, [sp, #4]
 4481              		.loc 1 2171 12 view .LVU1439
 4482 0074 B3F57A7F 		cmp	r3, #1000
 4483 0078 35D8     		bhi	.L286
2172:Drivers/STM32F4xx_HAL_Driver/Src/stm32f4xx_ll_usb.c ****         {
2173:Drivers/STM32F4xx_HAL_Driver/Src/stm32f4xx_ll_usb.c ****           break;
2174:Drivers/STM32F4xx_HAL_Driver/Src/stm32f4xx_ll_usb.c ****         }
2175:Drivers/STM32F4xx_HAL_Driver/Src/stm32f4xx_ll_usb.c ****       } while ((USBx_HC(hcnum)->HCCHAR & USB_OTG_HCCHAR_CHENA) == USB_OTG_HCCHAR_CHENA);
 4484              		.loc 1 2175 15 is_stmt 1 view .LVU1440
 4485              		.loc 1 2175 31 is_stmt 0 view .LVU1441
 4486 007a 1368     		ldr	r3, [r2]
 4487              		.loc 1 2175 7 view .LVU1442
 4488 007c 002B     		cmp	r3, #0
 4489 007e F5DB     		blt	.L293
 4490 0080 31E0     		b	.L286
 4491              	.LVL355:
 4492              	.L287:
2131:Drivers/STM32F4xx_HAL_Driver/Src/stm32f4xx_ll_usb.c **** 
 4493              		.loc 1 2131 5 is_stmt 1 view .LVU1443
2131:Drivers/STM32F4xx_HAL_Driver/Src/stm32f4xx_ll_usb.c **** 
 4494              		.loc 1 2131 28 is_stmt 0 view .LVU1444
 4495 0082 D1F80035 		ldr	r3, [r1, #1280]
 4496              	.LVL356:
2131:Drivers/STM32F4xx_HAL_Driver/Src/stm32f4xx_ll_usb.c **** 
 4497              		.loc 1 2131 28 view .LVU1445
 4498 0086 43F08043 		orr	r3, r3, #1073741824
 4499 008a C1F80035 		str	r3, [r1, #1280]
2133:Drivers/STM32F4xx_HAL_Driver/Src/stm32f4xx_ll_usb.c ****     {
 4500              		.loc 1 2133 5 is_stmt 1 view .LVU1446
2133:Drivers/STM32F4xx_HAL_Driver/Src/stm32f4xx_ll_usb.c ****     {
ARM GAS  /tmp/ccELzqP8.s 			page 137


 4501              		.loc 1 2133 14 is_stmt 0 view .LVU1447
 4502 008e 8368     		ldr	r3, [r0, #8]
2133:Drivers/STM32F4xx_HAL_Driver/Src/stm32f4xx_ll_usb.c ****     {
 4503              		.loc 1 2133 8 view .LVU1448
 4504 0090 13F0200F 		tst	r3, #32
 4505 0094 21D1     		bne	.L289
2135:Drivers/STM32F4xx_HAL_Driver/Src/stm32f4xx_ll_usb.c ****       {
 4506              		.loc 1 2135 7 is_stmt 1 view .LVU1449
2135:Drivers/STM32F4xx_HAL_Driver/Src/stm32f4xx_ll_usb.c ****       {
 4507              		.loc 1 2135 16 is_stmt 0 view .LVU1450
 4508 0096 C36A     		ldr	r3, [r0, #44]
2135:Drivers/STM32F4xx_HAL_Driver/Src/stm32f4xx_ll_usb.c ****       {
 4509              		.loc 1 2135 10 view .LVU1451
 4510 0098 13F47F0F 		tst	r3, #16711680
 4511 009c 16D1     		bne	.L290
2137:Drivers/STM32F4xx_HAL_Driver/Src/stm32f4xx_ll_usb.c ****         USBx_HC(hcnum)->HCCHAR |= USB_OTG_HCCHAR_CHENA;
 4512              		.loc 1 2137 9 is_stmt 1 view .LVU1452
2137:Drivers/STM32F4xx_HAL_Driver/Src/stm32f4xx_ll_usb.c ****         USBx_HC(hcnum)->HCCHAR |= USB_OTG_HCCHAR_CHENA;
 4513              		.loc 1 2137 32 is_stmt 0 view .LVU1453
 4514 009e D1F80035 		ldr	r3, [r1, #1280]
 4515 00a2 23F00043 		bic	r3, r3, #-2147483648
 4516 00a6 C1F80035 		str	r3, [r1, #1280]
2138:Drivers/STM32F4xx_HAL_Driver/Src/stm32f4xx_ll_usb.c ****         do
 4517              		.loc 1 2138 9 is_stmt 1 view .LVU1454
2138:Drivers/STM32F4xx_HAL_Driver/Src/stm32f4xx_ll_usb.c ****         do
 4518              		.loc 1 2138 32 is_stmt 0 view .LVU1455
 4519 00aa D1F80035 		ldr	r3, [r1, #1280]
 4520 00ae 43F00043 		orr	r3, r3, #-2147483648
 4521 00b2 C1F80035 		str	r3, [r1, #1280]
 4522              	.L291:
2139:Drivers/STM32F4xx_HAL_Driver/Src/stm32f4xx_ll_usb.c ****         {
 4523              		.loc 1 2139 9 is_stmt 1 view .LVU1456
2141:Drivers/STM32F4xx_HAL_Driver/Src/stm32f4xx_ll_usb.c **** 
 4524              		.loc 1 2141 11 view .LVU1457
2141:Drivers/STM32F4xx_HAL_Driver/Src/stm32f4xx_ll_usb.c **** 
 4525              		.loc 1 2141 16 is_stmt 0 view .LVU1458
 4526 00b6 019B     		ldr	r3, [sp, #4]
 4527 00b8 0133     		adds	r3, r3, #1
 4528 00ba 0193     		str	r3, [sp, #4]
2143:Drivers/STM32F4xx_HAL_Driver/Src/stm32f4xx_ll_usb.c ****           {
 4529              		.loc 1 2143 11 is_stmt 1 view .LVU1459
2143:Drivers/STM32F4xx_HAL_Driver/Src/stm32f4xx_ll_usb.c ****           {
 4530              		.loc 1 2143 21 is_stmt 0 view .LVU1460
 4531 00bc 019B     		ldr	r3, [sp, #4]
2143:Drivers/STM32F4xx_HAL_Driver/Src/stm32f4xx_ll_usb.c ****           {
 4532              		.loc 1 2143 14 view .LVU1461
 4533 00be B3F57A7F 		cmp	r3, #1000
 4534 00c2 10D8     		bhi	.L286
2147:Drivers/STM32F4xx_HAL_Driver/Src/stm32f4xx_ll_usb.c ****       }
 4535              		.loc 1 2147 17 is_stmt 1 view .LVU1462
2147:Drivers/STM32F4xx_HAL_Driver/Src/stm32f4xx_ll_usb.c ****       }
 4536              		.loc 1 2147 33 is_stmt 0 view .LVU1463
 4537 00c4 1368     		ldr	r3, [r2]
2147:Drivers/STM32F4xx_HAL_Driver/Src/stm32f4xx_ll_usb.c ****       }
 4538              		.loc 1 2147 9 view .LVU1464
 4539 00c6 002B     		cmp	r3, #0
 4540 00c8 F5DB     		blt	.L291
ARM GAS  /tmp/ccELzqP8.s 			page 138


 4541 00ca 0CE0     		b	.L286
 4542              	.L290:
2151:Drivers/STM32F4xx_HAL_Driver/Src/stm32f4xx_ll_usb.c ****       }
 4543              		.loc 1 2151 9 is_stmt 1 view .LVU1465
2151:Drivers/STM32F4xx_HAL_Driver/Src/stm32f4xx_ll_usb.c ****       }
 4544              		.loc 1 2151 32 is_stmt 0 view .LVU1466
 4545 00cc D1F80035 		ldr	r3, [r1, #1280]
 4546 00d0 43F00043 		orr	r3, r3, #-2147483648
 4547 00d4 C1F80035 		str	r3, [r1, #1280]
 4548 00d8 05E0     		b	.L286
 4549              	.L289:
2156:Drivers/STM32F4xx_HAL_Driver/Src/stm32f4xx_ll_usb.c ****     }
 4550              		.loc 1 2156 7 is_stmt 1 view .LVU1467
2156:Drivers/STM32F4xx_HAL_Driver/Src/stm32f4xx_ll_usb.c ****     }
 4551              		.loc 1 2156 30 is_stmt 0 view .LVU1468
 4552 00da D1F80035 		ldr	r3, [r1, #1280]
 4553 00de 43F00043 		orr	r3, r3, #-2147483648
 4554 00e2 C1F80035 		str	r3, [r1, #1280]
 4555              	.L286:
2176:Drivers/STM32F4xx_HAL_Driver/Src/stm32f4xx_ll_usb.c ****     }
2177:Drivers/STM32F4xx_HAL_Driver/Src/stm32f4xx_ll_usb.c ****     else
2178:Drivers/STM32F4xx_HAL_Driver/Src/stm32f4xx_ll_usb.c ****     {
2179:Drivers/STM32F4xx_HAL_Driver/Src/stm32f4xx_ll_usb.c ****       USBx_HC(hcnum)->HCCHAR |= USB_OTG_HCCHAR_CHENA;
2180:Drivers/STM32F4xx_HAL_Driver/Src/stm32f4xx_ll_usb.c ****     }
2181:Drivers/STM32F4xx_HAL_Driver/Src/stm32f4xx_ll_usb.c ****   }
2182:Drivers/STM32F4xx_HAL_Driver/Src/stm32f4xx_ll_usb.c **** 
2183:Drivers/STM32F4xx_HAL_Driver/Src/stm32f4xx_ll_usb.c ****   return HAL_OK;
2184:Drivers/STM32F4xx_HAL_Driver/Src/stm32f4xx_ll_usb.c **** }
 4556              		.loc 1 2184 1 view .LVU1469
 4557 00e6 0020     		movs	r0, #0
 4558              	.LVL357:
 4559              		.loc 1 2184 1 view .LVU1470
 4560 00e8 03B0     		add	sp, sp, #12
 4561              	.LCFI60:
 4562              		.cfi_remember_state
 4563              		.cfi_def_cfa_offset 12
 4564              		@ sp needed
 4565 00ea 70BC     		pop	{r4, r5, r6}
 4566              	.LCFI61:
 4567              		.cfi_restore 6
 4568              		.cfi_restore 5
 4569              		.cfi_restore 4
 4570              		.cfi_def_cfa_offset 0
 4571 00ec 7047     		bx	lr
 4572              	.LVL358:
 4573              	.L292:
 4574              	.LCFI62:
 4575              		.cfi_restore_state
2179:Drivers/STM32F4xx_HAL_Driver/Src/stm32f4xx_ll_usb.c ****     }
 4576              		.loc 1 2179 7 is_stmt 1 view .LVU1471
2179:Drivers/STM32F4xx_HAL_Driver/Src/stm32f4xx_ll_usb.c ****     }
 4577              		.loc 1 2179 30 is_stmt 0 view .LVU1472
 4578 00ee D1F80035 		ldr	r3, [r1, #1280]
 4579 00f2 43F00043 		orr	r3, r3, #-2147483648
 4580 00f6 C1F80035 		str	r3, [r1, #1280]
 4581 00fa F4E7     		b	.L286
 4582              		.cfi_endproc
ARM GAS  /tmp/ccELzqP8.s 			page 139


 4583              	.LFE178:
 4585              		.section	.text.USB_DoPing,"ax",%progbits
 4586              		.align	1
 4587              		.global	USB_DoPing
 4588              		.syntax unified
 4589              		.thumb
 4590              		.thumb_func
 4591              		.fpu fpv4-sp-d16
 4593              	USB_DoPing:
 4594              	.LVL359:
 4595              	.LFB179:
2185:Drivers/STM32F4xx_HAL_Driver/Src/stm32f4xx_ll_usb.c **** 
2186:Drivers/STM32F4xx_HAL_Driver/Src/stm32f4xx_ll_usb.c **** /**
2187:Drivers/STM32F4xx_HAL_Driver/Src/stm32f4xx_ll_usb.c ****   * @brief  Initiate Do Ping protocol
2188:Drivers/STM32F4xx_HAL_Driver/Src/stm32f4xx_ll_usb.c ****   * @param  USBx  Selected device
2189:Drivers/STM32F4xx_HAL_Driver/Src/stm32f4xx_ll_usb.c ****   * @param  hc_num  Host Channel number
2190:Drivers/STM32F4xx_HAL_Driver/Src/stm32f4xx_ll_usb.c ****   *         This parameter can be a value from 1 to 15
2191:Drivers/STM32F4xx_HAL_Driver/Src/stm32f4xx_ll_usb.c ****   * @retval HAL state
2192:Drivers/STM32F4xx_HAL_Driver/Src/stm32f4xx_ll_usb.c ****   */
2193:Drivers/STM32F4xx_HAL_Driver/Src/stm32f4xx_ll_usb.c **** HAL_StatusTypeDef USB_DoPing(const USB_OTG_GlobalTypeDef *USBx, uint8_t ch_num)
2194:Drivers/STM32F4xx_HAL_Driver/Src/stm32f4xx_ll_usb.c **** {
 4596              		.loc 1 2194 1 is_stmt 1 view -0
 4597              		.cfi_startproc
 4598              		@ args = 0, pretend = 0, frame = 0
 4599              		@ frame_needed = 0, uses_anonymous_args = 0
 4600              		@ link register save eliminated.
2195:Drivers/STM32F4xx_HAL_Driver/Src/stm32f4xx_ll_usb.c ****   uint32_t USBx_BASE = (uint32_t)USBx;
 4601              		.loc 1 2195 3 view .LVU1474
2196:Drivers/STM32F4xx_HAL_Driver/Src/stm32f4xx_ll_usb.c ****   uint32_t chnum = (uint32_t)ch_num;
 4602              		.loc 1 2196 3 view .LVU1475
2197:Drivers/STM32F4xx_HAL_Driver/Src/stm32f4xx_ll_usb.c ****   uint32_t num_packets = 1U;
 4603              		.loc 1 2197 3 view .LVU1476
2198:Drivers/STM32F4xx_HAL_Driver/Src/stm32f4xx_ll_usb.c ****   uint32_t tmpreg;
 4604              		.loc 1 2198 3 view .LVU1477
2199:Drivers/STM32F4xx_HAL_Driver/Src/stm32f4xx_ll_usb.c **** 
2200:Drivers/STM32F4xx_HAL_Driver/Src/stm32f4xx_ll_usb.c ****   USBx_HC(chnum)->HCTSIZ = ((num_packets << 19) & USB_OTG_HCTSIZ_PKTCNT) |
 4605              		.loc 1 2200 3 view .LVU1478
 4606 0000 00EB4111 		add	r1, r0, r1, lsl #5
 4607              	.LVL360:
 4608              		.loc 1 2200 26 is_stmt 0 view .LVU1479
 4609 0004 064A     		ldr	r2, .L296
 4610 0006 C1F81025 		str	r2, [r1, #1296]
2201:Drivers/STM32F4xx_HAL_Driver/Src/stm32f4xx_ll_usb.c ****                            USB_OTG_HCTSIZ_DOPING;
2202:Drivers/STM32F4xx_HAL_Driver/Src/stm32f4xx_ll_usb.c **** 
2203:Drivers/STM32F4xx_HAL_Driver/Src/stm32f4xx_ll_usb.c ****   /* Set host channel enable */
2204:Drivers/STM32F4xx_HAL_Driver/Src/stm32f4xx_ll_usb.c ****   tmpreg = USBx_HC(chnum)->HCCHAR;
 4611              		.loc 1 2204 3 is_stmt 1 view .LVU1480
 4612              		.loc 1 2204 10 is_stmt 0 view .LVU1481
 4613 000a D1F80035 		ldr	r3, [r1, #1280]
 4614              	.LVL361:
2205:Drivers/STM32F4xx_HAL_Driver/Src/stm32f4xx_ll_usb.c ****   tmpreg &= ~USB_OTG_HCCHAR_CHDIS;
 4615              		.loc 1 2205 3 is_stmt 1 view .LVU1482
 4616              		.loc 1 2205 10 is_stmt 0 view .LVU1483
 4617 000e 23F08043 		bic	r3, r3, #1073741824
 4618              	.LVL362:
2206:Drivers/STM32F4xx_HAL_Driver/Src/stm32f4xx_ll_usb.c ****   tmpreg |= USB_OTG_HCCHAR_CHENA;
 4619              		.loc 1 2206 3 is_stmt 1 view .LVU1484
ARM GAS  /tmp/ccELzqP8.s 			page 140


 4620              		.loc 1 2206 10 is_stmt 0 view .LVU1485
 4621 0012 43F00043 		orr	r3, r3, #-2147483648
 4622              	.LVL363:
2207:Drivers/STM32F4xx_HAL_Driver/Src/stm32f4xx_ll_usb.c ****   USBx_HC(chnum)->HCCHAR = tmpreg;
 4623              		.loc 1 2207 3 is_stmt 1 view .LVU1486
 4624              		.loc 1 2207 26 is_stmt 0 view .LVU1487
 4625 0016 C1F80035 		str	r3, [r1, #1280]
2208:Drivers/STM32F4xx_HAL_Driver/Src/stm32f4xx_ll_usb.c **** 
2209:Drivers/STM32F4xx_HAL_Driver/Src/stm32f4xx_ll_usb.c ****   return HAL_OK;
 4626              		.loc 1 2209 3 is_stmt 1 view .LVU1488
2210:Drivers/STM32F4xx_HAL_Driver/Src/stm32f4xx_ll_usb.c **** }
 4627              		.loc 1 2210 1 is_stmt 0 view .LVU1489
 4628 001a 0020     		movs	r0, #0
 4629              	.LVL364:
 4630              		.loc 1 2210 1 view .LVU1490
 4631 001c 7047     		bx	lr
 4632              	.L297:
 4633 001e 00BF     		.align	2
 4634              	.L296:
 4635 0020 00000880 		.word	-2146959360
 4636              		.cfi_endproc
 4637              	.LFE179:
 4639              		.section	.text.USB_HC_StartXfer,"ax",%progbits
 4640              		.align	1
 4641              		.global	USB_HC_StartXfer
 4642              		.syntax unified
 4643              		.thumb
 4644              		.thumb_func
 4645              		.fpu fpv4-sp-d16
 4647              	USB_HC_StartXfer:
 4648              	.LVL365:
 4649              	.LFB176:
1833:Drivers/STM32F4xx_HAL_Driver/Src/stm32f4xx_ll_usb.c ****   uint32_t USBx_BASE = (uint32_t)USBx;
 4650              		.loc 1 1833 1 is_stmt 1 view -0
 4651              		.cfi_startproc
 4652              		@ args = 0, pretend = 0, frame = 8
 4653              		@ frame_needed = 0, uses_anonymous_args = 0
1833:Drivers/STM32F4xx_HAL_Driver/Src/stm32f4xx_ll_usb.c ****   uint32_t USBx_BASE = (uint32_t)USBx;
 4654              		.loc 1 1833 1 is_stmt 0 view .LVU1492
 4655 0000 70B5     		push	{r4, r5, r6, lr}
 4656              	.LCFI63:
 4657              		.cfi_def_cfa_offset 16
 4658              		.cfi_offset 4, -16
 4659              		.cfi_offset 5, -12
 4660              		.cfi_offset 6, -8
 4661              		.cfi_offset 14, -4
 4662 0002 84B0     		sub	sp, sp, #16
 4663              	.LCFI64:
 4664              		.cfi_def_cfa_offset 32
1834:Drivers/STM32F4xx_HAL_Driver/Src/stm32f4xx_ll_usb.c ****   uint32_t ch_num = (uint32_t)hc->ch_num;
 4665              		.loc 1 1834 3 is_stmt 1 view .LVU1493
 4666              	.LVL366:
1835:Drivers/STM32F4xx_HAL_Driver/Src/stm32f4xx_ll_usb.c ****   __IO uint32_t tmpreg;
 4667              		.loc 1 1835 3 view .LVU1494
1835:Drivers/STM32F4xx_HAL_Driver/Src/stm32f4xx_ll_usb.c ****   __IO uint32_t tmpreg;
 4668              		.loc 1 1835 33 is_stmt 0 view .LVU1495
 4669 0004 4B78     		ldrb	r3, [r1, #1]	@ zero_extendqisi2
ARM GAS  /tmp/ccELzqP8.s 			page 141


 4670              	.LVL367:
1836:Drivers/STM32F4xx_HAL_Driver/Src/stm32f4xx_ll_usb.c ****   uint8_t  is_oddframe;
 4671              		.loc 1 1836 3 is_stmt 1 view .LVU1496
1837:Drivers/STM32F4xx_HAL_Driver/Src/stm32f4xx_ll_usb.c ****   uint16_t len_words;
 4672              		.loc 1 1837 3 view .LVU1497
1838:Drivers/STM32F4xx_HAL_Driver/Src/stm32f4xx_ll_usb.c ****   uint16_t num_packets;
 4673              		.loc 1 1838 3 view .LVU1498
1839:Drivers/STM32F4xx_HAL_Driver/Src/stm32f4xx_ll_usb.c ****   uint16_t max_hc_pkt_count = HC_MAX_PKT_CNT;
 4674              		.loc 1 1839 3 view .LVU1499
1840:Drivers/STM32F4xx_HAL_Driver/Src/stm32f4xx_ll_usb.c **** 
 4675              		.loc 1 1840 3 view .LVU1500
1843:Drivers/STM32F4xx_HAL_Driver/Src/stm32f4xx_ll_usb.c ****   {
 4676              		.loc 1 1843 3 view .LVU1501
1843:Drivers/STM32F4xx_HAL_Driver/Src/stm32f4xx_ll_usb.c ****   {
 4677              		.loc 1 1843 6 is_stmt 0 view .LVU1502
 4678 0006 A14C     		ldr	r4, .L340
 4679 0008 A042     		cmp	r0, r4
 4680 000a 13D0     		beq	.L332
 4681              	.L299:
1867:Drivers/STM32F4xx_HAL_Driver/Src/stm32f4xx_ll_usb.c ****   {
 4682              		.loc 1 1867 3 is_stmt 1 view .LVU1503
1867:Drivers/STM32F4xx_HAL_Driver/Src/stm32f4xx_ll_usb.c ****   {
 4683              		.loc 1 1867 9 is_stmt 0 view .LVU1504
 4684 000c 8C79     		ldrb	r4, [r1, #6]	@ zero_extendqisi2
1867:Drivers/STM32F4xx_HAL_Driver/Src/stm32f4xx_ll_usb.c ****   {
 4685              		.loc 1 1867 6 view .LVU1505
 4686 000e 012C     		cmp	r4, #1
 4687 0010 2AD0     		beq	.L333
1925:Drivers/STM32F4xx_HAL_Driver/Src/stm32f4xx_ll_usb.c ****     {
 4688              		.loc 1 1925 5 is_stmt 1 view .LVU1506
1925:Drivers/STM32F4xx_HAL_Driver/Src/stm32f4xx_ll_usb.c ****     {
 4689              		.loc 1 1925 11 is_stmt 0 view .LVU1507
 4690 0012 0D6A     		ldr	r5, [r1, #32]
1925:Drivers/STM32F4xx_HAL_Driver/Src/stm32f4xx_ll_usb.c ****     {
 4691              		.loc 1 1925 8 view .LVU1508
 4692 0014 002D     		cmp	r5, #0
 4693 0016 5BD0     		beq	.L330
1927:Drivers/STM32F4xx_HAL_Driver/Src/stm32f4xx_ll_usb.c **** 
 4694              		.loc 1 1927 7 is_stmt 1 view .LVU1509
1927:Drivers/STM32F4xx_HAL_Driver/Src/stm32f4xx_ll_usb.c **** 
 4695              		.loc 1 1927 50 is_stmt 0 view .LVU1510
 4696 0018 8E8A     		ldrh	r6, [r1, #20]
1927:Drivers/STM32F4xx_HAL_Driver/Src/stm32f4xx_ll_usb.c **** 
 4697              		.loc 1 1927 46 view .LVU1511
 4698 001a AC19     		adds	r4, r5, r6
1927:Drivers/STM32F4xx_HAL_Driver/Src/stm32f4xx_ll_usb.c **** 
 4699              		.loc 1 1927 63 view .LVU1512
 4700 001c 013C     		subs	r4, r4, #1
1927:Drivers/STM32F4xx_HAL_Driver/Src/stm32f4xx_ll_usb.c **** 
 4701              		.loc 1 1927 69 view .LVU1513
 4702 001e B4FBF6F4 		udiv	r4, r4, r6
1927:Drivers/STM32F4xx_HAL_Driver/Src/stm32f4xx_ll_usb.c **** 
 4703              		.loc 1 1927 19 view .LVU1514
 4704 0022 A4B2     		uxth	r4, r4
 4705              	.LVL368:
1929:Drivers/STM32F4xx_HAL_Driver/Src/stm32f4xx_ll_usb.c ****       {
 4706              		.loc 1 1929 7 is_stmt 1 view .LVU1515
ARM GAS  /tmp/ccELzqP8.s 			page 142


1929:Drivers/STM32F4xx_HAL_Driver/Src/stm32f4xx_ll_usb.c ****       {
 4707              		.loc 1 1929 10 is_stmt 0 view .LVU1516
 4708 0024 B4F5807F 		cmp	r4, #256
 4709 0028 53D9     		bls	.L311
1931:Drivers/STM32F4xx_HAL_Driver/Src/stm32f4xx_ll_usb.c ****         hc->XferSize = (uint32_t)num_packets * hc->max_packet;
 4710              		.loc 1 1931 9 is_stmt 1 view .LVU1517
 4711              	.LVL369:
1932:Drivers/STM32F4xx_HAL_Driver/Src/stm32f4xx_ll_usb.c ****       }
 4712              		.loc 1 1932 9 view .LVU1518
1932:Drivers/STM32F4xx_HAL_Driver/Src/stm32f4xx_ll_usb.c ****       }
 4713              		.loc 1 1932 46 is_stmt 0 view .LVU1519
 4714 002a 3602     		lsls	r6, r6, #8
1932:Drivers/STM32F4xx_HAL_Driver/Src/stm32f4xx_ll_usb.c ****       }
 4715              		.loc 1 1932 22 view .LVU1520
 4716 002c CE61     		str	r6, [r1, #28]
1931:Drivers/STM32F4xx_HAL_Driver/Src/stm32f4xx_ll_usb.c ****         hc->XferSize = (uint32_t)num_packets * hc->max_packet;
 4717              		.loc 1 1931 21 view .LVU1521
 4718 002e 4FF48074 		mov	r4, #256
 4719 0032 4EE0     		b	.L311
 4720              	.LVL370:
 4721              	.L332:
1846:Drivers/STM32F4xx_HAL_Driver/Src/stm32f4xx_ll_usb.c ****     {
 4722              		.loc 1 1846 5 is_stmt 1 view .LVU1522
1846:Drivers/STM32F4xx_HAL_Driver/Src/stm32f4xx_ll_usb.c ****     {
 4723              		.loc 1 1846 8 is_stmt 0 view .LVU1523
 4724 0034 012A     		cmp	r2, #1
 4725 0036 07D0     		beq	.L334
1858:Drivers/STM32F4xx_HAL_Driver/Src/stm32f4xx_ll_usb.c ****       {
 4726              		.loc 1 1858 7 is_stmt 1 view .LVU1524
1858:Drivers/STM32F4xx_HAL_Driver/Src/stm32f4xx_ll_usb.c ****       {
 4727              		.loc 1 1858 40 is_stmt 0 view .LVU1525
 4728 0038 8C88     		ldrh	r4, [r1, #4]
1858:Drivers/STM32F4xx_HAL_Driver/Src/stm32f4xx_ll_usb.c ****       {
 4729              		.loc 1 1858 10 view .LVU1526
 4730 003a B4F5807F 		cmp	r4, #256
 4731 003e E5D1     		bne	.L299
1860:Drivers/STM32F4xx_HAL_Driver/Src/stm32f4xx_ll_usb.c ****         return HAL_OK;
 4732              		.loc 1 1860 9 is_stmt 1 view .LVU1527
1860:Drivers/STM32F4xx_HAL_Driver/Src/stm32f4xx_ll_usb.c ****         return HAL_OK;
 4733              		.loc 1 1860 15 is_stmt 0 view .LVU1528
 4734 0040 1946     		mov	r1, r3
 4735              	.LVL371:
1860:Drivers/STM32F4xx_HAL_Driver/Src/stm32f4xx_ll_usb.c ****         return HAL_OK;
 4736              		.loc 1 1860 15 view .LVU1529
 4737 0042 FFF7FEFF 		bl	USB_DoPing
 4738              	.LVL372:
1861:Drivers/STM32F4xx_HAL_Driver/Src/stm32f4xx_ll_usb.c ****       }
 4739              		.loc 1 1861 9 is_stmt 1 view .LVU1530
1861:Drivers/STM32F4xx_HAL_Driver/Src/stm32f4xx_ll_usb.c ****       }
 4740              		.loc 1 1861 16 is_stmt 0 view .LVU1531
 4741 0046 1DE1     		b	.L302
 4742              	.LVL373:
 4743              	.L334:
1848:Drivers/STM32F4xx_HAL_Driver/Src/stm32f4xx_ll_usb.c ****       {
 4744              		.loc 1 1848 7 is_stmt 1 view .LVU1532
1848:Drivers/STM32F4xx_HAL_Driver/Src/stm32f4xx_ll_usb.c ****       {
 4745              		.loc 1 1848 15 is_stmt 0 view .LVU1533
ARM GAS  /tmp/ccELzqP8.s 			page 143


 4746 0048 8C7C     		ldrb	r4, [r1, #18]	@ zero_extendqisi2
1848:Drivers/STM32F4xx_HAL_Driver/Src/stm32f4xx_ll_usb.c ****       {
 4747              		.loc 1 1848 10 view .LVU1534
 4748 004a 0CB1     		cbz	r4, .L301
1848:Drivers/STM32F4xx_HAL_Driver/Src/stm32f4xx_ll_usb.c ****       {
 4749              		.loc 1 1848 42 discriminator 2 view .LVU1535
 4750 004c 022C     		cmp	r4, #2
 4751 004e DDD1     		bne	.L299
 4752              	.L301:
1848:Drivers/STM32F4xx_HAL_Driver/Src/stm32f4xx_ll_usb.c ****       {
 4753              		.loc 1 1848 82 discriminator 3 view .LVU1536
 4754 0050 8C79     		ldrb	r4, [r1, #6]	@ zero_extendqisi2
1848:Drivers/STM32F4xx_HAL_Driver/Src/stm32f4xx_ll_usb.c ****       {
 4755              		.loc 1 1848 76 discriminator 3 view .LVU1537
 4756 0052 002C     		cmp	r4, #0
 4757 0054 DAD1     		bne	.L299
1851:Drivers/STM32F4xx_HAL_Driver/Src/stm32f4xx_ll_usb.c ****                                                  USB_OTG_HCINTMSK_ACKM |
 4758              		.loc 1 1851 9 is_stmt 1 view .LVU1538
1851:Drivers/STM32F4xx_HAL_Driver/Src/stm32f4xx_ll_usb.c ****                                                  USB_OTG_HCINTMSK_ACKM |
 4759              		.loc 1 1851 45 is_stmt 0 view .LVU1539
 4760 0056 00EB4314 		add	r4, r0, r3, lsl #5
 4761 005a D4F80C55 		ldr	r5, [r4, #1292]
 4762 005e 25F07005 		bic	r5, r5, #112
 4763 0062 C4F80C55 		str	r5, [r4, #1292]
 4764 0066 D1E7     		b	.L299
 4765              	.L333:
1870:Drivers/STM32F4xx_HAL_Driver/Src/stm32f4xx_ll_usb.c **** 
 4766              		.loc 1 1870 5 is_stmt 1 view .LVU1540
 4767              	.LVL374:
1872:Drivers/STM32F4xx_HAL_Driver/Src/stm32f4xx_ll_usb.c ****     {
 4768              		.loc 1 1872 5 view .LVU1541
1872:Drivers/STM32F4xx_HAL_Driver/Src/stm32f4xx_ll_usb.c ****     {
 4769              		.loc 1 1872 11 is_stmt 0 view .LVU1542
 4770 0068 CC78     		ldrb	r4, [r1, #3]	@ zero_extendqisi2
1872:Drivers/STM32F4xx_HAL_Driver/Src/stm32f4xx_ll_usb.c ****     {
 4771              		.loc 1 1872 8 view .LVU1543
 4772 006a 1CB1     		cbz	r4, .L304
1874:Drivers/STM32F4xx_HAL_Driver/Src/stm32f4xx_ll_usb.c ****     }
 4773              		.loc 1 1874 7 is_stmt 1 view .LVU1544
1874:Drivers/STM32F4xx_HAL_Driver/Src/stm32f4xx_ll_usb.c ****     }
 4774              		.loc 1 1874 48 is_stmt 0 view .LVU1545
 4775 006c 8C8A     		ldrh	r4, [r1, #20]
1874:Drivers/STM32F4xx_HAL_Driver/Src/stm32f4xx_ll_usb.c ****     }
 4776              		.loc 1 1874 20 view .LVU1546
 4777 006e CC61     		str	r4, [r1, #28]
1870:Drivers/STM32F4xx_HAL_Driver/Src/stm32f4xx_ll_usb.c **** 
 4778              		.loc 1 1870 17 view .LVU1547
 4779 0070 0124     		movs	r4, #1
 4780 0072 35E0     		b	.L305
 4781              	.L304:
1878:Drivers/STM32F4xx_HAL_Driver/Src/stm32f4xx_ll_usb.c ****       {
 4782              		.loc 1 1878 7 is_stmt 1 view .LVU1548
1878:Drivers/STM32F4xx_HAL_Driver/Src/stm32f4xx_ll_usb.c ****       {
 4783              		.loc 1 1878 13 is_stmt 0 view .LVU1549
 4784 0074 8C7C     		ldrb	r4, [r1, #18]	@ zero_extendqisi2
1878:Drivers/STM32F4xx_HAL_Driver/Src/stm32f4xx_ll_usb.c ****       {
 4785              		.loc 1 1878 10 view .LVU1550
ARM GAS  /tmp/ccELzqP8.s 			page 144


 4786 0076 012C     		cmp	r4, #1
 4787 0078 05D0     		beq	.L335
1911:Drivers/STM32F4xx_HAL_Driver/Src/stm32f4xx_ll_usb.c ****         {
 4788              		.loc 1 1911 9 is_stmt 1 view .LVU1551
1911:Drivers/STM32F4xx_HAL_Driver/Src/stm32f4xx_ll_usb.c ****         {
 4789              		.loc 1 1911 12 is_stmt 0 view .LVU1552
 4790 007a 012A     		cmp	r2, #1
 4791 007c 21D0     		beq	.L336
 4792              	.L310:
1917:Drivers/STM32F4xx_HAL_Driver/Src/stm32f4xx_ll_usb.c ****         }
 4793              		.loc 1 1917 11 is_stmt 1 view .LVU1553
1917:Drivers/STM32F4xx_HAL_Driver/Src/stm32f4xx_ll_usb.c ****         }
 4794              		.loc 1 1917 28 is_stmt 0 view .LVU1554
 4795 007e 0C6A     		ldr	r4, [r1, #32]
1917:Drivers/STM32F4xx_HAL_Driver/Src/stm32f4xx_ll_usb.c ****         }
 4796              		.loc 1 1917 24 view .LVU1555
 4797 0080 CC61     		str	r4, [r1, #28]
1870:Drivers/STM32F4xx_HAL_Driver/Src/stm32f4xx_ll_usb.c **** 
 4798              		.loc 1 1870 17 view .LVU1556
 4799 0082 0124     		movs	r4, #1
 4800 0084 2CE0     		b	.L305
 4801              	.L335:
1880:Drivers/STM32F4xx_HAL_Driver/Src/stm32f4xx_ll_usb.c ****         {
 4802              		.loc 1 1880 9 is_stmt 1 view .LVU1557
1880:Drivers/STM32F4xx_HAL_Driver/Src/stm32f4xx_ll_usb.c ****         {
 4803              		.loc 1 1880 15 is_stmt 0 view .LVU1558
 4804 0086 0C6A     		ldr	r4, [r1, #32]
1880:Drivers/STM32F4xx_HAL_Driver/Src/stm32f4xx_ll_usb.c ****         {
 4805              		.loc 1 1880 12 view .LVU1559
 4806 0088 BC2C     		cmp	r4, #188
 4807 008a 0DD9     		bls	.L307
1883:Drivers/STM32F4xx_HAL_Driver/Src/stm32f4xx_ll_usb.c ****           hc->xfer_len = hc->XferSize;
 4808              		.loc 1 1883 11 is_stmt 1 view .LVU1560
1883:Drivers/STM32F4xx_HAL_Driver/Src/stm32f4xx_ll_usb.c ****           hc->xfer_len = hc->XferSize;
 4809              		.loc 1 1883 28 is_stmt 0 view .LVU1561
 4810 008c 8C8A     		ldrh	r4, [r1, #20]
1883:Drivers/STM32F4xx_HAL_Driver/Src/stm32f4xx_ll_usb.c ****           hc->xfer_len = hc->XferSize;
 4811              		.loc 1 1883 24 view .LVU1562
 4812 008e CC61     		str	r4, [r1, #28]
1884:Drivers/STM32F4xx_HAL_Driver/Src/stm32f4xx_ll_usb.c **** 
 4813              		.loc 1 1884 11 is_stmt 1 view .LVU1563
1884:Drivers/STM32F4xx_HAL_Driver/Src/stm32f4xx_ll_usb.c **** 
 4814              		.loc 1 1884 24 is_stmt 0 view .LVU1564
 4815 0090 0C62     		str	r4, [r1, #32]
1886:Drivers/STM32F4xx_HAL_Driver/Src/stm32f4xx_ll_usb.c ****           {
 4816              		.loc 1 1886 11 is_stmt 1 view .LVU1565
1886:Drivers/STM32F4xx_HAL_Driver/Src/stm32f4xx_ll_usb.c ****           {
 4817              		.loc 1 1886 18 is_stmt 0 view .LVU1566
 4818 0092 CC68     		ldr	r4, [r1, #12]
1886:Drivers/STM32F4xx_HAL_Driver/Src/stm32f4xx_ll_usb.c ****           {
 4819              		.loc 1 1886 54 view .LVU1567
 4820 0094 013C     		subs	r4, r4, #1
1886:Drivers/STM32F4xx_HAL_Driver/Src/stm32f4xx_ll_usb.c ****           {
 4821              		.loc 1 1886 14 view .LVU1568
 4822 0096 012C     		cmp	r4, #1
 4823 0098 02D9     		bls	.L337
1892:Drivers/STM32F4xx_HAL_Driver/Src/stm32f4xx_ll_usb.c ****           }
ARM GAS  /tmp/ccELzqP8.s 			page 145


 4824              		.loc 1 1892 13 is_stmt 1 view .LVU1569
1892:Drivers/STM32F4xx_HAL_Driver/Src/stm32f4xx_ll_usb.c ****           }
 4825              		.loc 1 1892 34 is_stmt 0 view .LVU1570
 4826 009a 0124     		movs	r4, #1
 4827 009c CC60     		str	r4, [r1, #12]
 4828 009e 1FE0     		b	.L305
 4829              	.L337:
1888:Drivers/STM32F4xx_HAL_Driver/Src/stm32f4xx_ll_usb.c ****           }
 4830              		.loc 1 1888 13 is_stmt 1 view .LVU1571
1888:Drivers/STM32F4xx_HAL_Driver/Src/stm32f4xx_ll_usb.c ****           }
 4831              		.loc 1 1888 34 is_stmt 0 view .LVU1572
 4832 00a0 0224     		movs	r4, #2
 4833 00a2 CC60     		str	r4, [r1, #12]
1870:Drivers/STM32F4xx_HAL_Driver/Src/stm32f4xx_ll_usb.c **** 
 4834              		.loc 1 1870 17 view .LVU1573
 4835 00a4 0124     		movs	r4, #1
 4836 00a6 1BE0     		b	.L305
 4837              	.L307:
1897:Drivers/STM32F4xx_HAL_Driver/Src/stm32f4xx_ll_usb.c **** 
 4838              		.loc 1 1897 11 is_stmt 1 view .LVU1574
1897:Drivers/STM32F4xx_HAL_Driver/Src/stm32f4xx_ll_usb.c **** 
 4839              		.loc 1 1897 24 is_stmt 0 view .LVU1575
 4840 00a8 CC61     		str	r4, [r1, #28]
1899:Drivers/STM32F4xx_HAL_Driver/Src/stm32f4xx_ll_usb.c ****           {
 4841              		.loc 1 1899 11 is_stmt 1 view .LVU1576
1899:Drivers/STM32F4xx_HAL_Driver/Src/stm32f4xx_ll_usb.c ****           {
 4842              		.loc 1 1899 18 is_stmt 0 view .LVU1577
 4843 00aa CC68     		ldr	r4, [r1, #12]
1899:Drivers/STM32F4xx_HAL_Driver/Src/stm32f4xx_ll_usb.c ****           {
 4844              		.loc 1 1899 54 view .LVU1578
 4845 00ac 013C     		subs	r4, r4, #1
1899:Drivers/STM32F4xx_HAL_Driver/Src/stm32f4xx_ll_usb.c ****           {
 4846              		.loc 1 1899 14 view .LVU1579
 4847 00ae 012C     		cmp	r4, #1
 4848 00b0 03D9     		bls	.L309
1901:Drivers/STM32F4xx_HAL_Driver/Src/stm32f4xx_ll_usb.c ****           }
 4849              		.loc 1 1901 13 is_stmt 1 view .LVU1580
1901:Drivers/STM32F4xx_HAL_Driver/Src/stm32f4xx_ll_usb.c ****           }
 4850              		.loc 1 1901 34 is_stmt 0 view .LVU1581
 4851 00b2 0424     		movs	r4, #4
 4852 00b4 CC60     		str	r4, [r1, #12]
1870:Drivers/STM32F4xx_HAL_Driver/Src/stm32f4xx_ll_usb.c **** 
 4853              		.loc 1 1870 17 view .LVU1582
 4854 00b6 0124     		movs	r4, #1
 4855 00b8 12E0     		b	.L305
 4856              	.L309:
1905:Drivers/STM32F4xx_HAL_Driver/Src/stm32f4xx_ll_usb.c ****           }
 4857              		.loc 1 1905 13 is_stmt 1 view .LVU1583
1905:Drivers/STM32F4xx_HAL_Driver/Src/stm32f4xx_ll_usb.c ****           }
 4858              		.loc 1 1905 34 is_stmt 0 view .LVU1584
 4859 00ba 0324     		movs	r4, #3
 4860 00bc CC60     		str	r4, [r1, #12]
1870:Drivers/STM32F4xx_HAL_Driver/Src/stm32f4xx_ll_usb.c **** 
 4861              		.loc 1 1870 17 view .LVU1585
 4862 00be 0124     		movs	r4, #1
 4863 00c0 0EE0     		b	.L305
 4864              	.L336:
ARM GAS  /tmp/ccELzqP8.s 			page 146


1911:Drivers/STM32F4xx_HAL_Driver/Src/stm32f4xx_ll_usb.c ****         {
 4865              		.loc 1 1911 31 discriminator 1 view .LVU1586
 4866 00c2 0D6A     		ldr	r5, [r1, #32]
1911:Drivers/STM32F4xx_HAL_Driver/Src/stm32f4xx_ll_usb.c ****         {
 4867              		.loc 1 1911 46 discriminator 1 view .LVU1587
 4868 00c4 8C8A     		ldrh	r4, [r1, #20]
1911:Drivers/STM32F4xx_HAL_Driver/Src/stm32f4xx_ll_usb.c ****         {
 4869              		.loc 1 1911 25 discriminator 1 view .LVU1588
 4870 00c6 A542     		cmp	r5, r4
 4871 00c8 D9D9     		bls	.L310
1913:Drivers/STM32F4xx_HAL_Driver/Src/stm32f4xx_ll_usb.c ****         }
 4872              		.loc 1 1913 11 is_stmt 1 view .LVU1589
1913:Drivers/STM32F4xx_HAL_Driver/Src/stm32f4xx_ll_usb.c ****         }
 4873              		.loc 1 1913 24 is_stmt 0 view .LVU1590
 4874 00ca CC61     		str	r4, [r1, #28]
1870:Drivers/STM32F4xx_HAL_Driver/Src/stm32f4xx_ll_usb.c **** 
 4875              		.loc 1 1870 17 view .LVU1591
 4876 00cc 0124     		movs	r4, #1
1913:Drivers/STM32F4xx_HAL_Driver/Src/stm32f4xx_ll_usb.c ****         }
 4877              		.loc 1 1913 24 view .LVU1592
 4878 00ce 07E0     		b	.L305
 4879              	.LVL375:
 4880              	.L330:
1937:Drivers/STM32F4xx_HAL_Driver/Src/stm32f4xx_ll_usb.c ****     }
 4881              		.loc 1 1937 19 view .LVU1593
 4882 00d0 0124     		movs	r4, #1
 4883              	.L311:
 4884              	.LVL376:
1944:Drivers/STM32F4xx_HAL_Driver/Src/stm32f4xx_ll_usb.c ****     {
 4885              		.loc 1 1944 5 is_stmt 1 view .LVU1594
1944:Drivers/STM32F4xx_HAL_Driver/Src/stm32f4xx_ll_usb.c ****     {
 4886              		.loc 1 1944 11 is_stmt 0 view .LVU1595
 4887 00d2 CE78     		ldrb	r6, [r1, #3]	@ zero_extendqisi2
1944:Drivers/STM32F4xx_HAL_Driver/Src/stm32f4xx_ll_usb.c ****     {
 4888              		.loc 1 1944 8 view .LVU1596
 4889 00d4 002E     		cmp	r6, #0
 4890 00d6 5FD0     		beq	.L312
1946:Drivers/STM32F4xx_HAL_Driver/Src/stm32f4xx_ll_usb.c ****     }
 4891              		.loc 1 1946 7 is_stmt 1 view .LVU1597
1946:Drivers/STM32F4xx_HAL_Driver/Src/stm32f4xx_ll_usb.c ****     }
 4892              		.loc 1 1946 48 is_stmt 0 view .LVU1598
 4893 00d8 8D8A     		ldrh	r5, [r1, #20]
1946:Drivers/STM32F4xx_HAL_Driver/Src/stm32f4xx_ll_usb.c ****     }
 4894              		.loc 1 1946 44 view .LVU1599
 4895 00da 04FB05F5 		mul	r5, r4, r5
1946:Drivers/STM32F4xx_HAL_Driver/Src/stm32f4xx_ll_usb.c ****     }
 4896              		.loc 1 1946 20 view .LVU1600
 4897 00de CD61     		str	r5, [r1, #28]
 4898              	.LVL377:
 4899              	.L305:
1955:Drivers/STM32F4xx_HAL_Driver/Src/stm32f4xx_ll_usb.c ****                             (((uint32_t)num_packets << 19) & USB_OTG_HCTSIZ_PKTCNT) |
 4900              		.loc 1 1955 3 is_stmt 1 view .LVU1601
1955:Drivers/STM32F4xx_HAL_Driver/Src/stm32f4xx_ll_usb.c ****                             (((uint32_t)num_packets << 19) & USB_OTG_HCTSIZ_PKTCNT) |
 4901              		.loc 1 1955 43 is_stmt 0 view .LVU1602
 4902 00e0 CD69     		ldr	r5, [r1, #28]
 4903 00e2 C5F3120C 		ubfx	ip, r5, #0, #19
1956:Drivers/STM32F4xx_HAL_Driver/Src/stm32f4xx_ll_usb.c ****                             (((uint32_t)hc->data_pid << 29) & USB_OTG_HCTSIZ_DPID);
ARM GAS  /tmp/ccELzqP8.s 			page 147


 4904              		.loc 1 1956 60 view .LVU1603
 4905 00e6 6A4D     		ldr	r5, .L340+4
 4906 00e8 05EAC444 		and	r4, r5, r4, lsl #19
 4907              	.LVL378:
1955:Drivers/STM32F4xx_HAL_Driver/Src/stm32f4xx_ll_usb.c ****                             (((uint32_t)num_packets << 19) & USB_OTG_HCTSIZ_PKTCNT) |
 4908              		.loc 1 1955 68 view .LVU1604
 4909 00ec 4CEA040C 		orr	ip, ip, r4
1957:Drivers/STM32F4xx_HAL_Driver/Src/stm32f4xx_ll_usb.c **** 
 4910              		.loc 1 1957 43 view .LVU1605
 4911 00f0 8C7D     		ldrb	r4, [r1, #22]	@ zero_extendqisi2
1957:Drivers/STM32F4xx_HAL_Driver/Src/stm32f4xx_ll_usb.c **** 
 4912              		.loc 1 1957 54 view .LVU1606
 4913 00f2 6407     		lsls	r4, r4, #29
1957:Drivers/STM32F4xx_HAL_Driver/Src/stm32f4xx_ll_usb.c **** 
 4914              		.loc 1 1957 61 view .LVU1607
 4915 00f4 04F0C044 		and	r4, r4, #1610612736
1955:Drivers/STM32F4xx_HAL_Driver/Src/stm32f4xx_ll_usb.c ****                             (((uint32_t)num_packets << 19) & USB_OTG_HCTSIZ_PKTCNT) |
 4916              		.loc 1 1955 3 view .LVU1608
 4917 00f8 00EB4313 		add	r3, r0, r3, lsl #5
 4918              	.LVL379:
1955:Drivers/STM32F4xx_HAL_Driver/Src/stm32f4xx_ll_usb.c ****                             (((uint32_t)num_packets << 19) & USB_OTG_HCTSIZ_PKTCNT) |
 4919              		.loc 1 1955 3 view .LVU1609
 4920 00fc 03F5A06E 		add	lr, r3, #1280
1956:Drivers/STM32F4xx_HAL_Driver/Src/stm32f4xx_ll_usb.c ****                             (((uint32_t)hc->data_pid << 29) & USB_OTG_HCTSIZ_DPID);
 4921              		.loc 1 1956 85 view .LVU1610
 4922 0100 4CEA0404 		orr	r4, ip, r4
1955:Drivers/STM32F4xx_HAL_Driver/Src/stm32f4xx_ll_usb.c ****                             (((uint32_t)num_packets << 19) & USB_OTG_HCTSIZ_PKTCNT) |
 4923              		.loc 1 1955 27 view .LVU1611
 4924 0104 CEF81040 		str	r4, [lr, #16]
1959:Drivers/STM32F4xx_HAL_Driver/Src/stm32f4xx_ll_usb.c ****   {
 4925              		.loc 1 1959 3 is_stmt 1 view .LVU1612
1959:Drivers/STM32F4xx_HAL_Driver/Src/stm32f4xx_ll_usb.c ****   {
 4926              		.loc 1 1959 6 is_stmt 0 view .LVU1613
 4927 0108 12B1     		cbz	r2, .L313
1962:Drivers/STM32F4xx_HAL_Driver/Src/stm32f4xx_ll_usb.c ****   }
 4928              		.loc 1 1962 5 is_stmt 1 view .LVU1614
1962:Drivers/STM32F4xx_HAL_Driver/Src/stm32f4xx_ll_usb.c ****   }
 4929              		.loc 1 1962 42 is_stmt 0 view .LVU1615
 4930 010a 8C69     		ldr	r4, [r1, #24]
1962:Drivers/STM32F4xx_HAL_Driver/Src/stm32f4xx_ll_usb.c ****   }
 4931              		.loc 1 1962 28 view .LVU1616
 4932 010c CEF81440 		str	r4, [lr, #20]
 4933              	.L313:
1965:Drivers/STM32F4xx_HAL_Driver/Src/stm32f4xx_ll_usb.c ****   USBx_HC(ch_num)->HCCHAR &= ~USB_OTG_HCCHAR_ODDFRM;
 4934              		.loc 1 1965 3 is_stmt 1 view .LVU1617
1965:Drivers/STM32F4xx_HAL_Driver/Src/stm32f4xx_ll_usb.c ****   USBx_HC(ch_num)->HCCHAR &= ~USB_OTG_HCCHAR_ODDFRM;
 4935              		.loc 1 1965 29 is_stmt 0 view .LVU1618
 4936 0110 00F5806C 		add	ip, r0, #1024
1965:Drivers/STM32F4xx_HAL_Driver/Src/stm32f4xx_ll_usb.c ****   USBx_HC(ch_num)->HCCHAR &= ~USB_OTG_HCCHAR_ODDFRM;
 4937              		.loc 1 1965 38 view .LVU1619
 4938 0114 DCF80840 		ldr	r4, [ip, #8]
1965:Drivers/STM32F4xx_HAL_Driver/Src/stm32f4xx_ll_usb.c ****   USBx_HC(ch_num)->HCCHAR &= ~USB_OTG_HCCHAR_ODDFRM;
 4939              		.loc 1 1965 67 view .LVU1620
 4940 0118 14F0010F 		tst	r4, #1
 4941 011c 0CBF     		ite	eq
 4942 011e 0126     		moveq	r6, #1
 4943 0120 0026     		movne	r6, #0
ARM GAS  /tmp/ccELzqP8.s 			page 148


 4944              	.LVL380:
1966:Drivers/STM32F4xx_HAL_Driver/Src/stm32f4xx_ll_usb.c ****   USBx_HC(ch_num)->HCCHAR |= (uint32_t)is_oddframe << 29;
 4945              		.loc 1 1966 3 is_stmt 1 view .LVU1621
1966:Drivers/STM32F4xx_HAL_Driver/Src/stm32f4xx_ll_usb.c ****   USBx_HC(ch_num)->HCCHAR |= (uint32_t)is_oddframe << 29;
 4946              		.loc 1 1966 27 is_stmt 0 view .LVU1622
 4947 0122 D3F80055 		ldr	r5, [r3, #1280]
 4948 0126 25F00055 		bic	r5, r5, #536870912
 4949 012a C3F80055 		str	r5, [r3, #1280]
1967:Drivers/STM32F4xx_HAL_Driver/Src/stm32f4xx_ll_usb.c **** 
 4950              		.loc 1 1967 3 is_stmt 1 view .LVU1623
1967:Drivers/STM32F4xx_HAL_Driver/Src/stm32f4xx_ll_usb.c **** 
 4951              		.loc 1 1967 27 is_stmt 0 view .LVU1624
 4952 012e D3F80045 		ldr	r4, [r3, #1280]
 4953 0132 44EA4674 		orr	r4, r4, r6, lsl #29
 4954 0136 C3F80045 		str	r4, [r3, #1280]
1969:Drivers/STM32F4xx_HAL_Driver/Src/stm32f4xx_ll_usb.c ****   {
 4955              		.loc 1 1969 3 is_stmt 1 view .LVU1625
1969:Drivers/STM32F4xx_HAL_Driver/Src/stm32f4xx_ll_usb.c ****   {
 4956              		.loc 1 1969 9 is_stmt 0 view .LVU1626
 4957 013a 8C79     		ldrb	r4, [r1, #6]	@ zero_extendqisi2
1969:Drivers/STM32F4xx_HAL_Driver/Src/stm32f4xx_ll_usb.c ****   {
 4958              		.loc 1 1969 6 view .LVU1627
 4959 013c 012C     		cmp	r4, #1
 4960 013e 2DD0     		beq	.L338
2025:Drivers/STM32F4xx_HAL_Driver/Src/stm32f4xx_ll_usb.c ****   }
 4961              		.loc 1 2025 5 is_stmt 1 view .LVU1628
2025:Drivers/STM32F4xx_HAL_Driver/Src/stm32f4xx_ll_usb.c ****   }
 4962              		.loc 1 2025 39 is_stmt 0 view .LVU1629
 4963 0140 0024     		movs	r4, #0
 4964 0142 CEF80440 		str	r4, [lr, #4]
 4965              	.L318:
2029:Drivers/STM32F4xx_HAL_Driver/Src/stm32f4xx_ll_usb.c ****   tmpreg &= ~USB_OTG_HCCHAR_CHDIS;
 4966              		.loc 1 2029 3 is_stmt 1 view .LVU1630
2029:Drivers/STM32F4xx_HAL_Driver/Src/stm32f4xx_ll_usb.c ****   tmpreg &= ~USB_OTG_HCCHAR_CHDIS;
 4967              		.loc 1 2029 27 is_stmt 0 view .LVU1631
 4968 0146 D3F80045 		ldr	r4, [r3, #1280]
2029:Drivers/STM32F4xx_HAL_Driver/Src/stm32f4xx_ll_usb.c ****   tmpreg &= ~USB_OTG_HCCHAR_CHDIS;
 4969              		.loc 1 2029 10 view .LVU1632
 4970 014a 0394     		str	r4, [sp, #12]
2030:Drivers/STM32F4xx_HAL_Driver/Src/stm32f4xx_ll_usb.c **** 
 4971              		.loc 1 2030 3 is_stmt 1 view .LVU1633
2030:Drivers/STM32F4xx_HAL_Driver/Src/stm32f4xx_ll_usb.c **** 
 4972              		.loc 1 2030 10 is_stmt 0 view .LVU1634
 4973 014c 039C     		ldr	r4, [sp, #12]
 4974 014e 24F08044 		bic	r4, r4, #1073741824
 4975 0152 0394     		str	r4, [sp, #12]
2033:Drivers/STM32F4xx_HAL_Driver/Src/stm32f4xx_ll_usb.c ****   {
 4976              		.loc 1 2033 3 is_stmt 1 view .LVU1635
2033:Drivers/STM32F4xx_HAL_Driver/Src/stm32f4xx_ll_usb.c ****   {
 4977              		.loc 1 2033 9 is_stmt 0 view .LVU1636
 4978 0154 CC78     		ldrb	r4, [r1, #3]	@ zero_extendqisi2
2033:Drivers/STM32F4xx_HAL_Driver/Src/stm32f4xx_ll_usb.c ****   {
 4979              		.loc 1 2033 6 view .LVU1637
 4980 0156 002C     		cmp	r4, #0
 4981 0158 7DD0     		beq	.L324
2035:Drivers/STM32F4xx_HAL_Driver/Src/stm32f4xx_ll_usb.c ****   }
 4982              		.loc 1 2035 5 is_stmt 1 view .LVU1638
ARM GAS  /tmp/ccELzqP8.s 			page 149


2035:Drivers/STM32F4xx_HAL_Driver/Src/stm32f4xx_ll_usb.c ****   }
 4983              		.loc 1 2035 12 is_stmt 0 view .LVU1639
 4984 015a 039C     		ldr	r4, [sp, #12]
 4985 015c 44F40044 		orr	r4, r4, #32768
 4986 0160 0394     		str	r4, [sp, #12]
 4987              	.L325:
2041:Drivers/STM32F4xx_HAL_Driver/Src/stm32f4xx_ll_usb.c ****   USBx_HC(ch_num)->HCCHAR = tmpreg;
 4988              		.loc 1 2041 3 is_stmt 1 view .LVU1640
2041:Drivers/STM32F4xx_HAL_Driver/Src/stm32f4xx_ll_usb.c ****   USBx_HC(ch_num)->HCCHAR = tmpreg;
 4989              		.loc 1 2041 10 is_stmt 0 view .LVU1641
 4990 0162 039C     		ldr	r4, [sp, #12]
 4991 0164 44F00044 		orr	r4, r4, #-2147483648
 4992 0168 0394     		str	r4, [sp, #12]
2042:Drivers/STM32F4xx_HAL_Driver/Src/stm32f4xx_ll_usb.c **** 
 4993              		.loc 1 2042 3 is_stmt 1 view .LVU1642
2042:Drivers/STM32F4xx_HAL_Driver/Src/stm32f4xx_ll_usb.c **** 
 4994              		.loc 1 2042 27 is_stmt 0 view .LVU1643
 4995 016a 039C     		ldr	r4, [sp, #12]
 4996 016c C3F80045 		str	r4, [r3, #1280]
2044:Drivers/STM32F4xx_HAL_Driver/Src/stm32f4xx_ll_usb.c ****   {
 4997              		.loc 1 2044 3 is_stmt 1 view .LVU1644
2044:Drivers/STM32F4xx_HAL_Driver/Src/stm32f4xx_ll_usb.c ****   {
 4998              		.loc 1 2044 6 is_stmt 0 view .LVU1645
 4999 0170 002A     		cmp	r2, #0
 5000 0172 40F08780 		bne	.L302
2049:Drivers/STM32F4xx_HAL_Driver/Src/stm32f4xx_ll_usb.c ****   {
 5001              		.loc 1 2049 3 is_stmt 1 view .LVU1646
2049:Drivers/STM32F4xx_HAL_Driver/Src/stm32f4xx_ll_usb.c ****   {
 5002              		.loc 1 2049 10 is_stmt 0 view .LVU1647
 5003 0176 CB78     		ldrb	r3, [r1, #3]	@ zero_extendqisi2
2049:Drivers/STM32F4xx_HAL_Driver/Src/stm32f4xx_ll_usb.c ****   {
 5004              		.loc 1 2049 6 view .LVU1648
 5005 0178 002B     		cmp	r3, #0
 5006 017a 40F08380 		bne	.L302
2049:Drivers/STM32F4xx_HAL_Driver/Src/stm32f4xx_ll_usb.c ****   {
 5007              		.loc 1 2049 34 discriminator 1 view .LVU1649
 5008 017e 0B6A     		ldr	r3, [r1, #32]
2049:Drivers/STM32F4xx_HAL_Driver/Src/stm32f4xx_ll_usb.c ****   {
 5009              		.loc 1 2049 28 discriminator 1 view .LVU1650
 5010 0180 002B     		cmp	r3, #0
 5011 0182 7FD0     		beq	.L302
2049:Drivers/STM32F4xx_HAL_Driver/Src/stm32f4xx_ll_usb.c ****   {
 5012              		.loc 1 2049 57 discriminator 2 view .LVU1651
 5013 0184 CA79     		ldrb	r2, [r1, #7]	@ zero_extendqisi2
 5014              	.LVL381:
2049:Drivers/STM32F4xx_HAL_Driver/Src/stm32f4xx_ll_usb.c ****   {
 5015              		.loc 1 2049 51 discriminator 2 view .LVU1652
 5016 0186 002A     		cmp	r2, #0
 5017 0188 7CD1     		bne	.L302
2051:Drivers/STM32F4xx_HAL_Driver/Src/stm32f4xx_ll_usb.c ****     {
 5018              		.loc 1 2051 5 is_stmt 1 view .LVU1653
2051:Drivers/STM32F4xx_HAL_Driver/Src/stm32f4xx_ll_usb.c ****     {
 5019              		.loc 1 2051 15 is_stmt 0 view .LVU1654
 5020 018a 8A7C     		ldrb	r2, [r1, #18]	@ zero_extendqisi2
2051:Drivers/STM32F4xx_HAL_Driver/Src/stm32f4xx_ll_usb.c ****     {
 5021              		.loc 1 2051 5 view .LVU1655
 5022 018c 032A     		cmp	r2, #3
ARM GAS  /tmp/ccELzqP8.s 			page 150


 5023 018e 72D8     		bhi	.L326
 5024 0190 DFE802F0 		tbb	[pc, r2]
 5025              	.L328:
 5026 0194 66       		.byte	(.L329-.L328)/2
 5027 0195 80       		.byte	(.L327-.L328)/2
 5028 0196 66       		.byte	(.L329-.L328)/2
 5029 0197 80       		.byte	(.L327-.L328)/2
 5030              	.LVL382:
 5031              		.p2align 1
 5032              	.L312:
1950:Drivers/STM32F4xx_HAL_Driver/Src/stm32f4xx_ll_usb.c ****     }
 5033              		.loc 1 1950 7 is_stmt 1 view .LVU1656
1950:Drivers/STM32F4xx_HAL_Driver/Src/stm32f4xx_ll_usb.c ****     }
 5034              		.loc 1 1950 20 is_stmt 0 view .LVU1657
 5035 0198 CD61     		str	r5, [r1, #28]
 5036 019a A1E7     		b	.L305
 5037              	.LVL383:
 5038              	.L338:
1972:Drivers/STM32F4xx_HAL_Driver/Src/stm32f4xx_ll_usb.c ****                                         (uint32_t)hc->hub_port_nbr | USB_OTG_HCSPLT_SPLITEN;
 5039              		.loc 1 1972 5 is_stmt 1 view .LVU1658
1972:Drivers/STM32F4xx_HAL_Driver/Src/stm32f4xx_ll_usb.c ****                                         (uint32_t)hc->hub_port_nbr | USB_OTG_HCSPLT_SPLITEN;
 5040              		.loc 1 1972 54 is_stmt 0 view .LVU1659
 5041 019c 4D7C     		ldrb	r5, [r1, #17]	@ zero_extendqisi2
1973:Drivers/STM32F4xx_HAL_Driver/Src/stm32f4xx_ll_usb.c **** 
 5042              		.loc 1 1973 53 view .LVU1660
 5043 019e 0C7C     		ldrb	r4, [r1, #16]	@ zero_extendqisi2
1972:Drivers/STM32F4xx_HAL_Driver/Src/stm32f4xx_ll_usb.c ****                                         (uint32_t)hc->hub_port_nbr | USB_OTG_HCSPLT_SPLITEN;
 5044              		.loc 1 1972 96 view .LVU1661
 5045 01a0 44EAC514 		orr	r4, r4, r5, lsl #7
1973:Drivers/STM32F4xx_HAL_Driver/Src/stm32f4xx_ll_usb.c **** 
 5046              		.loc 1 1973 68 view .LVU1662
 5047 01a4 44F00044 		orr	r4, r4, #-2147483648
1972:Drivers/STM32F4xx_HAL_Driver/Src/stm32f4xx_ll_usb.c ****                                         (uint32_t)hc->hub_port_nbr | USB_OTG_HCSPLT_SPLITEN;
 5048              		.loc 1 1972 39 view .LVU1663
 5049 01a8 CEF80440 		str	r4, [lr, #4]
1976:Drivers/STM32F4xx_HAL_Driver/Src/stm32f4xx_ll_usb.c ****                                             USB_OTG_HCINTMSK_NYET);
 5050              		.loc 1 1976 5 is_stmt 1 view .LVU1664
1976:Drivers/STM32F4xx_HAL_Driver/Src/stm32f4xx_ll_usb.c ****                                             USB_OTG_HCINTMSK_NYET);
 5051              		.loc 1 1976 41 is_stmt 0 view .LVU1665
 5052 01ac DEF80C40 		ldr	r4, [lr, #12]
 5053 01b0 44F06004 		orr	r4, r4, #96
 5054 01b4 CEF80C40 		str	r4, [lr, #12]
1979:Drivers/STM32F4xx_HAL_Driver/Src/stm32f4xx_ll_usb.c ****     {
 5055              		.loc 1 1979 5 is_stmt 1 view .LVU1666
1979:Drivers/STM32F4xx_HAL_Driver/Src/stm32f4xx_ll_usb.c ****     {
 5056              		.loc 1 1979 12 is_stmt 0 view .LVU1667
 5057 01b8 CC79     		ldrb	r4, [r1, #7]	@ zero_extendqisi2
1979:Drivers/STM32F4xx_HAL_Driver/Src/stm32f4xx_ll_usb.c ****     {
 5058              		.loc 1 1979 8 view .LVU1668
 5059 01ba 012C     		cmp	r4, #1
 5060 01bc 12D0     		beq	.L339
 5061              	.L315:
1985:Drivers/STM32F4xx_HAL_Driver/Src/stm32f4xx_ll_usb.c ****         (hc->do_csplit == 1U) && (hc->ep_is_in == 1U))
 5062              		.loc 1 1985 5 is_stmt 1 view .LVU1669
1985:Drivers/STM32F4xx_HAL_Driver/Src/stm32f4xx_ll_usb.c ****         (hc->do_csplit == 1U) && (hc->ep_is_in == 1U))
 5063              		.loc 1 1985 13 is_stmt 0 view .LVU1670
 5064 01be 8C7C     		ldrb	r4, [r1, #18]	@ zero_extendqisi2
ARM GAS  /tmp/ccELzqP8.s 			page 151


1985:Drivers/STM32F4xx_HAL_Driver/Src/stm32f4xx_ll_usb.c ****         (hc->do_csplit == 1U) && (hc->ep_is_in == 1U))
 5065              		.loc 1 1985 8 view .LVU1671
 5066 01c0 012C     		cmp	r4, #1
 5067 01c2 1FD0     		beq	.L316
1985:Drivers/STM32F4xx_HAL_Driver/Src/stm32f4xx_ll_usb.c ****         (hc->do_csplit == 1U) && (hc->ep_is_in == 1U))
 5068              		.loc 1 1985 40 discriminator 2 view .LVU1672
 5069 01c4 032C     		cmp	r4, #3
 5070 01c6 1DD0     		beq	.L316
 5071              	.L317:
1992:Drivers/STM32F4xx_HAL_Driver/Src/stm32f4xx_ll_usb.c ****     {
 5072              		.loc 1 1992 5 is_stmt 1 view .LVU1673
1992:Drivers/STM32F4xx_HAL_Driver/Src/stm32f4xx_ll_usb.c ****     {
 5073              		.loc 1 1992 12 is_stmt 0 view .LVU1674
 5074 01c8 8C7C     		ldrb	r4, [r1, #18]	@ zero_extendqisi2
1992:Drivers/STM32F4xx_HAL_Driver/Src/stm32f4xx_ll_usb.c ****     {
 5075              		.loc 1 1992 8 view .LVU1675
 5076 01ca 012C     		cmp	r4, #1
 5077 01cc BBD1     		bne	.L318
1992:Drivers/STM32F4xx_HAL_Driver/Src/stm32f4xx_ll_usb.c ****     {
 5078              		.loc 1 1992 45 discriminator 1 view .LVU1676
 5079 01ce CC78     		ldrb	r4, [r1, #3]	@ zero_extendqisi2
1992:Drivers/STM32F4xx_HAL_Driver/Src/stm32f4xx_ll_usb.c ****     {
 5080              		.loc 1 1992 39 discriminator 1 view .LVU1677
 5081 01d0 002C     		cmp	r4, #0
 5082 01d2 B8D1     		bne	.L318
1995:Drivers/STM32F4xx_HAL_Driver/Src/stm32f4xx_ll_usb.c ****       {
 5083              		.loc 1 1995 7 is_stmt 1 view .LVU1678
1995:Drivers/STM32F4xx_HAL_Driver/Src/stm32f4xx_ll_usb.c ****       {
 5084              		.loc 1 1995 17 is_stmt 0 view .LVU1679
 5085 01d4 CC68     		ldr	r4, [r1, #12]
1995:Drivers/STM32F4xx_HAL_Driver/Src/stm32f4xx_ll_usb.c ****       {
 5086              		.loc 1 1995 7 view .LVU1680
 5087 01d6 013C     		subs	r4, r4, #1
 5088 01d8 032C     		cmp	r4, #3
 5089 01da B4D8     		bhi	.L318
 5090 01dc DFE804F0 		tbb	[pc, r4]
 5091              	.L320:
 5092 01e0 1F       		.byte	(.L323-.L320)/2
 5093 01e1 26       		.byte	(.L322-.L320)/2
 5094 01e2 2D       		.byte	(.L321-.L320)/2
 5095 01e3 34       		.byte	(.L319-.L320)/2
 5096              		.p2align 1
 5097              	.L339:
1979:Drivers/STM32F4xx_HAL_Driver/Src/stm32f4xx_ll_usb.c ****     {
 5098              		.loc 1 1979 37 discriminator 1 view .LVU1681
 5099 01e4 CC78     		ldrb	r4, [r1, #3]	@ zero_extendqisi2
1979:Drivers/STM32F4xx_HAL_Driver/Src/stm32f4xx_ll_usb.c ****     {
 5100              		.loc 1 1979 31 discriminator 1 view .LVU1682
 5101 01e6 002C     		cmp	r4, #0
 5102 01e8 E9D1     		bne	.L315
1981:Drivers/STM32F4xx_HAL_Driver/Src/stm32f4xx_ll_usb.c ****       USBx_HC((uint32_t)ch_num)->HCINTMSK |= USB_OTG_HCINTMSK_NYET;
 5103              		.loc 1 1981 7 is_stmt 1 view .LVU1683
1981:Drivers/STM32F4xx_HAL_Driver/Src/stm32f4xx_ll_usb.c ****       USBx_HC((uint32_t)ch_num)->HCINTMSK |= USB_OTG_HCINTMSK_NYET;
 5104              		.loc 1 1981 41 is_stmt 0 view .LVU1684
 5105 01ea DEF80440 		ldr	r4, [lr, #4]
 5106 01ee 44F48034 		orr	r4, r4, #65536
 5107 01f2 CEF80440 		str	r4, [lr, #4]
ARM GAS  /tmp/ccELzqP8.s 			page 152


1982:Drivers/STM32F4xx_HAL_Driver/Src/stm32f4xx_ll_usb.c ****     }
 5108              		.loc 1 1982 7 is_stmt 1 view .LVU1685
1982:Drivers/STM32F4xx_HAL_Driver/Src/stm32f4xx_ll_usb.c ****     }
 5109              		.loc 1 1982 43 is_stmt 0 view .LVU1686
 5110 01f6 DEF80C40 		ldr	r4, [lr, #12]
 5111 01fa 44F04004 		orr	r4, r4, #64
 5112 01fe CEF80C40 		str	r4, [lr, #12]
 5113 0202 DCE7     		b	.L315
 5114              	.L316:
1986:Drivers/STM32F4xx_HAL_Driver/Src/stm32f4xx_ll_usb.c ****     {
 5115              		.loc 1 1986 12 discriminator 3 view .LVU1687
 5116 0204 CC79     		ldrb	r4, [r1, #7]	@ zero_extendqisi2
1985:Drivers/STM32F4xx_HAL_Driver/Src/stm32f4xx_ll_usb.c ****         (hc->do_csplit == 1U) && (hc->ep_is_in == 1U))
 5117              		.loc 1 1985 74 discriminator 3 view .LVU1688
 5118 0206 012C     		cmp	r4, #1
 5119 0208 DED1     		bne	.L317
1986:Drivers/STM32F4xx_HAL_Driver/Src/stm32f4xx_ll_usb.c ****     {
 5120              		.loc 1 1986 37 view .LVU1689
 5121 020a CC78     		ldrb	r4, [r1, #3]	@ zero_extendqisi2
1986:Drivers/STM32F4xx_HAL_Driver/Src/stm32f4xx_ll_usb.c ****     {
 5122              		.loc 1 1986 31 view .LVU1690
 5123 020c 012C     		cmp	r4, #1
 5124 020e DBD1     		bne	.L317
1988:Drivers/STM32F4xx_HAL_Driver/Src/stm32f4xx_ll_usb.c ****     }
 5125              		.loc 1 1988 7 is_stmt 1 view .LVU1691
1988:Drivers/STM32F4xx_HAL_Driver/Src/stm32f4xx_ll_usb.c ****     }
 5126              		.loc 1 1988 41 is_stmt 0 view .LVU1692
 5127 0210 DEF80440 		ldr	r4, [lr, #4]
 5128 0214 44F48034 		orr	r4, r4, #65536
 5129 0218 CEF80440 		str	r4, [lr, #4]
 5130 021c D4E7     		b	.L317
 5131              	.L323:
1999:Drivers/STM32F4xx_HAL_Driver/Src/stm32f4xx_ll_usb.c ****           break;
 5132              		.loc 1 1999 11 is_stmt 1 view .LVU1693
1999:Drivers/STM32F4xx_HAL_Driver/Src/stm32f4xx_ll_usb.c ****           break;
 5133              		.loc 1 1999 45 is_stmt 0 view .LVU1694
 5134 021e DEF80440 		ldr	r4, [lr, #4]
 5135 0222 44F40044 		orr	r4, r4, #32768
 5136 0226 CEF80440 		str	r4, [lr, #4]
2000:Drivers/STM32F4xx_HAL_Driver/Src/stm32f4xx_ll_usb.c **** 
 5137              		.loc 1 2000 11 is_stmt 1 view .LVU1695
 5138 022a 8CE7     		b	.L318
 5139              	.L322:
2004:Drivers/STM32F4xx_HAL_Driver/Src/stm32f4xx_ll_usb.c ****           break;
 5140              		.loc 1 2004 11 view .LVU1696
2004:Drivers/STM32F4xx_HAL_Driver/Src/stm32f4xx_ll_usb.c ****           break;
 5141              		.loc 1 2004 45 is_stmt 0 view .LVU1697
 5142 022c DEF80440 		ldr	r4, [lr, #4]
 5143 0230 44F00E04 		orr	r4, r4, #14
 5144 0234 CEF80440 		str	r4, [lr, #4]
2005:Drivers/STM32F4xx_HAL_Driver/Src/stm32f4xx_ll_usb.c **** 
 5145              		.loc 1 2005 11 is_stmt 1 view .LVU1698
 5146 0238 85E7     		b	.L318
 5147              	.L321:
2009:Drivers/STM32F4xx_HAL_Driver/Src/stm32f4xx_ll_usb.c ****           break;
 5148              		.loc 1 2009 11 view .LVU1699
2009:Drivers/STM32F4xx_HAL_Driver/Src/stm32f4xx_ll_usb.c ****           break;
ARM GAS  /tmp/ccELzqP8.s 			page 153


 5149              		.loc 1 2009 45 is_stmt 0 view .LVU1700
 5150 023a DEF80440 		ldr	r4, [lr, #4]
 5151 023e 44F48044 		orr	r4, r4, #16384
 5152 0242 CEF80440 		str	r4, [lr, #4]
2010:Drivers/STM32F4xx_HAL_Driver/Src/stm32f4xx_ll_usb.c **** 
 5153              		.loc 1 2010 11 is_stmt 1 view .LVU1701
 5154 0246 7EE7     		b	.L318
 5155              	.L319:
2014:Drivers/STM32F4xx_HAL_Driver/Src/stm32f4xx_ll_usb.c ****           break;
 5156              		.loc 1 2014 11 view .LVU1702
2014:Drivers/STM32F4xx_HAL_Driver/Src/stm32f4xx_ll_usb.c ****           break;
 5157              		.loc 1 2014 45 is_stmt 0 view .LVU1703
 5158 0248 DEF80440 		ldr	r4, [lr, #4]
 5159 024c 44F44044 		orr	r4, r4, #49152
 5160 0250 CEF80440 		str	r4, [lr, #4]
2015:Drivers/STM32F4xx_HAL_Driver/Src/stm32f4xx_ll_usb.c **** 
 5161              		.loc 1 2015 11 is_stmt 1 view .LVU1704
 5162 0254 77E7     		b	.L318
 5163              	.L324:
2039:Drivers/STM32F4xx_HAL_Driver/Src/stm32f4xx_ll_usb.c ****   }
 5164              		.loc 1 2039 5 view .LVU1705
2039:Drivers/STM32F4xx_HAL_Driver/Src/stm32f4xx_ll_usb.c ****   }
 5165              		.loc 1 2039 12 is_stmt 0 view .LVU1706
 5166 0256 039C     		ldr	r4, [sp, #12]
 5167 0258 24F40044 		bic	r4, r4, #32768
 5168 025c 0394     		str	r4, [sp, #12]
 5169 025e 80E7     		b	.L325
 5170              	.LVL384:
 5171              	.L329:
2057:Drivers/STM32F4xx_HAL_Driver/Src/stm32f4xx_ll_usb.c **** 
 5172              		.loc 1 2057 9 is_stmt 1 view .LVU1707
2057:Drivers/STM32F4xx_HAL_Driver/Src/stm32f4xx_ll_usb.c **** 
 5173              		.loc 1 2057 46 is_stmt 0 view .LVU1708
 5174 0260 0333     		adds	r3, r3, #3
 5175              	.LVL385:
2060:Drivers/STM32F4xx_HAL_Driver/Src/stm32f4xx_ll_usb.c ****         {
 5176              		.loc 1 2060 9 is_stmt 1 view .LVU1709
2060:Drivers/STM32F4xx_HAL_Driver/Src/stm32f4xx_ll_usb.c ****         {
 5177              		.loc 1 2060 30 is_stmt 0 view .LVU1710
 5178 0262 C26A     		ldr	r2, [r0, #44]
2060:Drivers/STM32F4xx_HAL_Driver/Src/stm32f4xx_ll_usb.c ****         {
 5179              		.loc 1 2060 41 view .LVU1711
 5180 0264 92B2     		uxth	r2, r2
2060:Drivers/STM32F4xx_HAL_Driver/Src/stm32f4xx_ll_usb.c ****         {
 5181              		.loc 1 2060 12 view .LVU1712
 5182 0266 C3F38F03 		ubfx	r3, r3, #2, #16
 5183              	.LVL386:
2060:Drivers/STM32F4xx_HAL_Driver/Src/stm32f4xx_ll_usb.c ****         {
 5184              		.loc 1 2060 12 view .LVU1713
 5185 026a 9342     		cmp	r3, r2
 5186 026c 03D9     		bls	.L326
2063:Drivers/STM32F4xx_HAL_Driver/Src/stm32f4xx_ll_usb.c ****         }
 5187              		.loc 1 2063 11 is_stmt 1 view .LVU1714
2063:Drivers/STM32F4xx_HAL_Driver/Src/stm32f4xx_ll_usb.c ****         }
 5188              		.loc 1 2063 25 is_stmt 0 view .LVU1715
 5189 026e 8369     		ldr	r3, [r0, #24]
 5190 0270 43F02003 		orr	r3, r3, #32
ARM GAS  /tmp/ccELzqP8.s 			page 154


 5191 0274 8361     		str	r3, [r0, #24]
 5192              	.LVL387:
 5193              	.L326:
2084:Drivers/STM32F4xx_HAL_Driver/Src/stm32f4xx_ll_usb.c ****   }
 5194              		.loc 1 2084 5 is_stmt 1 view .LVU1716
2084:Drivers/STM32F4xx_HAL_Driver/Src/stm32f4xx_ll_usb.c ****   }
 5195              		.loc 1 2084 11 is_stmt 0 view .LVU1717
 5196 0276 0023     		movs	r3, #0
 5197 0278 0093     		str	r3, [sp]
 5198 027a 0B8C     		ldrh	r3, [r1, #32]
 5199 027c 4A78     		ldrb	r2, [r1, #1]	@ zero_extendqisi2
 5200 027e 8969     		ldr	r1, [r1, #24]
 5201              	.LVL388:
2084:Drivers/STM32F4xx_HAL_Driver/Src/stm32f4xx_ll_usb.c ****   }
 5202              		.loc 1 2084 11 view .LVU1718
 5203 0280 FFF7FEFF 		bl	USB_WritePacket
 5204              	.LVL389:
 5205              	.L302:
2088:Drivers/STM32F4xx_HAL_Driver/Src/stm32f4xx_ll_usb.c **** 
 5206              		.loc 1 2088 1 view .LVU1719
 5207 0284 0020     		movs	r0, #0
 5208 0286 04B0     		add	sp, sp, #16
 5209              	.LCFI65:
 5210              		.cfi_remember_state
 5211              		.cfi_def_cfa_offset 16
 5212              		@ sp needed
 5213 0288 70BD     		pop	{r4, r5, r6, pc}
 5214              	.L341:
 5215 028a 00BF     		.align	2
 5216              	.L340:
 5217 028c 00000440 		.word	1074003968
 5218 0290 0000F81F 		.word	536346624
 5219              	.LVL390:
 5220              	.L327:
 5221              	.LCFI66:
 5222              		.cfi_restore_state
2070:Drivers/STM32F4xx_HAL_Driver/Src/stm32f4xx_ll_usb.c ****         /* check if there is enough space in FIFO space */
 5223              		.loc 1 2070 9 is_stmt 1 view .LVU1720
2070:Drivers/STM32F4xx_HAL_Driver/Src/stm32f4xx_ll_usb.c ****         /* check if there is enough space in FIFO space */
 5224              		.loc 1 2070 46 is_stmt 0 view .LVU1721
 5225 0294 0333     		adds	r3, r3, #3
 5226              	.LVL391:
2072:Drivers/STM32F4xx_HAL_Driver/Src/stm32f4xx_ll_usb.c ****         {
 5227              		.loc 1 2072 9 is_stmt 1 view .LVU1722
2072:Drivers/STM32F4xx_HAL_Driver/Src/stm32f4xx_ll_usb.c ****         {
 5228              		.loc 1 2072 35 is_stmt 0 view .LVU1723
 5229 0296 DCF81020 		ldr	r2, [ip, #16]
2072:Drivers/STM32F4xx_HAL_Driver/Src/stm32f4xx_ll_usb.c ****         {
 5230              		.loc 1 2072 45 view .LVU1724
 5231 029a 92B2     		uxth	r2, r2
2072:Drivers/STM32F4xx_HAL_Driver/Src/stm32f4xx_ll_usb.c ****         {
 5232              		.loc 1 2072 12 view .LVU1725
 5233 029c C3F38F03 		ubfx	r3, r3, #2, #16
 5234              	.LVL392:
2072:Drivers/STM32F4xx_HAL_Driver/Src/stm32f4xx_ll_usb.c ****         {
 5235              		.loc 1 2072 12 view .LVU1726
 5236 02a0 9A42     		cmp	r2, r3
ARM GAS  /tmp/ccELzqP8.s 			page 155


 5237 02a2 E8D2     		bcs	.L326
2075:Drivers/STM32F4xx_HAL_Driver/Src/stm32f4xx_ll_usb.c ****         }
 5238              		.loc 1 2075 11 is_stmt 1 view .LVU1727
2075:Drivers/STM32F4xx_HAL_Driver/Src/stm32f4xx_ll_usb.c ****         }
 5239              		.loc 1 2075 25 is_stmt 0 view .LVU1728
 5240 02a4 8369     		ldr	r3, [r0, #24]
 5241 02a6 43F08063 		orr	r3, r3, #67108864
 5242 02aa 8361     		str	r3, [r0, #24]
 5243              	.LVL393:
2075:Drivers/STM32F4xx_HAL_Driver/Src/stm32f4xx_ll_usb.c ****         }
 5244              		.loc 1 2075 25 view .LVU1729
 5245 02ac E3E7     		b	.L326
 5246              		.cfi_endproc
 5247              	.LFE176:
 5249 02ae 00BF     		.section	.text.USB_StopHost,"ax",%progbits
 5250              		.align	1
 5251              		.global	USB_StopHost
 5252              		.syntax unified
 5253              		.thumb
 5254              		.thumb_func
 5255              		.fpu fpv4-sp-d16
 5257              	USB_StopHost:
 5258              	.LVL394:
 5259              	.LFB180:
2211:Drivers/STM32F4xx_HAL_Driver/Src/stm32f4xx_ll_usb.c **** 
2212:Drivers/STM32F4xx_HAL_Driver/Src/stm32f4xx_ll_usb.c **** /**
2213:Drivers/STM32F4xx_HAL_Driver/Src/stm32f4xx_ll_usb.c ****   * @brief  Stop Host Core
2214:Drivers/STM32F4xx_HAL_Driver/Src/stm32f4xx_ll_usb.c ****   * @param  USBx  Selected device
2215:Drivers/STM32F4xx_HAL_Driver/Src/stm32f4xx_ll_usb.c ****   * @retval HAL state
2216:Drivers/STM32F4xx_HAL_Driver/Src/stm32f4xx_ll_usb.c ****   */
2217:Drivers/STM32F4xx_HAL_Driver/Src/stm32f4xx_ll_usb.c **** HAL_StatusTypeDef USB_StopHost(USB_OTG_GlobalTypeDef *USBx)
2218:Drivers/STM32F4xx_HAL_Driver/Src/stm32f4xx_ll_usb.c **** {
 5260              		.loc 1 2218 1 is_stmt 1 view -0
 5261              		.cfi_startproc
 5262              		@ args = 0, pretend = 0, frame = 8
 5263              		@ frame_needed = 0, uses_anonymous_args = 0
 5264              		.loc 1 2218 1 is_stmt 0 view .LVU1731
 5265 0000 30B5     		push	{r4, r5, lr}
 5266              	.LCFI67:
 5267              		.cfi_def_cfa_offset 12
 5268              		.cfi_offset 4, -12
 5269              		.cfi_offset 5, -8
 5270              		.cfi_offset 14, -4
 5271 0002 83B0     		sub	sp, sp, #12
 5272              	.LCFI68:
 5273              		.cfi_def_cfa_offset 24
 5274 0004 0446     		mov	r4, r0
2219:Drivers/STM32F4xx_HAL_Driver/Src/stm32f4xx_ll_usb.c ****   HAL_StatusTypeDef ret = HAL_OK;
 5275              		.loc 1 2219 3 is_stmt 1 view .LVU1732
 5276              	.LVL395:
2220:Drivers/STM32F4xx_HAL_Driver/Src/stm32f4xx_ll_usb.c ****   uint32_t USBx_BASE = (uint32_t)USBx;
 5277              		.loc 1 2220 3 view .LVU1733
2221:Drivers/STM32F4xx_HAL_Driver/Src/stm32f4xx_ll_usb.c ****   __IO uint32_t count = 0U;
 5278              		.loc 1 2221 3 view .LVU1734
 5279              		.loc 1 2221 17 is_stmt 0 view .LVU1735
 5280 0006 0023     		movs	r3, #0
 5281 0008 0193     		str	r3, [sp, #4]
ARM GAS  /tmp/ccELzqP8.s 			page 156


2222:Drivers/STM32F4xx_HAL_Driver/Src/stm32f4xx_ll_usb.c ****   uint32_t value;
 5282              		.loc 1 2222 3 is_stmt 1 view .LVU1736
2223:Drivers/STM32F4xx_HAL_Driver/Src/stm32f4xx_ll_usb.c ****   uint32_t i;
 5283              		.loc 1 2223 3 view .LVU1737
2224:Drivers/STM32F4xx_HAL_Driver/Src/stm32f4xx_ll_usb.c **** 
2225:Drivers/STM32F4xx_HAL_Driver/Src/stm32f4xx_ll_usb.c ****   (void)USB_DisableGlobalInt(USBx);
 5284              		.loc 1 2225 3 view .LVU1738
 5285              		.loc 1 2225 9 is_stmt 0 view .LVU1739
 5286 000a FFF7FEFF 		bl	USB_DisableGlobalInt
 5287              	.LVL396:
2226:Drivers/STM32F4xx_HAL_Driver/Src/stm32f4xx_ll_usb.c **** 
2227:Drivers/STM32F4xx_HAL_Driver/Src/stm32f4xx_ll_usb.c ****   /* Flush USB FIFO */
2228:Drivers/STM32F4xx_HAL_Driver/Src/stm32f4xx_ll_usb.c ****   if (USB_FlushTxFifo(USBx, 0x10U) != HAL_OK) /* all Tx FIFOs */
 5288              		.loc 1 2228 3 is_stmt 1 view .LVU1740
 5289              		.loc 1 2228 7 is_stmt 0 view .LVU1741
 5290 000e 1021     		movs	r1, #16
 5291 0010 2046     		mov	r0, r4
 5292 0012 FFF7FEFF 		bl	USB_FlushTxFifo
 5293              	.LVL397:
 5294              		.loc 1 2228 6 view .LVU1742
 5295 0016 0546     		mov	r5, r0
 5296 0018 00B1     		cbz	r0, .L343
2229:Drivers/STM32F4xx_HAL_Driver/Src/stm32f4xx_ll_usb.c ****   {
2230:Drivers/STM32F4xx_HAL_Driver/Src/stm32f4xx_ll_usb.c ****     ret = HAL_ERROR;
 5297              		.loc 1 2230 9 view .LVU1743
 5298 001a 0125     		movs	r5, #1
 5299              	.L343:
 5300              	.LVL398:
2231:Drivers/STM32F4xx_HAL_Driver/Src/stm32f4xx_ll_usb.c ****   }
2232:Drivers/STM32F4xx_HAL_Driver/Src/stm32f4xx_ll_usb.c **** 
2233:Drivers/STM32F4xx_HAL_Driver/Src/stm32f4xx_ll_usb.c ****   if (USB_FlushRxFifo(USBx) != HAL_OK)
 5301              		.loc 1 2233 3 is_stmt 1 view .LVU1744
 5302              		.loc 1 2233 7 is_stmt 0 view .LVU1745
 5303 001c 2046     		mov	r0, r4
 5304 001e FFF7FEFF 		bl	USB_FlushRxFifo
 5305              	.LVL399:
 5306              		.loc 1 2233 6 view .LVU1746
 5307 0022 00B1     		cbz	r0, .L344
2234:Drivers/STM32F4xx_HAL_Driver/Src/stm32f4xx_ll_usb.c ****   {
2235:Drivers/STM32F4xx_HAL_Driver/Src/stm32f4xx_ll_usb.c ****     ret = HAL_ERROR;
 5308              		.loc 1 2235 9 view .LVU1747
 5309 0024 0125     		movs	r5, #1
 5310              	.LVL400:
 5311              	.L344:
2236:Drivers/STM32F4xx_HAL_Driver/Src/stm32f4xx_ll_usb.c ****   }
2237:Drivers/STM32F4xx_HAL_Driver/Src/stm32f4xx_ll_usb.c **** 
2238:Drivers/STM32F4xx_HAL_Driver/Src/stm32f4xx_ll_usb.c ****   /* Flush out any leftover queued requests. */
2239:Drivers/STM32F4xx_HAL_Driver/Src/stm32f4xx_ll_usb.c ****   for (i = 0U; i <= 15U; i++)
 5312              		.loc 1 2239 3 is_stmt 1 view .LVU1748
 5313              		.loc 1 2239 10 is_stmt 0 view .LVU1749
 5314 0026 0022     		movs	r2, #0
 5315              		.loc 1 2239 3 view .LVU1750
 5316 0028 0AE0     		b	.L345
 5317              	.LVL401:
 5318              	.L346:
2240:Drivers/STM32F4xx_HAL_Driver/Src/stm32f4xx_ll_usb.c ****   {
2241:Drivers/STM32F4xx_HAL_Driver/Src/stm32f4xx_ll_usb.c ****     value = USBx_HC(i)->HCCHAR;
ARM GAS  /tmp/ccELzqP8.s 			page 157


 5319              		.loc 1 2241 5 is_stmt 1 discriminator 3 view .LVU1751
 5320              		.loc 1 2241 13 is_stmt 0 discriminator 3 view .LVU1752
 5321 002a 04EB4211 		add	r1, r4, r2, lsl #5
 5322              		.loc 1 2241 11 discriminator 3 view .LVU1753
 5323 002e D1F80035 		ldr	r3, [r1, #1280]
 5324              	.LVL402:
2242:Drivers/STM32F4xx_HAL_Driver/Src/stm32f4xx_ll_usb.c ****     value |=  USB_OTG_HCCHAR_CHDIS;
 5325              		.loc 1 2242 5 is_stmt 1 discriminator 3 view .LVU1754
2243:Drivers/STM32F4xx_HAL_Driver/Src/stm32f4xx_ll_usb.c ****     value &= ~USB_OTG_HCCHAR_CHENA;
 5326              		.loc 1 2243 5 discriminator 3 view .LVU1755
2244:Drivers/STM32F4xx_HAL_Driver/Src/stm32f4xx_ll_usb.c ****     value &= ~USB_OTG_HCCHAR_EPDIR;
 5327              		.loc 1 2244 5 discriminator 3 view .LVU1756
 5328 0032 23F08023 		bic	r3, r3, #-2147450880
 5329              	.LVL403:
 5330              		.loc 1 2244 11 is_stmt 0 discriminator 3 view .LVU1757
 5331 0036 43F08043 		orr	r3, r3, #1073741824
 5332              	.LVL404:
2245:Drivers/STM32F4xx_HAL_Driver/Src/stm32f4xx_ll_usb.c ****     USBx_HC(i)->HCCHAR = value;
 5333              		.loc 1 2245 5 is_stmt 1 discriminator 3 view .LVU1758
 5334              		.loc 1 2245 24 is_stmt 0 discriminator 3 view .LVU1759
 5335 003a C1F80035 		str	r3, [r1, #1280]
2239:Drivers/STM32F4xx_HAL_Driver/Src/stm32f4xx_ll_usb.c ****   {
 5336              		.loc 1 2239 26 is_stmt 1 discriminator 3 view .LVU1760
2239:Drivers/STM32F4xx_HAL_Driver/Src/stm32f4xx_ll_usb.c ****   {
 5337              		.loc 1 2239 27 is_stmt 0 discriminator 3 view .LVU1761
 5338 003e 0132     		adds	r2, r2, #1
 5339              	.LVL405:
 5340              	.L345:
2239:Drivers/STM32F4xx_HAL_Driver/Src/stm32f4xx_ll_usb.c ****   {
 5341              		.loc 1 2239 16 is_stmt 1 discriminator 1 view .LVU1762
2239:Drivers/STM32F4xx_HAL_Driver/Src/stm32f4xx_ll_usb.c ****   {
 5342              		.loc 1 2239 3 is_stmt 0 discriminator 1 view .LVU1763
 5343 0040 0F2A     		cmp	r2, #15
 5344 0042 F2D9     		bls	.L346
2246:Drivers/STM32F4xx_HAL_Driver/Src/stm32f4xx_ll_usb.c ****   }
2247:Drivers/STM32F4xx_HAL_Driver/Src/stm32f4xx_ll_usb.c **** 
2248:Drivers/STM32F4xx_HAL_Driver/Src/stm32f4xx_ll_usb.c ****   /* Halt all channels to put them into a known state. */
2249:Drivers/STM32F4xx_HAL_Driver/Src/stm32f4xx_ll_usb.c ****   for (i = 0U; i <= 15U; i++)
 5345              		.loc 1 2249 10 view .LVU1764
 5346 0044 0021     		movs	r1, #0
 5347 0046 00E0     		b	.L347
 5348              	.LVL406:
 5349              	.L348:
 5350              		.loc 1 2249 26 is_stmt 1 discriminator 2 view .LVU1765
 5351              		.loc 1 2249 27 is_stmt 0 discriminator 2 view .LVU1766
 5352 0048 0131     		adds	r1, r1, #1
 5353              	.LVL407:
 5354              	.L347:
 5355              		.loc 1 2249 16 is_stmt 1 discriminator 1 view .LVU1767
 5356              		.loc 1 2249 3 is_stmt 0 discriminator 1 view .LVU1768
 5357 004a 0F29     		cmp	r1, #15
 5358 004c 16D8     		bhi	.L354
2250:Drivers/STM32F4xx_HAL_Driver/Src/stm32f4xx_ll_usb.c ****   {
2251:Drivers/STM32F4xx_HAL_Driver/Src/stm32f4xx_ll_usb.c ****     value = USBx_HC(i)->HCCHAR;
 5359              		.loc 1 2251 5 is_stmt 1 view .LVU1769
 5360              		.loc 1 2251 13 is_stmt 0 view .LVU1770
 5361 004e 04EB4110 		add	r0, r4, r1, lsl #5
ARM GAS  /tmp/ccELzqP8.s 			page 158


 5362 0052 00F5A062 		add	r2, r0, #1280
 5363              		.loc 1 2251 11 view .LVU1771
 5364 0056 D0F80035 		ldr	r3, [r0, #1280]
 5365              	.LVL408:
2252:Drivers/STM32F4xx_HAL_Driver/Src/stm32f4xx_ll_usb.c ****     value |= USB_OTG_HCCHAR_CHDIS;
 5366              		.loc 1 2252 5 is_stmt 1 view .LVU1772
2253:Drivers/STM32F4xx_HAL_Driver/Src/stm32f4xx_ll_usb.c ****     value |= USB_OTG_HCCHAR_CHENA;
 5367              		.loc 1 2253 5 view .LVU1773
2254:Drivers/STM32F4xx_HAL_Driver/Src/stm32f4xx_ll_usb.c ****     value &= ~USB_OTG_HCCHAR_EPDIR;
 5368              		.loc 1 2254 5 view .LVU1774
 5369 005a 23F40043 		bic	r3, r3, #32768
 5370              	.LVL409:
 5371              		.loc 1 2254 11 is_stmt 0 view .LVU1775
 5372 005e 43F04043 		orr	r3, r3, #-1073741824
 5373              	.LVL410:
2255:Drivers/STM32F4xx_HAL_Driver/Src/stm32f4xx_ll_usb.c ****     USBx_HC(i)->HCCHAR = value;
 5374              		.loc 1 2255 5 is_stmt 1 view .LVU1776
 5375              		.loc 1 2255 24 is_stmt 0 view .LVU1777
 5376 0062 C0F80035 		str	r3, [r0, #1280]
 5377              	.LVL411:
 5378              	.L349:
2256:Drivers/STM32F4xx_HAL_Driver/Src/stm32f4xx_ll_usb.c **** 
2257:Drivers/STM32F4xx_HAL_Driver/Src/stm32f4xx_ll_usb.c ****     do
 5379              		.loc 1 2257 5 is_stmt 1 view .LVU1778
2258:Drivers/STM32F4xx_HAL_Driver/Src/stm32f4xx_ll_usb.c ****     {
2259:Drivers/STM32F4xx_HAL_Driver/Src/stm32f4xx_ll_usb.c ****       count++;
 5380              		.loc 1 2259 7 view .LVU1779
 5381              		.loc 1 2259 12 is_stmt 0 view .LVU1780
 5382 0066 019B     		ldr	r3, [sp, #4]
 5383 0068 0133     		adds	r3, r3, #1
 5384 006a 0193     		str	r3, [sp, #4]
2260:Drivers/STM32F4xx_HAL_Driver/Src/stm32f4xx_ll_usb.c **** 
2261:Drivers/STM32F4xx_HAL_Driver/Src/stm32f4xx_ll_usb.c ****       if (count > 1000U)
 5385              		.loc 1 2261 7 is_stmt 1 view .LVU1781
 5386              		.loc 1 2261 17 is_stmt 0 view .LVU1782
 5387 006c 019B     		ldr	r3, [sp, #4]
 5388              		.loc 1 2261 10 view .LVU1783
 5389 006e B3F57A7F 		cmp	r3, #1000
 5390 0072 E9D8     		bhi	.L348
2262:Drivers/STM32F4xx_HAL_Driver/Src/stm32f4xx_ll_usb.c ****       {
2263:Drivers/STM32F4xx_HAL_Driver/Src/stm32f4xx_ll_usb.c ****         break;
2264:Drivers/STM32F4xx_HAL_Driver/Src/stm32f4xx_ll_usb.c ****       }
2265:Drivers/STM32F4xx_HAL_Driver/Src/stm32f4xx_ll_usb.c ****     } while ((USBx_HC(i)->HCCHAR & USB_OTG_HCCHAR_CHENA) == USB_OTG_HCCHAR_CHENA);
 5391              		.loc 1 2265 13 is_stmt 1 view .LVU1784
 5392              		.loc 1 2265 25 is_stmt 0 view .LVU1785
 5393 0074 1368     		ldr	r3, [r2]
 5394              		.loc 1 2265 5 view .LVU1786
 5395 0076 002B     		cmp	r3, #0
 5396 0078 F5DB     		blt	.L349
 5397 007a E5E7     		b	.L348
 5398              	.L354:
2266:Drivers/STM32F4xx_HAL_Driver/Src/stm32f4xx_ll_usb.c ****   }
2267:Drivers/STM32F4xx_HAL_Driver/Src/stm32f4xx_ll_usb.c **** 
2268:Drivers/STM32F4xx_HAL_Driver/Src/stm32f4xx_ll_usb.c ****   /* Clear any pending Host interrupts */
2269:Drivers/STM32F4xx_HAL_Driver/Src/stm32f4xx_ll_usb.c ****   USBx_HOST->HAINT = CLEAR_INTERRUPT_MASK;
 5399              		.loc 1 2269 3 is_stmt 1 view .LVU1787
 5400              		.loc 1 2269 20 is_stmt 0 view .LVU1788
ARM GAS  /tmp/ccELzqP8.s 			page 159


 5401 007c 4FF0FF33 		mov	r3, #-1
 5402 0080 C4F81434 		str	r3, [r4, #1044]
2270:Drivers/STM32F4xx_HAL_Driver/Src/stm32f4xx_ll_usb.c ****   USBx->GINTSTS = CLEAR_INTERRUPT_MASK;
 5403              		.loc 1 2270 3 is_stmt 1 view .LVU1789
 5404              		.loc 1 2270 17 is_stmt 0 view .LVU1790
 5405 0084 6361     		str	r3, [r4, #20]
2271:Drivers/STM32F4xx_HAL_Driver/Src/stm32f4xx_ll_usb.c **** 
2272:Drivers/STM32F4xx_HAL_Driver/Src/stm32f4xx_ll_usb.c ****   (void)USB_EnableGlobalInt(USBx);
 5406              		.loc 1 2272 3 is_stmt 1 view .LVU1791
 5407              		.loc 1 2272 9 is_stmt 0 view .LVU1792
 5408 0086 2046     		mov	r0, r4
 5409 0088 FFF7FEFF 		bl	USB_EnableGlobalInt
 5410              	.LVL412:
2273:Drivers/STM32F4xx_HAL_Driver/Src/stm32f4xx_ll_usb.c **** 
2274:Drivers/STM32F4xx_HAL_Driver/Src/stm32f4xx_ll_usb.c ****   return ret;
 5411              		.loc 1 2274 3 is_stmt 1 view .LVU1793
2275:Drivers/STM32F4xx_HAL_Driver/Src/stm32f4xx_ll_usb.c **** }
 5412              		.loc 1 2275 1 is_stmt 0 view .LVU1794
 5413 008c 2846     		mov	r0, r5
 5414 008e 03B0     		add	sp, sp, #12
 5415              	.LCFI69:
 5416              		.cfi_def_cfa_offset 12
 5417              		@ sp needed
 5418 0090 30BD     		pop	{r4, r5, pc}
 5419              		.loc 1 2275 1 view .LVU1795
 5420              		.cfi_endproc
 5421              	.LFE180:
 5423              		.section	.text.USB_ActivateRemoteWakeup,"ax",%progbits
 5424              		.align	1
 5425              		.global	USB_ActivateRemoteWakeup
 5426              		.syntax unified
 5427              		.thumb
 5428              		.thumb_func
 5429              		.fpu fpv4-sp-d16
 5431              	USB_ActivateRemoteWakeup:
 5432              	.LVL413:
 5433              	.LFB181:
2276:Drivers/STM32F4xx_HAL_Driver/Src/stm32f4xx_ll_usb.c **** 
2277:Drivers/STM32F4xx_HAL_Driver/Src/stm32f4xx_ll_usb.c **** /**
2278:Drivers/STM32F4xx_HAL_Driver/Src/stm32f4xx_ll_usb.c ****   * @brief  USB_ActivateRemoteWakeup active remote wakeup signalling
2279:Drivers/STM32F4xx_HAL_Driver/Src/stm32f4xx_ll_usb.c ****   * @param  USBx Selected device
2280:Drivers/STM32F4xx_HAL_Driver/Src/stm32f4xx_ll_usb.c ****   * @retval HAL status
2281:Drivers/STM32F4xx_HAL_Driver/Src/stm32f4xx_ll_usb.c ****   */
2282:Drivers/STM32F4xx_HAL_Driver/Src/stm32f4xx_ll_usb.c **** HAL_StatusTypeDef USB_ActivateRemoteWakeup(const USB_OTG_GlobalTypeDef *USBx)
2283:Drivers/STM32F4xx_HAL_Driver/Src/stm32f4xx_ll_usb.c **** {
 5434              		.loc 1 2283 1 is_stmt 1 view -0
 5435              		.cfi_startproc
 5436              		@ args = 0, pretend = 0, frame = 0
 5437              		@ frame_needed = 0, uses_anonymous_args = 0
 5438              		@ link register save eliminated.
2284:Drivers/STM32F4xx_HAL_Driver/Src/stm32f4xx_ll_usb.c ****   uint32_t USBx_BASE = (uint32_t)USBx;
 5439              		.loc 1 2284 3 view .LVU1797
2285:Drivers/STM32F4xx_HAL_Driver/Src/stm32f4xx_ll_usb.c **** 
2286:Drivers/STM32F4xx_HAL_Driver/Src/stm32f4xx_ll_usb.c ****   if ((USBx_DEVICE->DSTS & USB_OTG_DSTS_SUSPSTS) == USB_OTG_DSTS_SUSPSTS)
 5440              		.loc 1 2286 3 view .LVU1798
 5441              		.loc 1 2286 19 is_stmt 0 view .LVU1799
 5442 0000 D0F80838 		ldr	r3, [r0, #2056]
ARM GAS  /tmp/ccELzqP8.s 			page 160


 5443              		.loc 1 2286 8 view .LVU1800
 5444 0004 00F50060 		add	r0, r0, #2048
 5445              	.LVL414:
 5446              		.loc 1 2286 6 view .LVU1801
 5447 0008 13F0010F 		tst	r3, #1
 5448 000c 03D0     		beq	.L356
2287:Drivers/STM32F4xx_HAL_Driver/Src/stm32f4xx_ll_usb.c ****   {
2288:Drivers/STM32F4xx_HAL_Driver/Src/stm32f4xx_ll_usb.c ****     /* active Remote wakeup signalling */
2289:Drivers/STM32F4xx_HAL_Driver/Src/stm32f4xx_ll_usb.c ****     USBx_DEVICE->DCTL |= USB_OTG_DCTL_RWUSIG;
 5449              		.loc 1 2289 5 is_stmt 1 view .LVU1802
 5450              		.loc 1 2289 23 is_stmt 0 view .LVU1803
 5451 000e 4368     		ldr	r3, [r0, #4]
 5452 0010 43F00103 		orr	r3, r3, #1
 5453 0014 4360     		str	r3, [r0, #4]
 5454              	.L356:
2290:Drivers/STM32F4xx_HAL_Driver/Src/stm32f4xx_ll_usb.c ****   }
2291:Drivers/STM32F4xx_HAL_Driver/Src/stm32f4xx_ll_usb.c **** 
2292:Drivers/STM32F4xx_HAL_Driver/Src/stm32f4xx_ll_usb.c ****   return HAL_OK;
 5455              		.loc 1 2292 3 is_stmt 1 view .LVU1804
2293:Drivers/STM32F4xx_HAL_Driver/Src/stm32f4xx_ll_usb.c **** }
 5456              		.loc 1 2293 1 is_stmt 0 view .LVU1805
 5457 0016 0020     		movs	r0, #0
 5458              	.LVL415:
 5459              		.loc 1 2293 1 view .LVU1806
 5460 0018 7047     		bx	lr
 5461              		.cfi_endproc
 5462              	.LFE181:
 5464              		.section	.text.USB_DeActivateRemoteWakeup,"ax",%progbits
 5465              		.align	1
 5466              		.global	USB_DeActivateRemoteWakeup
 5467              		.syntax unified
 5468              		.thumb
 5469              		.thumb_func
 5470              		.fpu fpv4-sp-d16
 5472              	USB_DeActivateRemoteWakeup:
 5473              	.LVL416:
 5474              	.LFB182:
2294:Drivers/STM32F4xx_HAL_Driver/Src/stm32f4xx_ll_usb.c **** 
2295:Drivers/STM32F4xx_HAL_Driver/Src/stm32f4xx_ll_usb.c **** /**
2296:Drivers/STM32F4xx_HAL_Driver/Src/stm32f4xx_ll_usb.c ****   * @brief  USB_DeActivateRemoteWakeup de-active remote wakeup signalling
2297:Drivers/STM32F4xx_HAL_Driver/Src/stm32f4xx_ll_usb.c ****   * @param  USBx Selected device
2298:Drivers/STM32F4xx_HAL_Driver/Src/stm32f4xx_ll_usb.c ****   * @retval HAL status
2299:Drivers/STM32F4xx_HAL_Driver/Src/stm32f4xx_ll_usb.c ****   */
2300:Drivers/STM32F4xx_HAL_Driver/Src/stm32f4xx_ll_usb.c **** HAL_StatusTypeDef USB_DeActivateRemoteWakeup(const USB_OTG_GlobalTypeDef *USBx)
2301:Drivers/STM32F4xx_HAL_Driver/Src/stm32f4xx_ll_usb.c **** {
 5475              		.loc 1 2301 1 is_stmt 1 view -0
 5476              		.cfi_startproc
 5477              		@ args = 0, pretend = 0, frame = 0
 5478              		@ frame_needed = 0, uses_anonymous_args = 0
 5479              		@ link register save eliminated.
2302:Drivers/STM32F4xx_HAL_Driver/Src/stm32f4xx_ll_usb.c ****   uint32_t USBx_BASE = (uint32_t)USBx;
 5480              		.loc 1 2302 3 view .LVU1808
2303:Drivers/STM32F4xx_HAL_Driver/Src/stm32f4xx_ll_usb.c **** 
2304:Drivers/STM32F4xx_HAL_Driver/Src/stm32f4xx_ll_usb.c ****   /* active Remote wakeup signalling */
2305:Drivers/STM32F4xx_HAL_Driver/Src/stm32f4xx_ll_usb.c ****   USBx_DEVICE->DCTL &= ~(USB_OTG_DCTL_RWUSIG);
 5481              		.loc 1 2305 3 view .LVU1809
 5482              		.loc 1 2305 21 is_stmt 0 view .LVU1810
ARM GAS  /tmp/ccELzqP8.s 			page 161


 5483 0000 D0F80438 		ldr	r3, [r0, #2052]
 5484 0004 23F00103 		bic	r3, r3, #1
 5485 0008 C0F80438 		str	r3, [r0, #2052]
2306:Drivers/STM32F4xx_HAL_Driver/Src/stm32f4xx_ll_usb.c **** 
2307:Drivers/STM32F4xx_HAL_Driver/Src/stm32f4xx_ll_usb.c ****   return HAL_OK;
 5486              		.loc 1 2307 3 is_stmt 1 view .LVU1811
2308:Drivers/STM32F4xx_HAL_Driver/Src/stm32f4xx_ll_usb.c **** }
 5487              		.loc 1 2308 1 is_stmt 0 view .LVU1812
 5488 000c 0020     		movs	r0, #0
 5489              	.LVL417:
 5490              		.loc 1 2308 1 view .LVU1813
 5491 000e 7047     		bx	lr
 5492              		.cfi_endproc
 5493              	.LFE182:
 5495              		.text
 5496              	.Letext0:
 5497              		.file 2 "/usr/lib/gcc/arm-none-eabi/10.3.1/include/stdint.h"
 5498              		.file 3 "Drivers/CMSIS/Include/cmsis_gcc.h"
 5499              		.file 4 "Drivers/CMSIS/Device/ST/STM32F4xx/Include/stm32f446xx.h"
 5500              		.file 5 "Drivers/STM32F4xx_HAL_Driver/Inc/stm32f4xx_hal_def.h"
 5501              		.file 6 "Drivers/STM32F4xx_HAL_Driver/Inc/stm32f4xx_ll_usb.h"
 5502              		.file 7 "Drivers/STM32F4xx_HAL_Driver/Inc/stm32f4xx_hal.h"
ARM GAS  /tmp/ccELzqP8.s 			page 162


DEFINED SYMBOLS
                            *ABS*:0000000000000000 stm32f4xx_ll_usb.c
     /tmp/ccELzqP8.s:18     .text.USB_CoreReset:0000000000000000 $t
     /tmp/ccELzqP8.s:25     .text.USB_CoreReset:0000000000000000 USB_CoreReset
     /tmp/ccELzqP8.s:136    .text.USB_CoreInit:0000000000000000 $t
     /tmp/ccELzqP8.s:143    .text.USB_CoreInit:0000000000000000 USB_CoreInit
     /tmp/ccELzqP8.s:278    .text.USB_SetTurnaroundTime:0000000000000000 $t
     /tmp/ccELzqP8.s:285    .text.USB_SetTurnaroundTime:0000000000000000 USB_SetTurnaroundTime
     /tmp/ccELzqP8.s:465    .text.USB_SetTurnaroundTime:00000000000000a8 $d
     /tmp/ccELzqP8.s:484    .text.USB_EnableGlobalInt:0000000000000000 $t
     /tmp/ccELzqP8.s:491    .text.USB_EnableGlobalInt:0000000000000000 USB_EnableGlobalInt
     /tmp/ccELzqP8.s:514    .text.USB_DisableGlobalInt:0000000000000000 $t
     /tmp/ccELzqP8.s:521    .text.USB_DisableGlobalInt:0000000000000000 USB_DisableGlobalInt
     /tmp/ccELzqP8.s:544    .text.USB_FlushTxFifo:0000000000000000 $t
     /tmp/ccELzqP8.s:551    .text.USB_FlushTxFifo:0000000000000000 USB_FlushTxFifo
     /tmp/ccELzqP8.s:648    .text.USB_FlushRxFifo:0000000000000000 $t
     /tmp/ccELzqP8.s:655    .text.USB_FlushRxFifo:0000000000000000 USB_FlushRxFifo
     /tmp/ccELzqP8.s:748    .text.USB_SetDevSpeed:0000000000000000 $t
     /tmp/ccELzqP8.s:755    .text.USB_SetDevSpeed:0000000000000000 USB_SetDevSpeed
     /tmp/ccELzqP8.s:781    .text.USB_DevInit:0000000000000000 $t
     /tmp/ccELzqP8.s:788    .text.USB_DevInit:0000000000000000 USB_DevInit
     /tmp/ccELzqP8.s:1143   .text.USB_DevInit:0000000000000188 $d
     /tmp/ccELzqP8.s:1148   .text.USB_GetDevSpeed:0000000000000000 $t
     /tmp/ccELzqP8.s:1155   .text.USB_GetDevSpeed:0000000000000000 USB_GetDevSpeed
     /tmp/ccELzqP8.s:1213   .text.USB_ActivateEndpoint:0000000000000000 $t
     /tmp/ccELzqP8.s:1220   .text.USB_ActivateEndpoint:0000000000000000 USB_ActivateEndpoint
     /tmp/ccELzqP8.s:1337   .text.USB_ActivateDedicatedEndpoint:0000000000000000 $t
     /tmp/ccELzqP8.s:1344   .text.USB_ActivateDedicatedEndpoint:0000000000000000 USB_ActivateDedicatedEndpoint
     /tmp/ccELzqP8.s:1469   .text.USB_DeactivateEndpoint:0000000000000000 $t
     /tmp/ccELzqP8.s:1476   .text.USB_DeactivateEndpoint:0000000000000000 USB_DeactivateEndpoint
     /tmp/ccELzqP8.s:1641   .text.USB_DeactivateEndpoint:00000000000000d8 $d
     /tmp/ccELzqP8.s:1647   .text.USB_DeactivateDedicatedEndpoint:0000000000000000 $t
     /tmp/ccELzqP8.s:1654   .text.USB_DeactivateDedicatedEndpoint:0000000000000000 USB_DeactivateDedicatedEndpoint
     /tmp/ccELzqP8.s:1777   .text.USB_EPStopXfer:0000000000000000 $t
     /tmp/ccELzqP8.s:1784   .text.USB_EPStopXfer:0000000000000000 USB_EPStopXfer
     /tmp/ccELzqP8.s:1942   .text.USB_WritePacket:0000000000000000 $t
     /tmp/ccELzqP8.s:1949   .text.USB_WritePacket:0000000000000000 USB_WritePacket
     /tmp/ccELzqP8.s:2020   .text.USB_EPStartXfer:0000000000000000 $t
     /tmp/ccELzqP8.s:2027   .text.USB_EPStartXfer:0000000000000000 USB_EPStartXfer
     /tmp/ccELzqP8.s:2484   .text.USB_EPStartXfer:000000000000024c $d
     /tmp/ccELzqP8.s:2489   .text.USB_ReadPacket:0000000000000000 $t
     /tmp/ccELzqP8.s:2496   .text.USB_ReadPacket:0000000000000000 USB_ReadPacket
     /tmp/ccELzqP8.s:2606   .text.USB_EPSetStall:0000000000000000 $t
     /tmp/ccELzqP8.s:2613   .text.USB_EPSetStall:0000000000000000 USB_EPSetStall
     /tmp/ccELzqP8.s:2694   .text.USB_EPClearStall:0000000000000000 $t
     /tmp/ccELzqP8.s:2701   .text.USB_EPClearStall:0000000000000000 USB_EPClearStall
     /tmp/ccELzqP8.s:2784   .text.USB_StopDevice:0000000000000000 $t
     /tmp/ccELzqP8.s:2791   .text.USB_StopDevice:0000000000000000 USB_StopDevice
     /tmp/ccELzqP8.s:2874   .text.USB_SetDevAddress:0000000000000000 $t
     /tmp/ccELzqP8.s:2881   .text.USB_SetDevAddress:0000000000000000 USB_SetDevAddress
     /tmp/ccELzqP8.s:2916   .text.USB_DevConnect:0000000000000000 $t
     /tmp/ccELzqP8.s:2923   .text.USB_DevConnect:0000000000000000 USB_DevConnect
     /tmp/ccELzqP8.s:2952   .text.USB_DevDisconnect:0000000000000000 $t
     /tmp/ccELzqP8.s:2959   .text.USB_DevDisconnect:0000000000000000 USB_DevDisconnect
     /tmp/ccELzqP8.s:2988   .text.USB_ReadInterrupts:0000000000000000 $t
     /tmp/ccELzqP8.s:2995   .text.USB_ReadInterrupts:0000000000000000 USB_ReadInterrupts
     /tmp/ccELzqP8.s:3022   .text.USB_ReadChInterrupts:0000000000000000 $t
ARM GAS  /tmp/ccELzqP8.s 			page 163


     /tmp/ccELzqP8.s:3029   .text.USB_ReadChInterrupts:0000000000000000 USB_ReadChInterrupts
     /tmp/ccELzqP8.s:3060   .text.USB_ReadDevAllOutEpInterrupt:0000000000000000 $t
     /tmp/ccELzqP8.s:3067   .text.USB_ReadDevAllOutEpInterrupt:0000000000000000 USB_ReadDevAllOutEpInterrupt
     /tmp/ccELzqP8.s:3100   .text.USB_ReadDevAllInEpInterrupt:0000000000000000 $t
     /tmp/ccELzqP8.s:3107   .text.USB_ReadDevAllInEpInterrupt:0000000000000000 USB_ReadDevAllInEpInterrupt
     /tmp/ccELzqP8.s:3140   .text.USB_ReadDevOutEPInterrupt:0000000000000000 $t
     /tmp/ccELzqP8.s:3147   .text.USB_ReadDevOutEPInterrupt:0000000000000000 USB_ReadDevOutEPInterrupt
     /tmp/ccELzqP8.s:3181   .text.USB_ReadDevInEPInterrupt:0000000000000000 $t
     /tmp/ccELzqP8.s:3188   .text.USB_ReadDevInEPInterrupt:0000000000000000 USB_ReadDevInEPInterrupt
     /tmp/ccELzqP8.s:3249   .text.USB_ClearInterrupts:0000000000000000 $t
     /tmp/ccELzqP8.s:3256   .text.USB_ClearInterrupts:0000000000000000 USB_ClearInterrupts
     /tmp/ccELzqP8.s:3275   .text.USB_GetMode:0000000000000000 $t
     /tmp/ccELzqP8.s:3282   .text.USB_GetMode:0000000000000000 USB_GetMode
     /tmp/ccELzqP8.s:3301   .text.USB_SetCurrentMode:0000000000000000 $t
     /tmp/ccELzqP8.s:3308   .text.USB_SetCurrentMode:0000000000000000 USB_SetCurrentMode
     /tmp/ccELzqP8.s:3425   .text.USB_ActivateSetup:0000000000000000 $t
     /tmp/ccELzqP8.s:3432   .text.USB_ActivateSetup:0000000000000000 USB_ActivateSetup
     /tmp/ccELzqP8.s:3462   .text.USB_EP0_OutStart:0000000000000000 $t
     /tmp/ccELzqP8.s:3469   .text.USB_EP0_OutStart:0000000000000000 USB_EP0_OutStart
     /tmp/ccELzqP8.s:3552   .text.USB_EP0_OutStart:000000000000005c $d
     /tmp/ccELzqP8.s:3557   .text.USB_HostInit:0000000000000000 $t
     /tmp/ccELzqP8.s:3564   .text.USB_HostInit:0000000000000000 USB_HostInit
     /tmp/ccELzqP8.s:3765   .text.USB_HostInit:00000000000000e0 $d
     /tmp/ccELzqP8.s:3773   .text.USB_InitFSLSPClkSel:0000000000000000 $t
     /tmp/ccELzqP8.s:3780   .text.USB_InitFSLSPClkSel:0000000000000000 USB_InitFSLSPClkSel
     /tmp/ccELzqP8.s:3842   .text.USB_ResetPort:0000000000000000 $t
     /tmp/ccELzqP8.s:3849   .text.USB_ResetPort:0000000000000000 USB_ResetPort
     /tmp/ccELzqP8.s:3918   .text.USB_DriveVbus:0000000000000000 $t
     /tmp/ccELzqP8.s:3925   .text.USB_DriveVbus:0000000000000000 USB_DriveVbus
     /tmp/ccELzqP8.s:4004   .text.USB_GetHostSpeed:0000000000000000 $t
     /tmp/ccELzqP8.s:4011   .text.USB_GetHostSpeed:0000000000000000 USB_GetHostSpeed
     /tmp/ccELzqP8.s:4049   .text.USB_GetCurrentFrame:0000000000000000 $t
     /tmp/ccELzqP8.s:4056   .text.USB_GetCurrentFrame:0000000000000000 USB_GetCurrentFrame
     /tmp/ccELzqP8.s:4079   .text.USB_HC_Init:0000000000000000 $t
     /tmp/ccELzqP8.s:4086   .text.USB_HC_Init:0000000000000000 USB_HC_Init
     /tmp/ccELzqP8.s:4128   .text.USB_HC_Init:0000000000000022 $d
     /tmp/ccELzqP8.s:4132   .text.USB_HC_Init:0000000000000026 $t
     /tmp/ccELzqP8.s:4332   .text.USB_HC_Init:0000000000000130 $d
     /tmp/ccELzqP8.s:4337   .text.USB_HC_ReadInterrupt:0000000000000000 $t
     /tmp/ccELzqP8.s:4344   .text.USB_HC_ReadInterrupt:0000000000000000 USB_HC_ReadInterrupt
     /tmp/ccELzqP8.s:4367   .text.USB_HC_Halt:0000000000000000 $t
     /tmp/ccELzqP8.s:4374   .text.USB_HC_Halt:0000000000000000 USB_HC_Halt
     /tmp/ccELzqP8.s:4586   .text.USB_DoPing:0000000000000000 $t
     /tmp/ccELzqP8.s:4593   .text.USB_DoPing:0000000000000000 USB_DoPing
     /tmp/ccELzqP8.s:4635   .text.USB_DoPing:0000000000000020 $d
     /tmp/ccELzqP8.s:4640   .text.USB_HC_StartXfer:0000000000000000 $t
     /tmp/ccELzqP8.s:4647   .text.USB_HC_StartXfer:0000000000000000 USB_HC_StartXfer
     /tmp/ccELzqP8.s:5026   .text.USB_HC_StartXfer:0000000000000194 $d
     /tmp/ccELzqP8.s:5031   .text.USB_HC_StartXfer:0000000000000198 $t
     /tmp/ccELzqP8.s:5092   .text.USB_HC_StartXfer:00000000000001e0 $d
     /tmp/ccELzqP8.s:5096   .text.USB_HC_StartXfer:00000000000001e4 $t
     /tmp/ccELzqP8.s:5217   .text.USB_HC_StartXfer:000000000000028c $d
     /tmp/ccELzqP8.s:5225   .text.USB_HC_StartXfer:0000000000000294 $t
     /tmp/ccELzqP8.s:5250   .text.USB_StopHost:0000000000000000 $t
     /tmp/ccELzqP8.s:5257   .text.USB_StopHost:0000000000000000 USB_StopHost
     /tmp/ccELzqP8.s:5424   .text.USB_ActivateRemoteWakeup:0000000000000000 $t
     /tmp/ccELzqP8.s:5431   .text.USB_ActivateRemoteWakeup:0000000000000000 USB_ActivateRemoteWakeup
ARM GAS  /tmp/ccELzqP8.s 			page 164


     /tmp/ccELzqP8.s:5465   .text.USB_DeActivateRemoteWakeup:0000000000000000 $t
     /tmp/ccELzqP8.s:5472   .text.USB_DeActivateRemoteWakeup:0000000000000000 USB_DeActivateRemoteWakeup

UNDEFINED SYMBOLS
HAL_Delay
