ARM GAS  /tmp/ccajjJCX.s 			page 1


   1              		.cpu cortex-m4
   2              		.eabi_attribute 27, 1
   3              		.eabi_attribute 28, 1
   4              		.eabi_attribute 20, 1
   5              		.eabi_attribute 21, 1
   6              		.eabi_attribute 23, 3
   7              		.eabi_attribute 24, 1
   8              		.eabi_attribute 25, 1
   9              		.eabi_attribute 26, 1
  10              		.eabi_attribute 30, 1
  11              		.eabi_attribute 34, 1
  12              		.eabi_attribute 18, 4
  13              		.file	"usart.c"
  14              		.text
  15              	.Ltext0:
  16              		.cfi_sections	.debug_frame
  17              		.section	.text.MX_USART1_UART_Init,"ax",%progbits
  18              		.align	1
  19              		.global	MX_USART1_UART_Init
  20              		.arch armv7e-m
  21              		.syntax unified
  22              		.thumb
  23              		.thumb_func
  24              		.fpu fpv4-sp-d16
  26              	MX_USART1_UART_Init:
  27              	.LFB134:
  28              		.file 1 "Core/Src/usart.c"
   1:Core/Src/usart.c **** /* USER CODE BEGIN Header */
   2:Core/Src/usart.c **** /**
   3:Core/Src/usart.c ****   ******************************************************************************
   4:Core/Src/usart.c ****   * @file    usart.c
   5:Core/Src/usart.c ****   * @brief   This file provides code for the configuration
   6:Core/Src/usart.c ****   *          of the USART instances.
   7:Core/Src/usart.c ****   ******************************************************************************
   8:Core/Src/usart.c ****   * @attention
   9:Core/Src/usart.c ****   *
  10:Core/Src/usart.c ****   * Copyright (c) 2025 STMicroelectronics.
  11:Core/Src/usart.c ****   * All rights reserved.
  12:Core/Src/usart.c ****   *
  13:Core/Src/usart.c ****   * This software is licensed under terms that can be found in the LICENSE file
  14:Core/Src/usart.c ****   * in the root directory of this software component.
  15:Core/Src/usart.c ****   * If no LICENSE file comes with this software, it is provided AS-IS.
  16:Core/Src/usart.c ****   *
  17:Core/Src/usart.c ****   ******************************************************************************
  18:Core/Src/usart.c ****   */
  19:Core/Src/usart.c **** /* USER CODE END Header */
  20:Core/Src/usart.c **** /* Includes ------------------------------------------------------------------*/
  21:Core/Src/usart.c **** #include "usart.h"
  22:Core/Src/usart.c **** 
  23:Core/Src/usart.c **** /* USER CODE BEGIN 0 */
  24:Core/Src/usart.c **** 
  25:Core/Src/usart.c **** /* USER CODE END 0 */
  26:Core/Src/usart.c **** 
  27:Core/Src/usart.c **** UART_HandleTypeDef huart1;
  28:Core/Src/usart.c **** 
  29:Core/Src/usart.c **** /* USART1 init function */
  30:Core/Src/usart.c **** 
ARM GAS  /tmp/ccajjJCX.s 			page 2


  31:Core/Src/usart.c **** void MX_USART1_UART_Init(void)
  32:Core/Src/usart.c **** {
  29              		.loc 1 32 1 view -0
  30              		.cfi_startproc
  31              		@ args = 0, pretend = 0, frame = 0
  32              		@ frame_needed = 0, uses_anonymous_args = 0
  33 0000 08B5     		push	{r3, lr}
  34              	.LCFI0:
  35              		.cfi_def_cfa_offset 8
  36              		.cfi_offset 3, -8
  37              		.cfi_offset 14, -4
  33:Core/Src/usart.c **** 
  34:Core/Src/usart.c ****   /* USER CODE BEGIN USART1_Init 0 */
  35:Core/Src/usart.c **** 
  36:Core/Src/usart.c ****   /* USER CODE END USART1_Init 0 */
  37:Core/Src/usart.c **** 
  38:Core/Src/usart.c ****   /* USER CODE BEGIN USART1_Init 1 */
  39:Core/Src/usart.c **** 
  40:Core/Src/usart.c ****   /* USER CODE END USART1_Init 1 */
  41:Core/Src/usart.c ****   huart1.Instance = USART1;
  38              		.loc 1 41 3 view .LVU1
  39              		.loc 1 41 19 is_stmt 0 view .LVU2
  40 0002 0A48     		ldr	r0, .L5
  41 0004 0A4B     		ldr	r3, .L5+4
  42 0006 0360     		str	r3, [r0]
  42:Core/Src/usart.c ****   huart1.Init.BaudRate = 460800;
  43              		.loc 1 42 3 is_stmt 1 view .LVU3
  44              		.loc 1 42 24 is_stmt 0 view .LVU4
  45 0008 4FF4E123 		mov	r3, #460800
  46 000c 4360     		str	r3, [r0, #4]
  43:Core/Src/usart.c ****   huart1.Init.WordLength = UART_WORDLENGTH_8B;
  47              		.loc 1 43 3 is_stmt 1 view .LVU5
  48              		.loc 1 43 26 is_stmt 0 view .LVU6
  49 000e 0023     		movs	r3, #0
  50 0010 8360     		str	r3, [r0, #8]
  44:Core/Src/usart.c ****   huart1.Init.StopBits = UART_STOPBITS_1;
  51              		.loc 1 44 3 is_stmt 1 view .LVU7
  52              		.loc 1 44 24 is_stmt 0 view .LVU8
  53 0012 C360     		str	r3, [r0, #12]
  45:Core/Src/usart.c ****   huart1.Init.Parity = UART_PARITY_NONE;
  54              		.loc 1 45 3 is_stmt 1 view .LVU9
  55              		.loc 1 45 22 is_stmt 0 view .LVU10
  56 0014 0361     		str	r3, [r0, #16]
  46:Core/Src/usart.c ****   huart1.Init.Mode = UART_MODE_TX_RX;
  57              		.loc 1 46 3 is_stmt 1 view .LVU11
  58              		.loc 1 46 20 is_stmt 0 view .LVU12
  59 0016 0C22     		movs	r2, #12
  60 0018 4261     		str	r2, [r0, #20]
  47:Core/Src/usart.c ****   huart1.Init.HwFlowCtl = UART_HWCONTROL_NONE;
  61              		.loc 1 47 3 is_stmt 1 view .LVU13
  62              		.loc 1 47 25 is_stmt 0 view .LVU14
  63 001a 8361     		str	r3, [r0, #24]
  48:Core/Src/usart.c ****   huart1.Init.OverSampling = UART_OVERSAMPLING_16;
  64              		.loc 1 48 3 is_stmt 1 view .LVU15
  65              		.loc 1 48 28 is_stmt 0 view .LVU16
  66 001c C361     		str	r3, [r0, #28]
  49:Core/Src/usart.c ****   if (HAL_UART_Init(&huart1) != HAL_OK)
ARM GAS  /tmp/ccajjJCX.s 			page 3


  67              		.loc 1 49 3 is_stmt 1 view .LVU17
  68              		.loc 1 49 7 is_stmt 0 view .LVU18
  69 001e FFF7FEFF 		bl	HAL_UART_Init
  70              	.LVL0:
  71              		.loc 1 49 6 view .LVU19
  72 0022 00B9     		cbnz	r0, .L4
  73              	.L1:
  50:Core/Src/usart.c ****   {
  51:Core/Src/usart.c ****     Error_Handler();
  52:Core/Src/usart.c ****   }
  53:Core/Src/usart.c ****   /* USER CODE BEGIN USART1_Init 2 */
  54:Core/Src/usart.c **** 
  55:Core/Src/usart.c ****   /* USER CODE END USART1_Init 2 */
  56:Core/Src/usart.c **** 
  57:Core/Src/usart.c **** }
  74              		.loc 1 57 1 view .LVU20
  75 0024 08BD     		pop	{r3, pc}
  76              	.L4:
  51:Core/Src/usart.c ****   }
  77              		.loc 1 51 5 is_stmt 1 view .LVU21
  78 0026 FFF7FEFF 		bl	Error_Handler
  79              	.LVL1:
  80              		.loc 1 57 1 is_stmt 0 view .LVU22
  81 002a FBE7     		b	.L1
  82              	.L6:
  83              		.align	2
  84              	.L5:
  85 002c 00000000 		.word	.LANCHOR0
  86 0030 00100140 		.word	1073811456
  87              		.cfi_endproc
  88              	.LFE134:
  90              		.section	.text.HAL_UART_MspInit,"ax",%progbits
  91              		.align	1
  92              		.global	HAL_UART_MspInit
  93              		.syntax unified
  94              		.thumb
  95              		.thumb_func
  96              		.fpu fpv4-sp-d16
  98              	HAL_UART_MspInit:
  99              	.LVL2:
 100              	.LFB135:
  58:Core/Src/usart.c **** 
  59:Core/Src/usart.c **** void HAL_UART_MspInit(UART_HandleTypeDef* uartHandle)
  60:Core/Src/usart.c **** {
 101              		.loc 1 60 1 is_stmt 1 view -0
 102              		.cfi_startproc
 103              		@ args = 0, pretend = 0, frame = 32
 104              		@ frame_needed = 0, uses_anonymous_args = 0
 105              		.loc 1 60 1 is_stmt 0 view .LVU24
 106 0000 F0B5     		push	{r4, r5, r6, r7, lr}
 107              	.LCFI1:
 108              		.cfi_def_cfa_offset 20
 109              		.cfi_offset 4, -20
 110              		.cfi_offset 5, -16
 111              		.cfi_offset 6, -12
 112              		.cfi_offset 7, -8
 113              		.cfi_offset 14, -4
ARM GAS  /tmp/ccajjJCX.s 			page 4


 114 0002 89B0     		sub	sp, sp, #36
 115              	.LCFI2:
 116              		.cfi_def_cfa_offset 56
  61:Core/Src/usart.c **** 
  62:Core/Src/usart.c ****   GPIO_InitTypeDef GPIO_InitStruct = {0};
 117              		.loc 1 62 3 is_stmt 1 view .LVU25
 118              		.loc 1 62 20 is_stmt 0 view .LVU26
 119 0004 0023     		movs	r3, #0
 120 0006 0393     		str	r3, [sp, #12]
 121 0008 0493     		str	r3, [sp, #16]
 122 000a 0593     		str	r3, [sp, #20]
 123 000c 0693     		str	r3, [sp, #24]
 124 000e 0793     		str	r3, [sp, #28]
  63:Core/Src/usart.c ****   if(uartHandle->Instance==USART1)
 125              		.loc 1 63 3 is_stmt 1 view .LVU27
 126              		.loc 1 63 16 is_stmt 0 view .LVU28
 127 0010 0268     		ldr	r2, [r0]
 128              		.loc 1 63 5 view .LVU29
 129 0012 03F18043 		add	r3, r3, #1073741824
 130 0016 03F58833 		add	r3, r3, #69632
 131 001a 9A42     		cmp	r2, r3
 132 001c 01D0     		beq	.L10
 133              	.LVL3:
 134              	.L7:
  64:Core/Src/usart.c ****   {
  65:Core/Src/usart.c ****   /* USER CODE BEGIN USART1_MspInit 0 */
  66:Core/Src/usart.c **** 
  67:Core/Src/usart.c ****   /* USER CODE END USART1_MspInit 0 */
  68:Core/Src/usart.c ****     /* USART1 clock enable */
  69:Core/Src/usart.c ****     __HAL_RCC_USART1_CLK_ENABLE();
  70:Core/Src/usart.c **** 
  71:Core/Src/usart.c ****     __HAL_RCC_GPIOA_CLK_ENABLE();
  72:Core/Src/usart.c ****     __HAL_RCC_GPIOB_CLK_ENABLE();
  73:Core/Src/usart.c ****     /**USART1 GPIO Configuration
  74:Core/Src/usart.c ****     PA9     ------> USART1_TX
  75:Core/Src/usart.c ****     PB7     ------> USART1_RX
  76:Core/Src/usart.c ****     */
  77:Core/Src/usart.c ****     GPIO_InitStruct.Pin = GPIO_PIN_9;
  78:Core/Src/usart.c ****     GPIO_InitStruct.Mode = GPIO_MODE_AF_PP;
  79:Core/Src/usart.c ****     GPIO_InitStruct.Pull = GPIO_NOPULL;
  80:Core/Src/usart.c ****     GPIO_InitStruct.Speed = GPIO_SPEED_FREQ_VERY_HIGH;
  81:Core/Src/usart.c ****     GPIO_InitStruct.Alternate = GPIO_AF7_USART1;
  82:Core/Src/usart.c ****     HAL_GPIO_Init(GPIOA, &GPIO_InitStruct);
  83:Core/Src/usart.c **** 
  84:Core/Src/usart.c ****     GPIO_InitStruct.Pin = GPIO_PIN_7;
  85:Core/Src/usart.c ****     GPIO_InitStruct.Mode = GPIO_MODE_AF_PP;
  86:Core/Src/usart.c ****     GPIO_InitStruct.Pull = GPIO_NOPULL;
  87:Core/Src/usart.c ****     GPIO_InitStruct.Speed = GPIO_SPEED_FREQ_VERY_HIGH;
  88:Core/Src/usart.c ****     GPIO_InitStruct.Alternate = GPIO_AF7_USART1;
  89:Core/Src/usart.c ****     HAL_GPIO_Init(GPIOB, &GPIO_InitStruct);
  90:Core/Src/usart.c **** 
  91:Core/Src/usart.c ****   /* USER CODE BEGIN USART1_MspInit 1 */
  92:Core/Src/usart.c **** 
  93:Core/Src/usart.c ****   /* USER CODE END USART1_MspInit 1 */
  94:Core/Src/usart.c ****   }
  95:Core/Src/usart.c **** }
 135              		.loc 1 95 1 view .LVU30
ARM GAS  /tmp/ccajjJCX.s 			page 5


 136 001e 09B0     		add	sp, sp, #36
 137              	.LCFI3:
 138              		.cfi_remember_state
 139              		.cfi_def_cfa_offset 20
 140              		@ sp needed
 141 0020 F0BD     		pop	{r4, r5, r6, r7, pc}
 142              	.LVL4:
 143              	.L10:
 144              	.LCFI4:
 145              		.cfi_restore_state
  69:Core/Src/usart.c **** 
 146              		.loc 1 69 5 is_stmt 1 view .LVU31
 147              	.LBB2:
  69:Core/Src/usart.c **** 
 148              		.loc 1 69 5 view .LVU32
 149 0022 0024     		movs	r4, #0
 150 0024 0094     		str	r4, [sp]
  69:Core/Src/usart.c **** 
 151              		.loc 1 69 5 view .LVU33
 152 0026 03F59433 		add	r3, r3, #75776
 153 002a 5A6C     		ldr	r2, [r3, #68]
 154 002c 42F01002 		orr	r2, r2, #16
 155 0030 5A64     		str	r2, [r3, #68]
  69:Core/Src/usart.c **** 
 156              		.loc 1 69 5 view .LVU34
 157 0032 5A6C     		ldr	r2, [r3, #68]
 158 0034 02F01002 		and	r2, r2, #16
 159 0038 0092     		str	r2, [sp]
  69:Core/Src/usart.c **** 
 160              		.loc 1 69 5 view .LVU35
 161 003a 009A     		ldr	r2, [sp]
 162              	.LBE2:
  69:Core/Src/usart.c **** 
 163              		.loc 1 69 5 view .LVU36
  71:Core/Src/usart.c ****     __HAL_RCC_GPIOB_CLK_ENABLE();
 164              		.loc 1 71 5 view .LVU37
 165              	.LBB3:
  71:Core/Src/usart.c ****     __HAL_RCC_GPIOB_CLK_ENABLE();
 166              		.loc 1 71 5 view .LVU38
 167 003c 0194     		str	r4, [sp, #4]
  71:Core/Src/usart.c ****     __HAL_RCC_GPIOB_CLK_ENABLE();
 168              		.loc 1 71 5 view .LVU39
 169 003e 1A6B     		ldr	r2, [r3, #48]
 170 0040 42F00102 		orr	r2, r2, #1
 171 0044 1A63     		str	r2, [r3, #48]
  71:Core/Src/usart.c ****     __HAL_RCC_GPIOB_CLK_ENABLE();
 172              		.loc 1 71 5 view .LVU40
 173 0046 1A6B     		ldr	r2, [r3, #48]
 174 0048 02F00102 		and	r2, r2, #1
 175 004c 0192     		str	r2, [sp, #4]
  71:Core/Src/usart.c ****     __HAL_RCC_GPIOB_CLK_ENABLE();
 176              		.loc 1 71 5 view .LVU41
 177 004e 019A     		ldr	r2, [sp, #4]
 178              	.LBE3:
  71:Core/Src/usart.c ****     __HAL_RCC_GPIOB_CLK_ENABLE();
 179              		.loc 1 71 5 view .LVU42
  72:Core/Src/usart.c ****     /**USART1 GPIO Configuration
ARM GAS  /tmp/ccajjJCX.s 			page 6


 180              		.loc 1 72 5 view .LVU43
 181              	.LBB4:
  72:Core/Src/usart.c ****     /**USART1 GPIO Configuration
 182              		.loc 1 72 5 view .LVU44
 183 0050 0294     		str	r4, [sp, #8]
  72:Core/Src/usart.c ****     /**USART1 GPIO Configuration
 184              		.loc 1 72 5 view .LVU45
 185 0052 1A6B     		ldr	r2, [r3, #48]
 186 0054 42F00202 		orr	r2, r2, #2
 187 0058 1A63     		str	r2, [r3, #48]
  72:Core/Src/usart.c ****     /**USART1 GPIO Configuration
 188              		.loc 1 72 5 view .LVU46
 189 005a 1B6B     		ldr	r3, [r3, #48]
 190 005c 03F00203 		and	r3, r3, #2
 191 0060 0293     		str	r3, [sp, #8]
  72:Core/Src/usart.c ****     /**USART1 GPIO Configuration
 192              		.loc 1 72 5 view .LVU47
 193 0062 029B     		ldr	r3, [sp, #8]
 194              	.LBE4:
  72:Core/Src/usart.c ****     /**USART1 GPIO Configuration
 195              		.loc 1 72 5 view .LVU48
  77:Core/Src/usart.c ****     GPIO_InitStruct.Mode = GPIO_MODE_AF_PP;
 196              		.loc 1 77 5 view .LVU49
  77:Core/Src/usart.c ****     GPIO_InitStruct.Mode = GPIO_MODE_AF_PP;
 197              		.loc 1 77 25 is_stmt 0 view .LVU50
 198 0064 4FF40073 		mov	r3, #512
 199 0068 0393     		str	r3, [sp, #12]
  78:Core/Src/usart.c ****     GPIO_InitStruct.Pull = GPIO_NOPULL;
 200              		.loc 1 78 5 is_stmt 1 view .LVU51
  78:Core/Src/usart.c ****     GPIO_InitStruct.Pull = GPIO_NOPULL;
 201              		.loc 1 78 26 is_stmt 0 view .LVU52
 202 006a 0227     		movs	r7, #2
 203 006c 0497     		str	r7, [sp, #16]
  79:Core/Src/usart.c ****     GPIO_InitStruct.Speed = GPIO_SPEED_FREQ_VERY_HIGH;
 204              		.loc 1 79 5 is_stmt 1 view .LVU53
  80:Core/Src/usart.c ****     GPIO_InitStruct.Alternate = GPIO_AF7_USART1;
 205              		.loc 1 80 5 view .LVU54
  80:Core/Src/usart.c ****     GPIO_InitStruct.Alternate = GPIO_AF7_USART1;
 206              		.loc 1 80 27 is_stmt 0 view .LVU55
 207 006e 0326     		movs	r6, #3
 208 0070 0696     		str	r6, [sp, #24]
  81:Core/Src/usart.c ****     HAL_GPIO_Init(GPIOA, &GPIO_InitStruct);
 209              		.loc 1 81 5 is_stmt 1 view .LVU56
  81:Core/Src/usart.c ****     HAL_GPIO_Init(GPIOA, &GPIO_InitStruct);
 210              		.loc 1 81 31 is_stmt 0 view .LVU57
 211 0072 0725     		movs	r5, #7
 212 0074 0795     		str	r5, [sp, #28]
  82:Core/Src/usart.c **** 
 213              		.loc 1 82 5 is_stmt 1 view .LVU58
 214 0076 03A9     		add	r1, sp, #12
 215 0078 0648     		ldr	r0, .L11
 216              	.LVL5:
  82:Core/Src/usart.c **** 
 217              		.loc 1 82 5 is_stmt 0 view .LVU59
 218 007a FFF7FEFF 		bl	HAL_GPIO_Init
 219              	.LVL6:
  84:Core/Src/usart.c ****     GPIO_InitStruct.Mode = GPIO_MODE_AF_PP;
ARM GAS  /tmp/ccajjJCX.s 			page 7


 220              		.loc 1 84 5 is_stmt 1 view .LVU60
  84:Core/Src/usart.c ****     GPIO_InitStruct.Mode = GPIO_MODE_AF_PP;
 221              		.loc 1 84 25 is_stmt 0 view .LVU61
 222 007e 8023     		movs	r3, #128
 223 0080 0393     		str	r3, [sp, #12]
  85:Core/Src/usart.c ****     GPIO_InitStruct.Pull = GPIO_NOPULL;
 224              		.loc 1 85 5 is_stmt 1 view .LVU62
  85:Core/Src/usart.c ****     GPIO_InitStruct.Pull = GPIO_NOPULL;
 225              		.loc 1 85 26 is_stmt 0 view .LVU63
 226 0082 0497     		str	r7, [sp, #16]
  86:Core/Src/usart.c ****     GPIO_InitStruct.Speed = GPIO_SPEED_FREQ_VERY_HIGH;
 227              		.loc 1 86 5 is_stmt 1 view .LVU64
  86:Core/Src/usart.c ****     GPIO_InitStruct.Speed = GPIO_SPEED_FREQ_VERY_HIGH;
 228              		.loc 1 86 26 is_stmt 0 view .LVU65
 229 0084 0594     		str	r4, [sp, #20]
  87:Core/Src/usart.c ****     GPIO_InitStruct.Alternate = GPIO_AF7_USART1;
 230              		.loc 1 87 5 is_stmt 1 view .LVU66
  87:Core/Src/usart.c ****     GPIO_InitStruct.Alternate = GPIO_AF7_USART1;
 231              		.loc 1 87 27 is_stmt 0 view .LVU67
 232 0086 0696     		str	r6, [sp, #24]
  88:Core/Src/usart.c ****     HAL_GPIO_Init(GPIOB, &GPIO_InitStruct);
 233              		.loc 1 88 5 is_stmt 1 view .LVU68
  88:Core/Src/usart.c ****     HAL_GPIO_Init(GPIOB, &GPIO_InitStruct);
 234              		.loc 1 88 31 is_stmt 0 view .LVU69
 235 0088 0795     		str	r5, [sp, #28]
  89:Core/Src/usart.c **** 
 236              		.loc 1 89 5 is_stmt 1 view .LVU70
 237 008a 03A9     		add	r1, sp, #12
 238 008c 0248     		ldr	r0, .L11+4
 239 008e FFF7FEFF 		bl	HAL_GPIO_Init
 240              	.LVL7:
 241              		.loc 1 95 1 is_stmt 0 view .LVU71
 242 0092 C4E7     		b	.L7
 243              	.L12:
 244              		.align	2
 245              	.L11:
 246 0094 00000240 		.word	1073872896
 247 0098 00040240 		.word	1073873920
 248              		.cfi_endproc
 249              	.LFE135:
 251              		.section	.text.HAL_UART_MspDeInit,"ax",%progbits
 252              		.align	1
 253              		.global	HAL_UART_MspDeInit
 254              		.syntax unified
 255              		.thumb
 256              		.thumb_func
 257              		.fpu fpv4-sp-d16
 259              	HAL_UART_MspDeInit:
 260              	.LVL8:
 261              	.LFB136:
  96:Core/Src/usart.c **** 
  97:Core/Src/usart.c **** void HAL_UART_MspDeInit(UART_HandleTypeDef* uartHandle)
  98:Core/Src/usart.c **** {
 262              		.loc 1 98 1 is_stmt 1 view -0
 263              		.cfi_startproc
 264              		@ args = 0, pretend = 0, frame = 0
 265              		@ frame_needed = 0, uses_anonymous_args = 0
ARM GAS  /tmp/ccajjJCX.s 			page 8


 266              		.loc 1 98 1 is_stmt 0 view .LVU73
 267 0000 08B5     		push	{r3, lr}
 268              	.LCFI5:
 269              		.cfi_def_cfa_offset 8
 270              		.cfi_offset 3, -8
 271              		.cfi_offset 14, -4
  99:Core/Src/usart.c **** 
 100:Core/Src/usart.c ****   if(uartHandle->Instance==USART1)
 272              		.loc 1 100 3 is_stmt 1 view .LVU74
 273              		.loc 1 100 16 is_stmt 0 view .LVU75
 274 0002 0268     		ldr	r2, [r0]
 275              		.loc 1 100 5 view .LVU76
 276 0004 094B     		ldr	r3, .L17
 277 0006 9A42     		cmp	r2, r3
 278 0008 00D0     		beq	.L16
 279              	.LVL9:
 280              	.L13:
 101:Core/Src/usart.c ****   {
 102:Core/Src/usart.c ****   /* USER CODE BEGIN USART1_MspDeInit 0 */
 103:Core/Src/usart.c **** 
 104:Core/Src/usart.c ****   /* USER CODE END USART1_MspDeInit 0 */
 105:Core/Src/usart.c ****     /* Peripheral clock disable */
 106:Core/Src/usart.c ****     __HAL_RCC_USART1_CLK_DISABLE();
 107:Core/Src/usart.c **** 
 108:Core/Src/usart.c ****     /**USART1 GPIO Configuration
 109:Core/Src/usart.c ****     PA9     ------> USART1_TX
 110:Core/Src/usart.c ****     PB7     ------> USART1_RX
 111:Core/Src/usart.c ****     */
 112:Core/Src/usart.c ****     HAL_GPIO_DeInit(GPIOA, GPIO_PIN_9);
 113:Core/Src/usart.c **** 
 114:Core/Src/usart.c ****     HAL_GPIO_DeInit(GPIOB, GPIO_PIN_7);
 115:Core/Src/usart.c **** 
 116:Core/Src/usart.c ****   /* USER CODE BEGIN USART1_MspDeInit 1 */
 117:Core/Src/usart.c **** 
 118:Core/Src/usart.c ****   /* USER CODE END USART1_MspDeInit 1 */
 119:Core/Src/usart.c ****   }
 120:Core/Src/usart.c **** }
 281              		.loc 1 120 1 view .LVU77
 282 000a 08BD     		pop	{r3, pc}
 283              	.LVL10:
 284              	.L16:
 106:Core/Src/usart.c **** 
 285              		.loc 1 106 5 is_stmt 1 view .LVU78
 286 000c 084A     		ldr	r2, .L17+4
 287 000e 536C     		ldr	r3, [r2, #68]
 288 0010 23F01003 		bic	r3, r3, #16
 289 0014 5364     		str	r3, [r2, #68]
 112:Core/Src/usart.c **** 
 290              		.loc 1 112 5 view .LVU79
 291 0016 4FF40071 		mov	r1, #512
 292 001a 0648     		ldr	r0, .L17+8
 293              	.LVL11:
 112:Core/Src/usart.c **** 
 294              		.loc 1 112 5 is_stmt 0 view .LVU80
 295 001c FFF7FEFF 		bl	HAL_GPIO_DeInit
 296              	.LVL12:
 114:Core/Src/usart.c **** 
ARM GAS  /tmp/ccajjJCX.s 			page 9


 297              		.loc 1 114 5 is_stmt 1 view .LVU81
 298 0020 8021     		movs	r1, #128
 299 0022 0548     		ldr	r0, .L17+12
 300 0024 FFF7FEFF 		bl	HAL_GPIO_DeInit
 301              	.LVL13:
 302              		.loc 1 120 1 is_stmt 0 view .LVU82
 303 0028 EFE7     		b	.L13
 304              	.L18:
 305 002a 00BF     		.align	2
 306              	.L17:
 307 002c 00100140 		.word	1073811456
 308 0030 00380240 		.word	1073887232
 309 0034 00000240 		.word	1073872896
 310 0038 00040240 		.word	1073873920
 311              		.cfi_endproc
 312              	.LFE136:
 314              		.global	huart1
 315              		.section	.bss.huart1,"aw",%nobits
 316              		.align	2
 317              		.set	.LANCHOR0,. + 0
 320              	huart1:
 321 0000 00000000 		.space	72
 321      00000000 
 321      00000000 
 321      00000000 
 321      00000000 
 322              		.text
 323              	.Letext0:
 324              		.file 2 "/usr/lib/gcc/arm-none-eabi/10.3.1/include/stdint.h"
 325              		.file 3 "Drivers/CMSIS/Device/ST/STM32F4xx/Include/stm32f446xx.h"
 326              		.file 4 "Drivers/STM32F4xx_HAL_Driver/Inc/stm32f4xx_hal_def.h"
 327              		.file 5 "Drivers/STM32F4xx_HAL_Driver/Inc/stm32f4xx_hal_gpio.h"
 328              		.file 6 "Drivers/STM32F4xx_HAL_Driver/Inc/stm32f4xx_hal_dma.h"
 329              		.file 7 "Drivers/STM32F4xx_HAL_Driver/Inc/stm32f4xx_hal_uart.h"
 330              		.file 8 "Core/Inc/main.h"
 331              		.file 9 "Core/Inc/usart.h"
ARM GAS  /tmp/ccajjJCX.s 			page 10

