ARM GAS  /tmp/ccCaeJ1V.s 			page 1


   1              		.cpu cortex-m4
   2              		.eabi_attribute 27, 1
   3              		.eabi_attribute 28, 1
   4              		.eabi_attribute 20, 1
   5              		.eabi_attribute 21, 1
   6              		.eabi_attribute 23, 3
   7              		.eabi_attribute 24, 1
   8              		.eabi_attribute 25, 1
   9              		.eabi_attribute 26, 1
  10              		.eabi_attribute 30, 1
  11              		.eabi_attribute 34, 1
  12              		.eabi_attribute 18, 4
  13              		.file	"usbd_conf.c"
  14              		.text
  15              	.Ltext0:
  16              		.cfi_sections	.debug_frame
  17              		.section	.text.HAL_PCD_MspInit,"ax",%progbits
  18              		.align	1
  19              		.global	HAL_PCD_MspInit
  20              		.arch armv7e-m
  21              		.syntax unified
  22              		.thumb
  23              		.thumb_func
  24              		.fpu fpv4-sp-d16
  26              	HAL_PCD_MspInit:
  27              	.LVL0:
  28              	.LFB138:
  29              		.file 1 "USB_DEVICE/Target/usbd_conf.c"
   1:USB_DEVICE/Target/usbd_conf.c **** /* USER CODE BEGIN Header */
   2:USB_DEVICE/Target/usbd_conf.c **** /**
   3:USB_DEVICE/Target/usbd_conf.c ****   ******************************************************************************
   4:USB_DEVICE/Target/usbd_conf.c ****   * @file           : Target/usbd_conf.c
   5:USB_DEVICE/Target/usbd_conf.c ****   * @version        : v1.0_Cube
   6:USB_DEVICE/Target/usbd_conf.c ****   * @brief          : This file implements the board support package for the USB device library
   7:USB_DEVICE/Target/usbd_conf.c ****   ******************************************************************************
   8:USB_DEVICE/Target/usbd_conf.c ****   * @attention
   9:USB_DEVICE/Target/usbd_conf.c ****   *
  10:USB_DEVICE/Target/usbd_conf.c ****   * Copyright (c) 2025 STMicroelectronics.
  11:USB_DEVICE/Target/usbd_conf.c ****   * All rights reserved.
  12:USB_DEVICE/Target/usbd_conf.c ****   *
  13:USB_DEVICE/Target/usbd_conf.c ****   * This software is licensed under terms that can be found in the LICENSE file
  14:USB_DEVICE/Target/usbd_conf.c ****   * in the root directory of this software component.
  15:USB_DEVICE/Target/usbd_conf.c ****   * If no LICENSE file comes with this software, it is provided AS-IS.
  16:USB_DEVICE/Target/usbd_conf.c ****   *
  17:USB_DEVICE/Target/usbd_conf.c ****   ******************************************************************************
  18:USB_DEVICE/Target/usbd_conf.c ****   */
  19:USB_DEVICE/Target/usbd_conf.c **** /* USER CODE END Header */
  20:USB_DEVICE/Target/usbd_conf.c **** 
  21:USB_DEVICE/Target/usbd_conf.c **** /* Includes ------------------------------------------------------------------*/
  22:USB_DEVICE/Target/usbd_conf.c **** #include "stm32f4xx.h"
  23:USB_DEVICE/Target/usbd_conf.c **** #include "stm32f4xx_hal.h"
  24:USB_DEVICE/Target/usbd_conf.c **** #include "usbd_def.h"
  25:USB_DEVICE/Target/usbd_conf.c **** #include "usbd_core.h"
  26:USB_DEVICE/Target/usbd_conf.c **** 
  27:USB_DEVICE/Target/usbd_conf.c **** #include "usbd_cdc.h"
  28:USB_DEVICE/Target/usbd_conf.c **** 
  29:USB_DEVICE/Target/usbd_conf.c **** /* USER CODE BEGIN Includes */
ARM GAS  /tmp/ccCaeJ1V.s 			page 2


  30:USB_DEVICE/Target/usbd_conf.c **** 
  31:USB_DEVICE/Target/usbd_conf.c **** /* USER CODE END Includes */
  32:USB_DEVICE/Target/usbd_conf.c **** 
  33:USB_DEVICE/Target/usbd_conf.c **** /* Private typedef -----------------------------------------------------------*/
  34:USB_DEVICE/Target/usbd_conf.c **** /* Private define ------------------------------------------------------------*/
  35:USB_DEVICE/Target/usbd_conf.c **** /* Private macro -------------------------------------------------------------*/
  36:USB_DEVICE/Target/usbd_conf.c **** 
  37:USB_DEVICE/Target/usbd_conf.c **** /* USER CODE BEGIN PV */
  38:USB_DEVICE/Target/usbd_conf.c **** /* Private variables ---------------------------------------------------------*/
  39:USB_DEVICE/Target/usbd_conf.c **** 
  40:USB_DEVICE/Target/usbd_conf.c **** /* USER CODE END PV */
  41:USB_DEVICE/Target/usbd_conf.c **** 
  42:USB_DEVICE/Target/usbd_conf.c **** PCD_HandleTypeDef hpcd_USB_OTG_FS;
  43:USB_DEVICE/Target/usbd_conf.c **** void Error_Handler(void);
  44:USB_DEVICE/Target/usbd_conf.c **** 
  45:USB_DEVICE/Target/usbd_conf.c **** /* External functions --------------------------------------------------------*/
  46:USB_DEVICE/Target/usbd_conf.c **** void SystemClock_Config(void);
  47:USB_DEVICE/Target/usbd_conf.c **** 
  48:USB_DEVICE/Target/usbd_conf.c **** /* USER CODE BEGIN 0 */
  49:USB_DEVICE/Target/usbd_conf.c **** 
  50:USB_DEVICE/Target/usbd_conf.c **** /* USER CODE END 0 */
  51:USB_DEVICE/Target/usbd_conf.c **** 
  52:USB_DEVICE/Target/usbd_conf.c **** /* USER CODE BEGIN PFP */
  53:USB_DEVICE/Target/usbd_conf.c **** /* Private function prototypes -----------------------------------------------*/
  54:USB_DEVICE/Target/usbd_conf.c **** USBD_StatusTypeDef USBD_Get_USB_Status(HAL_StatusTypeDef hal_status);
  55:USB_DEVICE/Target/usbd_conf.c **** 
  56:USB_DEVICE/Target/usbd_conf.c **** /* USER CODE END PFP */
  57:USB_DEVICE/Target/usbd_conf.c **** 
  58:USB_DEVICE/Target/usbd_conf.c **** /* Private functions ---------------------------------------------------------*/
  59:USB_DEVICE/Target/usbd_conf.c **** 
  60:USB_DEVICE/Target/usbd_conf.c **** /* USER CODE BEGIN 1 */
  61:USB_DEVICE/Target/usbd_conf.c **** 
  62:USB_DEVICE/Target/usbd_conf.c **** /* USER CODE END 1 */
  63:USB_DEVICE/Target/usbd_conf.c **** 
  64:USB_DEVICE/Target/usbd_conf.c **** /*******************************************************************************
  65:USB_DEVICE/Target/usbd_conf.c ****                        LL Driver Callbacks (PCD -> USB Device Library)
  66:USB_DEVICE/Target/usbd_conf.c **** *******************************************************************************/
  67:USB_DEVICE/Target/usbd_conf.c **** /* MSP Init */
  68:USB_DEVICE/Target/usbd_conf.c **** 
  69:USB_DEVICE/Target/usbd_conf.c **** void HAL_PCD_MspInit(PCD_HandleTypeDef* pcdHandle)
  70:USB_DEVICE/Target/usbd_conf.c **** {
  30              		.loc 1 70 1 view -0
  31              		.cfi_startproc
  32              		@ args = 0, pretend = 0, frame = 120
  33              		@ frame_needed = 0, uses_anonymous_args = 0
  34              		.loc 1 70 1 is_stmt 0 view .LVU1
  35 0000 30B5     		push	{r4, r5, lr}
  36              	.LCFI0:
  37              		.cfi_def_cfa_offset 12
  38              		.cfi_offset 4, -12
  39              		.cfi_offset 5, -8
  40              		.cfi_offset 14, -4
  41 0002 9FB0     		sub	sp, sp, #124
  42              	.LCFI1:
  43              		.cfi_def_cfa_offset 136
  44 0004 0446     		mov	r4, r0
  71:USB_DEVICE/Target/usbd_conf.c ****   GPIO_InitTypeDef GPIO_InitStruct = {0};
ARM GAS  /tmp/ccCaeJ1V.s 			page 3


  45              		.loc 1 71 3 is_stmt 1 view .LVU2
  46              		.loc 1 71 20 is_stmt 0 view .LVU3
  47 0006 0021     		movs	r1, #0
  48 0008 1991     		str	r1, [sp, #100]
  49 000a 1A91     		str	r1, [sp, #104]
  50 000c 1B91     		str	r1, [sp, #108]
  51 000e 1C91     		str	r1, [sp, #112]
  52 0010 1D91     		str	r1, [sp, #116]
  72:USB_DEVICE/Target/usbd_conf.c ****   RCC_PeriphCLKInitTypeDef PeriphClkInitStruct = {0};
  53              		.loc 1 72 3 is_stmt 1 view .LVU4
  54              		.loc 1 72 28 is_stmt 0 view .LVU5
  55 0012 5C22     		movs	r2, #92
  56 0014 02A8     		add	r0, sp, #8
  57              	.LVL1:
  58              		.loc 1 72 28 view .LVU6
  59 0016 FFF7FEFF 		bl	memset
  60              	.LVL2:
  73:USB_DEVICE/Target/usbd_conf.c ****   if(pcdHandle->Instance==USB_OTG_FS)
  61              		.loc 1 73 3 is_stmt 1 view .LVU7
  62              		.loc 1 73 15 is_stmt 0 view .LVU8
  63 001a 2368     		ldr	r3, [r4]
  64              		.loc 1 73 5 view .LVU9
  65 001c B3F1A04F 		cmp	r3, #1342177280
  66 0020 01D0     		beq	.L5
  67              	.LVL3:
  68              	.L1:
  74:USB_DEVICE/Target/usbd_conf.c ****   {
  75:USB_DEVICE/Target/usbd_conf.c ****   /* USER CODE BEGIN USB_OTG_FS_MspInit 0 */
  76:USB_DEVICE/Target/usbd_conf.c **** 
  77:USB_DEVICE/Target/usbd_conf.c ****   /* USER CODE END USB_OTG_FS_MspInit 0 */
  78:USB_DEVICE/Target/usbd_conf.c **** 
  79:USB_DEVICE/Target/usbd_conf.c ****   /** Initializes the peripherals clock
  80:USB_DEVICE/Target/usbd_conf.c ****   */
  81:USB_DEVICE/Target/usbd_conf.c ****     PeriphClkInitStruct.PeriphClockSelection = RCC_PERIPHCLK_CLK48;
  82:USB_DEVICE/Target/usbd_conf.c ****     PeriphClkInitStruct.Clk48ClockSelection = RCC_CLK48CLKSOURCE_PLLQ;
  83:USB_DEVICE/Target/usbd_conf.c ****     if (HAL_RCCEx_PeriphCLKConfig(&PeriphClkInitStruct) != HAL_OK)
  84:USB_DEVICE/Target/usbd_conf.c ****     {
  85:USB_DEVICE/Target/usbd_conf.c ****       Error_Handler();
  86:USB_DEVICE/Target/usbd_conf.c ****     }
  87:USB_DEVICE/Target/usbd_conf.c **** 
  88:USB_DEVICE/Target/usbd_conf.c ****     __HAL_RCC_GPIOA_CLK_ENABLE();
  89:USB_DEVICE/Target/usbd_conf.c ****     /**USB_OTG_FS GPIO Configuration
  90:USB_DEVICE/Target/usbd_conf.c ****     PA11     ------> USB_OTG_FS_DM
  91:USB_DEVICE/Target/usbd_conf.c ****     PA12     ------> USB_OTG_FS_DP
  92:USB_DEVICE/Target/usbd_conf.c ****     */
  93:USB_DEVICE/Target/usbd_conf.c ****     GPIO_InitStruct.Pin = GPIO_PIN_11|GPIO_PIN_12;
  94:USB_DEVICE/Target/usbd_conf.c ****     GPIO_InitStruct.Mode = GPIO_MODE_AF_PP;
  95:USB_DEVICE/Target/usbd_conf.c ****     GPIO_InitStruct.Pull = GPIO_NOPULL;
  96:USB_DEVICE/Target/usbd_conf.c ****     GPIO_InitStruct.Speed = GPIO_SPEED_FREQ_VERY_HIGH;
  97:USB_DEVICE/Target/usbd_conf.c ****     GPIO_InitStruct.Alternate = GPIO_AF10_OTG_FS;
  98:USB_DEVICE/Target/usbd_conf.c ****     HAL_GPIO_Init(GPIOA, &GPIO_InitStruct);
  99:USB_DEVICE/Target/usbd_conf.c **** 
 100:USB_DEVICE/Target/usbd_conf.c ****     /* Peripheral clock enable */
 101:USB_DEVICE/Target/usbd_conf.c ****     __HAL_RCC_USB_OTG_FS_CLK_ENABLE();
 102:USB_DEVICE/Target/usbd_conf.c **** 
 103:USB_DEVICE/Target/usbd_conf.c ****     /* Peripheral interrupt init */
 104:USB_DEVICE/Target/usbd_conf.c ****     HAL_NVIC_SetPriority(OTG_FS_IRQn, 0, 0);
ARM GAS  /tmp/ccCaeJ1V.s 			page 4


 105:USB_DEVICE/Target/usbd_conf.c ****     HAL_NVIC_EnableIRQ(OTG_FS_IRQn);
 106:USB_DEVICE/Target/usbd_conf.c ****   /* USER CODE BEGIN USB_OTG_FS_MspInit 1 */
 107:USB_DEVICE/Target/usbd_conf.c **** 
 108:USB_DEVICE/Target/usbd_conf.c ****   /* USER CODE END USB_OTG_FS_MspInit 1 */
 109:USB_DEVICE/Target/usbd_conf.c ****   }
 110:USB_DEVICE/Target/usbd_conf.c **** }
  69              		.loc 1 110 1 view .LVU10
  70 0022 1FB0     		add	sp, sp, #124
  71              	.LCFI2:
  72              		.cfi_remember_state
  73              		.cfi_def_cfa_offset 12
  74              		@ sp needed
  75 0024 30BD     		pop	{r4, r5, pc}
  76              	.LVL4:
  77              	.L5:
  78              	.LCFI3:
  79              		.cfi_restore_state
  81:USB_DEVICE/Target/usbd_conf.c ****     PeriphClkInitStruct.Clk48ClockSelection = RCC_CLK48CLKSOURCE_PLLQ;
  80              		.loc 1 81 5 is_stmt 1 view .LVU11
  81:USB_DEVICE/Target/usbd_conf.c ****     PeriphClkInitStruct.Clk48ClockSelection = RCC_CLK48CLKSOURCE_PLLQ;
  81              		.loc 1 81 46 is_stmt 0 view .LVU12
  82 0026 4FF48073 		mov	r3, #256
  83 002a 0293     		str	r3, [sp, #8]
  82:USB_DEVICE/Target/usbd_conf.c ****     if (HAL_RCCEx_PeriphCLKConfig(&PeriphClkInitStruct) != HAL_OK)
  84              		.loc 1 82 5 is_stmt 1 view .LVU13
  82:USB_DEVICE/Target/usbd_conf.c ****     if (HAL_RCCEx_PeriphCLKConfig(&PeriphClkInitStruct) != HAL_OK)
  85              		.loc 1 82 45 is_stmt 0 view .LVU14
  86 002c 0023     		movs	r3, #0
  87 002e 1793     		str	r3, [sp, #92]
  83:USB_DEVICE/Target/usbd_conf.c ****     {
  88              		.loc 1 83 5 is_stmt 1 view .LVU15
  83:USB_DEVICE/Target/usbd_conf.c ****     {
  89              		.loc 1 83 9 is_stmt 0 view .LVU16
  90 0030 02A8     		add	r0, sp, #8
  91 0032 FFF7FEFF 		bl	HAL_RCCEx_PeriphCLKConfig
  92              	.LVL5:
  83:USB_DEVICE/Target/usbd_conf.c ****     {
  93              		.loc 1 83 8 view .LVU17
  94 0036 0028     		cmp	r0, #0
  95 0038 30D1     		bne	.L6
  96              	.L3:
  88:USB_DEVICE/Target/usbd_conf.c ****     /**USB_OTG_FS GPIO Configuration
  97              		.loc 1 88 5 is_stmt 1 view .LVU18
  98              	.LBB2:
  88:USB_DEVICE/Target/usbd_conf.c ****     /**USB_OTG_FS GPIO Configuration
  99              		.loc 1 88 5 view .LVU19
 100 003a 0025     		movs	r5, #0
 101 003c 0095     		str	r5, [sp]
  88:USB_DEVICE/Target/usbd_conf.c ****     /**USB_OTG_FS GPIO Configuration
 102              		.loc 1 88 5 view .LVU20
 103 003e 194C     		ldr	r4, .L7
 104              	.LVL6:
  88:USB_DEVICE/Target/usbd_conf.c ****     /**USB_OTG_FS GPIO Configuration
 105              		.loc 1 88 5 is_stmt 0 view .LVU21
 106 0040 236B     		ldr	r3, [r4, #48]
 107 0042 43F00103 		orr	r3, r3, #1
 108 0046 2363     		str	r3, [r4, #48]
ARM GAS  /tmp/ccCaeJ1V.s 			page 5


  88:USB_DEVICE/Target/usbd_conf.c ****     /**USB_OTG_FS GPIO Configuration
 109              		.loc 1 88 5 is_stmt 1 view .LVU22
 110 0048 236B     		ldr	r3, [r4, #48]
 111 004a 03F00103 		and	r3, r3, #1
 112 004e 0093     		str	r3, [sp]
  88:USB_DEVICE/Target/usbd_conf.c ****     /**USB_OTG_FS GPIO Configuration
 113              		.loc 1 88 5 view .LVU23
 114 0050 009B     		ldr	r3, [sp]
 115              	.LBE2:
  88:USB_DEVICE/Target/usbd_conf.c ****     /**USB_OTG_FS GPIO Configuration
 116              		.loc 1 88 5 view .LVU24
  93:USB_DEVICE/Target/usbd_conf.c ****     GPIO_InitStruct.Mode = GPIO_MODE_AF_PP;
 117              		.loc 1 93 5 view .LVU25
  93:USB_DEVICE/Target/usbd_conf.c ****     GPIO_InitStruct.Mode = GPIO_MODE_AF_PP;
 118              		.loc 1 93 25 is_stmt 0 view .LVU26
 119 0052 4FF4C053 		mov	r3, #6144
 120 0056 1993     		str	r3, [sp, #100]
  94:USB_DEVICE/Target/usbd_conf.c ****     GPIO_InitStruct.Pull = GPIO_NOPULL;
 121              		.loc 1 94 5 is_stmt 1 view .LVU27
  94:USB_DEVICE/Target/usbd_conf.c ****     GPIO_InitStruct.Pull = GPIO_NOPULL;
 122              		.loc 1 94 26 is_stmt 0 view .LVU28
 123 0058 0223     		movs	r3, #2
 124 005a 1A93     		str	r3, [sp, #104]
  95:USB_DEVICE/Target/usbd_conf.c ****     GPIO_InitStruct.Speed = GPIO_SPEED_FREQ_VERY_HIGH;
 125              		.loc 1 95 5 is_stmt 1 view .LVU29
  95:USB_DEVICE/Target/usbd_conf.c ****     GPIO_InitStruct.Speed = GPIO_SPEED_FREQ_VERY_HIGH;
 126              		.loc 1 95 26 is_stmt 0 view .LVU30
 127 005c 1B95     		str	r5, [sp, #108]
  96:USB_DEVICE/Target/usbd_conf.c ****     GPIO_InitStruct.Alternate = GPIO_AF10_OTG_FS;
 128              		.loc 1 96 5 is_stmt 1 view .LVU31
  96:USB_DEVICE/Target/usbd_conf.c ****     GPIO_InitStruct.Alternate = GPIO_AF10_OTG_FS;
 129              		.loc 1 96 27 is_stmt 0 view .LVU32
 130 005e 0323     		movs	r3, #3
 131 0060 1C93     		str	r3, [sp, #112]
  97:USB_DEVICE/Target/usbd_conf.c ****     HAL_GPIO_Init(GPIOA, &GPIO_InitStruct);
 132              		.loc 1 97 5 is_stmt 1 view .LVU33
  97:USB_DEVICE/Target/usbd_conf.c ****     HAL_GPIO_Init(GPIOA, &GPIO_InitStruct);
 133              		.loc 1 97 31 is_stmt 0 view .LVU34
 134 0062 0A23     		movs	r3, #10
 135 0064 1D93     		str	r3, [sp, #116]
  98:USB_DEVICE/Target/usbd_conf.c **** 
 136              		.loc 1 98 5 is_stmt 1 view .LVU35
 137 0066 19A9     		add	r1, sp, #100
 138 0068 0F48     		ldr	r0, .L7+4
 139 006a FFF7FEFF 		bl	HAL_GPIO_Init
 140              	.LVL7:
 101:USB_DEVICE/Target/usbd_conf.c **** 
 141              		.loc 1 101 5 view .LVU36
 101:USB_DEVICE/Target/usbd_conf.c **** 
 142              		.loc 1 101 5 view .LVU37
 143 006e 636B     		ldr	r3, [r4, #52]
 144 0070 43F08003 		orr	r3, r3, #128
 145 0074 6363     		str	r3, [r4, #52]
 101:USB_DEVICE/Target/usbd_conf.c **** 
 146              		.loc 1 101 5 view .LVU38
 147              	.LBB3:
 101:USB_DEVICE/Target/usbd_conf.c **** 
ARM GAS  /tmp/ccCaeJ1V.s 			page 6


 148              		.loc 1 101 5 view .LVU39
 149 0076 0195     		str	r5, [sp, #4]
 101:USB_DEVICE/Target/usbd_conf.c **** 
 150              		.loc 1 101 5 view .LVU40
 151 0078 636C     		ldr	r3, [r4, #68]
 152 007a 43F48043 		orr	r3, r3, #16384
 153 007e 6364     		str	r3, [r4, #68]
 101:USB_DEVICE/Target/usbd_conf.c **** 
 154              		.loc 1 101 5 view .LVU41
 155 0080 636C     		ldr	r3, [r4, #68]
 156 0082 03F48043 		and	r3, r3, #16384
 157 0086 0193     		str	r3, [sp, #4]
 101:USB_DEVICE/Target/usbd_conf.c **** 
 158              		.loc 1 101 5 view .LVU42
 159 0088 019B     		ldr	r3, [sp, #4]
 160              	.LBE3:
 101:USB_DEVICE/Target/usbd_conf.c **** 
 161              		.loc 1 101 5 view .LVU43
 101:USB_DEVICE/Target/usbd_conf.c **** 
 162              		.loc 1 101 5 view .LVU44
 104:USB_DEVICE/Target/usbd_conf.c ****     HAL_NVIC_EnableIRQ(OTG_FS_IRQn);
 163              		.loc 1 104 5 view .LVU45
 164 008a 2A46     		mov	r2, r5
 165 008c 2946     		mov	r1, r5
 166 008e 4320     		movs	r0, #67
 167 0090 FFF7FEFF 		bl	HAL_NVIC_SetPriority
 168              	.LVL8:
 105:USB_DEVICE/Target/usbd_conf.c ****   /* USER CODE BEGIN USB_OTG_FS_MspInit 1 */
 169              		.loc 1 105 5 view .LVU46
 170 0094 4320     		movs	r0, #67
 171 0096 FFF7FEFF 		bl	HAL_NVIC_EnableIRQ
 172              	.LVL9:
 173              		.loc 1 110 1 is_stmt 0 view .LVU47
 174 009a C2E7     		b	.L1
 175              	.LVL10:
 176              	.L6:
  85:USB_DEVICE/Target/usbd_conf.c ****     }
 177              		.loc 1 85 7 is_stmt 1 view .LVU48
 178 009c FFF7FEFF 		bl	Error_Handler
 179              	.LVL11:
 180 00a0 CBE7     		b	.L3
 181              	.L8:
 182 00a2 00BF     		.align	2
 183              	.L7:
 184 00a4 00380240 		.word	1073887232
 185 00a8 00000240 		.word	1073872896
 186              		.cfi_endproc
 187              	.LFE138:
 189              		.section	.text.HAL_PCD_MspDeInit,"ax",%progbits
 190              		.align	1
 191              		.global	HAL_PCD_MspDeInit
 192              		.syntax unified
 193              		.thumb
 194              		.thumb_func
 195              		.fpu fpv4-sp-d16
 197              	HAL_PCD_MspDeInit:
 198              	.LVL12:
ARM GAS  /tmp/ccCaeJ1V.s 			page 7


 199              	.LFB139:
 111:USB_DEVICE/Target/usbd_conf.c **** 
 112:USB_DEVICE/Target/usbd_conf.c **** void HAL_PCD_MspDeInit(PCD_HandleTypeDef* pcdHandle)
 113:USB_DEVICE/Target/usbd_conf.c **** {
 200              		.loc 1 113 1 view -0
 201              		.cfi_startproc
 202              		@ args = 0, pretend = 0, frame = 0
 203              		@ frame_needed = 0, uses_anonymous_args = 0
 204              		.loc 1 113 1 is_stmt 0 view .LVU50
 205 0000 08B5     		push	{r3, lr}
 206              	.LCFI4:
 207              		.cfi_def_cfa_offset 8
 208              		.cfi_offset 3, -8
 209              		.cfi_offset 14, -4
 114:USB_DEVICE/Target/usbd_conf.c ****   if(pcdHandle->Instance==USB_OTG_FS)
 210              		.loc 1 114 3 is_stmt 1 view .LVU51
 211              		.loc 1 114 15 is_stmt 0 view .LVU52
 212 0002 0368     		ldr	r3, [r0]
 213              		.loc 1 114 5 view .LVU53
 214 0004 B3F1A04F 		cmp	r3, #1342177280
 215 0008 00D0     		beq	.L12
 216              	.LVL13:
 217              	.L9:
 115:USB_DEVICE/Target/usbd_conf.c ****   {
 116:USB_DEVICE/Target/usbd_conf.c ****   /* USER CODE BEGIN USB_OTG_FS_MspDeInit 0 */
 117:USB_DEVICE/Target/usbd_conf.c **** 
 118:USB_DEVICE/Target/usbd_conf.c ****   /* USER CODE END USB_OTG_FS_MspDeInit 0 */
 119:USB_DEVICE/Target/usbd_conf.c ****     /* Peripheral clock disable */
 120:USB_DEVICE/Target/usbd_conf.c ****     __HAL_RCC_USB_OTG_FS_CLK_DISABLE();
 121:USB_DEVICE/Target/usbd_conf.c **** 
 122:USB_DEVICE/Target/usbd_conf.c ****     /**USB_OTG_FS GPIO Configuration
 123:USB_DEVICE/Target/usbd_conf.c ****     PA11     ------> USB_OTG_FS_DM
 124:USB_DEVICE/Target/usbd_conf.c ****     PA12     ------> USB_OTG_FS_DP
 125:USB_DEVICE/Target/usbd_conf.c ****     */
 126:USB_DEVICE/Target/usbd_conf.c ****     HAL_GPIO_DeInit(GPIOA, GPIO_PIN_11|GPIO_PIN_12);
 127:USB_DEVICE/Target/usbd_conf.c **** 
 128:USB_DEVICE/Target/usbd_conf.c ****     /* Peripheral interrupt Deinit*/
 129:USB_DEVICE/Target/usbd_conf.c ****     HAL_NVIC_DisableIRQ(OTG_FS_IRQn);
 130:USB_DEVICE/Target/usbd_conf.c **** 
 131:USB_DEVICE/Target/usbd_conf.c ****   /* USER CODE BEGIN USB_OTG_FS_MspDeInit 1 */
 132:USB_DEVICE/Target/usbd_conf.c **** 
 133:USB_DEVICE/Target/usbd_conf.c ****   /* USER CODE END USB_OTG_FS_MspDeInit 1 */
 134:USB_DEVICE/Target/usbd_conf.c ****   }
 135:USB_DEVICE/Target/usbd_conf.c **** }
 218              		.loc 1 135 1 view .LVU54
 219 000a 08BD     		pop	{r3, pc}
 220              	.LVL14:
 221              	.L12:
 120:USB_DEVICE/Target/usbd_conf.c **** 
 222              		.loc 1 120 5 is_stmt 1 view .LVU55
 223 000c 064A     		ldr	r2, .L13
 224 000e 536B     		ldr	r3, [r2, #52]
 225 0010 23F08003 		bic	r3, r3, #128
 226 0014 5363     		str	r3, [r2, #52]
 126:USB_DEVICE/Target/usbd_conf.c **** 
 227              		.loc 1 126 5 view .LVU56
 228 0016 4FF4C051 		mov	r1, #6144
ARM GAS  /tmp/ccCaeJ1V.s 			page 8


 229 001a 0448     		ldr	r0, .L13+4
 230              	.LVL15:
 126:USB_DEVICE/Target/usbd_conf.c **** 
 231              		.loc 1 126 5 is_stmt 0 view .LVU57
 232 001c FFF7FEFF 		bl	HAL_GPIO_DeInit
 233              	.LVL16:
 129:USB_DEVICE/Target/usbd_conf.c **** 
 234              		.loc 1 129 5 is_stmt 1 view .LVU58
 235 0020 4320     		movs	r0, #67
 236 0022 FFF7FEFF 		bl	HAL_NVIC_DisableIRQ
 237              	.LVL17:
 238              		.loc 1 135 1 is_stmt 0 view .LVU59
 239 0026 F0E7     		b	.L9
 240              	.L14:
 241              		.align	2
 242              	.L13:
 243 0028 00380240 		.word	1073887232
 244 002c 00000240 		.word	1073872896
 245              		.cfi_endproc
 246              	.LFE139:
 248              		.section	.text.HAL_PCD_SetupStageCallback,"ax",%progbits
 249              		.align	1
 250              		.global	HAL_PCD_SetupStageCallback
 251              		.syntax unified
 252              		.thumb
 253              		.thumb_func
 254              		.fpu fpv4-sp-d16
 256              	HAL_PCD_SetupStageCallback:
 257              	.LVL18:
 258              	.LFB140:
 136:USB_DEVICE/Target/usbd_conf.c **** 
 137:USB_DEVICE/Target/usbd_conf.c **** /**
 138:USB_DEVICE/Target/usbd_conf.c ****   * @brief  Setup stage callback
 139:USB_DEVICE/Target/usbd_conf.c ****   * @param  hpcd: PCD handle
 140:USB_DEVICE/Target/usbd_conf.c ****   * @retval None
 141:USB_DEVICE/Target/usbd_conf.c ****   */
 142:USB_DEVICE/Target/usbd_conf.c **** #if (USE_HAL_PCD_REGISTER_CALLBACKS == 1U)
 143:USB_DEVICE/Target/usbd_conf.c **** static void PCD_SetupStageCallback(PCD_HandleTypeDef *hpcd)
 144:USB_DEVICE/Target/usbd_conf.c **** #else
 145:USB_DEVICE/Target/usbd_conf.c **** void HAL_PCD_SetupStageCallback(PCD_HandleTypeDef *hpcd)
 146:USB_DEVICE/Target/usbd_conf.c **** #endif /* USE_HAL_PCD_REGISTER_CALLBACKS */
 147:USB_DEVICE/Target/usbd_conf.c **** {
 259              		.loc 1 147 1 is_stmt 1 view -0
 260              		.cfi_startproc
 261              		@ args = 0, pretend = 0, frame = 0
 262              		@ frame_needed = 0, uses_anonymous_args = 0
 263              		.loc 1 147 1 is_stmt 0 view .LVU61
 264 0000 08B5     		push	{r3, lr}
 265              	.LCFI5:
 266              		.cfi_def_cfa_offset 8
 267              		.cfi_offset 3, -8
 268              		.cfi_offset 14, -4
 148:USB_DEVICE/Target/usbd_conf.c ****   USBD_LL_SetupStage((USBD_HandleTypeDef*)hpcd->pData, (uint8_t *)hpcd->Setup);
 269              		.loc 1 148 3 is_stmt 1 view .LVU62
 270 0002 00F29C41 		addw	r1, r0, #1180
 271 0006 D0F8E004 		ldr	r0, [r0, #1248]
 272              	.LVL19:
ARM GAS  /tmp/ccCaeJ1V.s 			page 9


 273              		.loc 1 148 3 is_stmt 0 view .LVU63
 274 000a FFF7FEFF 		bl	USBD_LL_SetupStage
 275              	.LVL20:
 149:USB_DEVICE/Target/usbd_conf.c **** }
 276              		.loc 1 149 1 view .LVU64
 277 000e 08BD     		pop	{r3, pc}
 278              		.cfi_endproc
 279              	.LFE140:
 281              		.section	.text.HAL_PCD_DataOutStageCallback,"ax",%progbits
 282              		.align	1
 283              		.global	HAL_PCD_DataOutStageCallback
 284              		.syntax unified
 285              		.thumb
 286              		.thumb_func
 287              		.fpu fpv4-sp-d16
 289              	HAL_PCD_DataOutStageCallback:
 290              	.LVL21:
 291              	.LFB141:
 150:USB_DEVICE/Target/usbd_conf.c **** 
 151:USB_DEVICE/Target/usbd_conf.c **** /**
 152:USB_DEVICE/Target/usbd_conf.c ****   * @brief  Data Out stage callback.
 153:USB_DEVICE/Target/usbd_conf.c ****   * @param  hpcd: PCD handle
 154:USB_DEVICE/Target/usbd_conf.c ****   * @param  epnum: Endpoint number
 155:USB_DEVICE/Target/usbd_conf.c ****   * @retval None
 156:USB_DEVICE/Target/usbd_conf.c ****   */
 157:USB_DEVICE/Target/usbd_conf.c **** #if (USE_HAL_PCD_REGISTER_CALLBACKS == 1U)
 158:USB_DEVICE/Target/usbd_conf.c **** static void PCD_DataOutStageCallback(PCD_HandleTypeDef *hpcd, uint8_t epnum)
 159:USB_DEVICE/Target/usbd_conf.c **** #else
 160:USB_DEVICE/Target/usbd_conf.c **** void HAL_PCD_DataOutStageCallback(PCD_HandleTypeDef *hpcd, uint8_t epnum)
 161:USB_DEVICE/Target/usbd_conf.c **** #endif /* USE_HAL_PCD_REGISTER_CALLBACKS */
 162:USB_DEVICE/Target/usbd_conf.c **** {
 292              		.loc 1 162 1 is_stmt 1 view -0
 293              		.cfi_startproc
 294              		@ args = 0, pretend = 0, frame = 0
 295              		@ frame_needed = 0, uses_anonymous_args = 0
 296              		.loc 1 162 1 is_stmt 0 view .LVU66
 297 0000 08B5     		push	{r3, lr}
 298              	.LCFI6:
 299              		.cfi_def_cfa_offset 8
 300              		.cfi_offset 3, -8
 301              		.cfi_offset 14, -4
 163:USB_DEVICE/Target/usbd_conf.c ****   USBD_LL_DataOutStage((USBD_HandleTypeDef*)hpcd->pData, epnum, hpcd->OUT_ep[epnum].xfer_buff);
 302              		.loc 1 163 3 is_stmt 1 view .LVU67
 303 0002 01EBC103 		add	r3, r1, r1, lsl #3
 304 0006 00EB8303 		add	r3, r0, r3, lsl #2
 305 000a D3F86022 		ldr	r2, [r3, #608]
 306 000e D0F8E004 		ldr	r0, [r0, #1248]
 307              	.LVL22:
 308              		.loc 1 163 3 is_stmt 0 view .LVU68
 309 0012 FFF7FEFF 		bl	USBD_LL_DataOutStage
 310              	.LVL23:
 164:USB_DEVICE/Target/usbd_conf.c **** }
 311              		.loc 1 164 1 view .LVU69
 312 0016 08BD     		pop	{r3, pc}
 313              		.cfi_endproc
 314              	.LFE141:
 316              		.section	.text.HAL_PCD_DataInStageCallback,"ax",%progbits
ARM GAS  /tmp/ccCaeJ1V.s 			page 10


 317              		.align	1
 318              		.global	HAL_PCD_DataInStageCallback
 319              		.syntax unified
 320              		.thumb
 321              		.thumb_func
 322              		.fpu fpv4-sp-d16
 324              	HAL_PCD_DataInStageCallback:
 325              	.LVL24:
 326              	.LFB142:
 165:USB_DEVICE/Target/usbd_conf.c **** 
 166:USB_DEVICE/Target/usbd_conf.c **** /**
 167:USB_DEVICE/Target/usbd_conf.c ****   * @brief  Data In stage callback.
 168:USB_DEVICE/Target/usbd_conf.c ****   * @param  hpcd: PCD handle
 169:USB_DEVICE/Target/usbd_conf.c ****   * @param  epnum: Endpoint number
 170:USB_DEVICE/Target/usbd_conf.c ****   * @retval None
 171:USB_DEVICE/Target/usbd_conf.c ****   */
 172:USB_DEVICE/Target/usbd_conf.c **** #if (USE_HAL_PCD_REGISTER_CALLBACKS == 1U)
 173:USB_DEVICE/Target/usbd_conf.c **** static void PCD_DataInStageCallback(PCD_HandleTypeDef *hpcd, uint8_t epnum)
 174:USB_DEVICE/Target/usbd_conf.c **** #else
 175:USB_DEVICE/Target/usbd_conf.c **** void HAL_PCD_DataInStageCallback(PCD_HandleTypeDef *hpcd, uint8_t epnum)
 176:USB_DEVICE/Target/usbd_conf.c **** #endif /* USE_HAL_PCD_REGISTER_CALLBACKS */
 177:USB_DEVICE/Target/usbd_conf.c **** {
 327              		.loc 1 177 1 is_stmt 1 view -0
 328              		.cfi_startproc
 329              		@ args = 0, pretend = 0, frame = 0
 330              		@ frame_needed = 0, uses_anonymous_args = 0
 331              		.loc 1 177 1 is_stmt 0 view .LVU71
 332 0000 08B5     		push	{r3, lr}
 333              	.LCFI7:
 334              		.cfi_def_cfa_offset 8
 335              		.cfi_offset 3, -8
 336              		.cfi_offset 14, -4
 178:USB_DEVICE/Target/usbd_conf.c ****   USBD_LL_DataInStage((USBD_HandleTypeDef*)hpcd->pData, epnum, hpcd->IN_ep[epnum].xfer_buff);
 337              		.loc 1 178 3 is_stmt 1 view .LVU72
 338 0002 01EBC103 		add	r3, r1, r1, lsl #3
 339 0006 00EB8303 		add	r3, r0, r3, lsl #2
 340 000a 1A6A     		ldr	r2, [r3, #32]
 341 000c D0F8E004 		ldr	r0, [r0, #1248]
 342              	.LVL25:
 343              		.loc 1 178 3 is_stmt 0 view .LVU73
 344 0010 FFF7FEFF 		bl	USBD_LL_DataInStage
 345              	.LVL26:
 179:USB_DEVICE/Target/usbd_conf.c **** }
 346              		.loc 1 179 1 view .LVU74
 347 0014 08BD     		pop	{r3, pc}
 348              		.cfi_endproc
 349              	.LFE142:
 351              		.section	.text.HAL_PCD_SOFCallback,"ax",%progbits
 352              		.align	1
 353              		.global	HAL_PCD_SOFCallback
 354              		.syntax unified
 355              		.thumb
 356              		.thumb_func
 357              		.fpu fpv4-sp-d16
 359              	HAL_PCD_SOFCallback:
 360              	.LVL27:
 361              	.LFB143:
ARM GAS  /tmp/ccCaeJ1V.s 			page 11


 180:USB_DEVICE/Target/usbd_conf.c **** 
 181:USB_DEVICE/Target/usbd_conf.c **** /**
 182:USB_DEVICE/Target/usbd_conf.c ****   * @brief  SOF callback.
 183:USB_DEVICE/Target/usbd_conf.c ****   * @param  hpcd: PCD handle
 184:USB_DEVICE/Target/usbd_conf.c ****   * @retval None
 185:USB_DEVICE/Target/usbd_conf.c ****   */
 186:USB_DEVICE/Target/usbd_conf.c **** #if (USE_HAL_PCD_REGISTER_CALLBACKS == 1U)
 187:USB_DEVICE/Target/usbd_conf.c **** static void PCD_SOFCallback(PCD_HandleTypeDef *hpcd)
 188:USB_DEVICE/Target/usbd_conf.c **** #else
 189:USB_DEVICE/Target/usbd_conf.c **** void HAL_PCD_SOFCallback(PCD_HandleTypeDef *hpcd)
 190:USB_DEVICE/Target/usbd_conf.c **** #endif /* USE_HAL_PCD_REGISTER_CALLBACKS */
 191:USB_DEVICE/Target/usbd_conf.c **** {
 362              		.loc 1 191 1 is_stmt 1 view -0
 363              		.cfi_startproc
 364              		@ args = 0, pretend = 0, frame = 0
 365              		@ frame_needed = 0, uses_anonymous_args = 0
 366              		.loc 1 191 1 is_stmt 0 view .LVU76
 367 0000 08B5     		push	{r3, lr}
 368              	.LCFI8:
 369              		.cfi_def_cfa_offset 8
 370              		.cfi_offset 3, -8
 371              		.cfi_offset 14, -4
 192:USB_DEVICE/Target/usbd_conf.c ****   USBD_LL_SOF((USBD_HandleTypeDef*)hpcd->pData);
 372              		.loc 1 192 3 is_stmt 1 view .LVU77
 373 0002 D0F8E004 		ldr	r0, [r0, #1248]
 374              	.LVL28:
 375              		.loc 1 192 3 is_stmt 0 view .LVU78
 376 0006 FFF7FEFF 		bl	USBD_LL_SOF
 377              	.LVL29:
 193:USB_DEVICE/Target/usbd_conf.c **** }
 378              		.loc 1 193 1 view .LVU79
 379 000a 08BD     		pop	{r3, pc}
 380              		.cfi_endproc
 381              	.LFE143:
 383              		.section	.text.HAL_PCD_ResetCallback,"ax",%progbits
 384              		.align	1
 385              		.global	HAL_PCD_ResetCallback
 386              		.syntax unified
 387              		.thumb
 388              		.thumb_func
 389              		.fpu fpv4-sp-d16
 391              	HAL_PCD_ResetCallback:
 392              	.LVL30:
 393              	.LFB144:
 194:USB_DEVICE/Target/usbd_conf.c **** 
 195:USB_DEVICE/Target/usbd_conf.c **** /**
 196:USB_DEVICE/Target/usbd_conf.c ****   * @brief  Reset callback.
 197:USB_DEVICE/Target/usbd_conf.c ****   * @param  hpcd: PCD handle
 198:USB_DEVICE/Target/usbd_conf.c ****   * @retval None
 199:USB_DEVICE/Target/usbd_conf.c ****   */
 200:USB_DEVICE/Target/usbd_conf.c **** #if (USE_HAL_PCD_REGISTER_CALLBACKS == 1U)
 201:USB_DEVICE/Target/usbd_conf.c **** static void PCD_ResetCallback(PCD_HandleTypeDef *hpcd)
 202:USB_DEVICE/Target/usbd_conf.c **** #else
 203:USB_DEVICE/Target/usbd_conf.c **** void HAL_PCD_ResetCallback(PCD_HandleTypeDef *hpcd)
 204:USB_DEVICE/Target/usbd_conf.c **** #endif /* USE_HAL_PCD_REGISTER_CALLBACKS */
 205:USB_DEVICE/Target/usbd_conf.c **** {
 394              		.loc 1 205 1 is_stmt 1 view -0
ARM GAS  /tmp/ccCaeJ1V.s 			page 12


 395              		.cfi_startproc
 396              		@ args = 0, pretend = 0, frame = 0
 397              		@ frame_needed = 0, uses_anonymous_args = 0
 398              		.loc 1 205 1 is_stmt 0 view .LVU81
 399 0000 10B5     		push	{r4, lr}
 400              	.LCFI9:
 401              		.cfi_def_cfa_offset 8
 402              		.cfi_offset 4, -8
 403              		.cfi_offset 14, -4
 404 0002 0446     		mov	r4, r0
 206:USB_DEVICE/Target/usbd_conf.c ****   USBD_SpeedTypeDef speed = USBD_SPEED_FULL;
 405              		.loc 1 206 3 is_stmt 1 view .LVU82
 406              	.LVL31:
 207:USB_DEVICE/Target/usbd_conf.c **** 
 208:USB_DEVICE/Target/usbd_conf.c ****   if ( hpcd->Init.speed == PCD_SPEED_HIGH)
 407              		.loc 1 208 3 view .LVU83
 408              		.loc 1 208 18 is_stmt 0 view .LVU84
 409 0004 C179     		ldrb	r1, [r0, #7]	@ zero_extendqisi2
 410              		.loc 1 208 6 view .LVU85
 411 0006 11B1     		cbz	r1, .L24
 209:USB_DEVICE/Target/usbd_conf.c ****   {
 210:USB_DEVICE/Target/usbd_conf.c ****     speed = USBD_SPEED_HIGH;
 211:USB_DEVICE/Target/usbd_conf.c ****   }
 212:USB_DEVICE/Target/usbd_conf.c ****   else if ( hpcd->Init.speed == PCD_SPEED_FULL)
 412              		.loc 1 212 8 is_stmt 1 view .LVU86
 413              		.loc 1 212 11 is_stmt 0 view .LVU87
 414 0008 0229     		cmp	r1, #2
 415 000a 09D1     		bne	.L27
 213:USB_DEVICE/Target/usbd_conf.c ****   {
 214:USB_DEVICE/Target/usbd_conf.c ****     speed = USBD_SPEED_FULL;
 416              		.loc 1 214 11 view .LVU88
 417 000c 0121     		movs	r1, #1
 418              	.LVL32:
 419              	.L24:
 215:USB_DEVICE/Target/usbd_conf.c ****   }
 216:USB_DEVICE/Target/usbd_conf.c ****   else
 217:USB_DEVICE/Target/usbd_conf.c ****   {
 218:USB_DEVICE/Target/usbd_conf.c ****     Error_Handler();
 219:USB_DEVICE/Target/usbd_conf.c ****   }
 220:USB_DEVICE/Target/usbd_conf.c ****     /* Set Speed. */
 221:USB_DEVICE/Target/usbd_conf.c ****   USBD_LL_SetSpeed((USBD_HandleTypeDef*)hpcd->pData, speed);
 420              		.loc 1 221 3 is_stmt 1 view .LVU89
 421 000e D4F8E004 		ldr	r0, [r4, #1248]
 422 0012 FFF7FEFF 		bl	USBD_LL_SetSpeed
 423              	.LVL33:
 222:USB_DEVICE/Target/usbd_conf.c **** 
 223:USB_DEVICE/Target/usbd_conf.c ****   /* Reset Device. */
 224:USB_DEVICE/Target/usbd_conf.c ****   USBD_LL_Reset((USBD_HandleTypeDef*)hpcd->pData);
 424              		.loc 1 224 3 view .LVU90
 425 0016 D4F8E004 		ldr	r0, [r4, #1248]
 426 001a FFF7FEFF 		bl	USBD_LL_Reset
 427              	.LVL34:
 225:USB_DEVICE/Target/usbd_conf.c **** }
 428              		.loc 1 225 1 is_stmt 0 view .LVU91
 429 001e 10BD     		pop	{r4, pc}
 430              	.LVL35:
 431              	.L27:
ARM GAS  /tmp/ccCaeJ1V.s 			page 13


 218:USB_DEVICE/Target/usbd_conf.c ****   }
 432              		.loc 1 218 5 is_stmt 1 view .LVU92
 433 0020 FFF7FEFF 		bl	Error_Handler
 434              	.LVL36:
 206:USB_DEVICE/Target/usbd_conf.c **** 
 435              		.loc 1 206 21 is_stmt 0 view .LVU93
 436 0024 0121     		movs	r1, #1
 437 0026 F2E7     		b	.L24
 438              		.cfi_endproc
 439              	.LFE144:
 441              		.section	.text.HAL_PCD_SuspendCallback,"ax",%progbits
 442              		.align	1
 443              		.global	HAL_PCD_SuspendCallback
 444              		.syntax unified
 445              		.thumb
 446              		.thumb_func
 447              		.fpu fpv4-sp-d16
 449              	HAL_PCD_SuspendCallback:
 450              	.LVL37:
 451              	.LFB145:
 226:USB_DEVICE/Target/usbd_conf.c **** 
 227:USB_DEVICE/Target/usbd_conf.c **** /**
 228:USB_DEVICE/Target/usbd_conf.c ****   * @brief  Suspend callback.
 229:USB_DEVICE/Target/usbd_conf.c ****   * When Low power mode is enabled the debug cannot be used (IAR, Keil doesn't support it)
 230:USB_DEVICE/Target/usbd_conf.c ****   * @param  hpcd: PCD handle
 231:USB_DEVICE/Target/usbd_conf.c ****   * @retval None
 232:USB_DEVICE/Target/usbd_conf.c ****   */
 233:USB_DEVICE/Target/usbd_conf.c **** #if (USE_HAL_PCD_REGISTER_CALLBACKS == 1U)
 234:USB_DEVICE/Target/usbd_conf.c **** static void PCD_SuspendCallback(PCD_HandleTypeDef *hpcd)
 235:USB_DEVICE/Target/usbd_conf.c **** #else
 236:USB_DEVICE/Target/usbd_conf.c **** void HAL_PCD_SuspendCallback(PCD_HandleTypeDef *hpcd)
 237:USB_DEVICE/Target/usbd_conf.c **** #endif /* USE_HAL_PCD_REGISTER_CALLBACKS */
 238:USB_DEVICE/Target/usbd_conf.c **** {
 452              		.loc 1 238 1 is_stmt 1 view -0
 453              		.cfi_startproc
 454              		@ args = 0, pretend = 0, frame = 0
 455              		@ frame_needed = 0, uses_anonymous_args = 0
 456              		.loc 1 238 1 is_stmt 0 view .LVU95
 457 0000 10B5     		push	{r4, lr}
 458              	.LCFI10:
 459              		.cfi_def_cfa_offset 8
 460              		.cfi_offset 4, -8
 461              		.cfi_offset 14, -4
 462 0002 0446     		mov	r4, r0
 239:USB_DEVICE/Target/usbd_conf.c ****   /* Inform USB library that core enters in suspend Mode. */
 240:USB_DEVICE/Target/usbd_conf.c ****   USBD_LL_Suspend((USBD_HandleTypeDef*)hpcd->pData);
 463              		.loc 1 240 3 is_stmt 1 view .LVU96
 464 0004 D0F8E004 		ldr	r0, [r0, #1248]
 465              	.LVL38:
 466              		.loc 1 240 3 is_stmt 0 view .LVU97
 467 0008 FFF7FEFF 		bl	USBD_LL_Suspend
 468              	.LVL39:
 241:USB_DEVICE/Target/usbd_conf.c ****   __HAL_PCD_GATE_PHYCLOCK(hpcd);
 469              		.loc 1 241 3 is_stmt 1 view .LVU98
 470 000c 2268     		ldr	r2, [r4]
 471 000e D2F8003E 		ldr	r3, [r2, #3584]
 472 0012 43F00103 		orr	r3, r3, #1
ARM GAS  /tmp/ccCaeJ1V.s 			page 14


 473 0016 C2F8003E 		str	r3, [r2, #3584]
 242:USB_DEVICE/Target/usbd_conf.c ****   /* Enter in STOP mode. */
 243:USB_DEVICE/Target/usbd_conf.c ****   /* USER CODE BEGIN 2 */
 244:USB_DEVICE/Target/usbd_conf.c ****   if (hpcd->Init.low_power_enable)
 474              		.loc 1 244 3 view .LVU99
 475              		.loc 1 244 17 is_stmt 0 view .LVU100
 476 001a E37A     		ldrb	r3, [r4, #11]	@ zero_extendqisi2
 477              		.loc 1 244 6 view .LVU101
 478 001c 23B1     		cbz	r3, .L28
 245:USB_DEVICE/Target/usbd_conf.c ****   {
 246:USB_DEVICE/Target/usbd_conf.c ****     /* Set SLEEPDEEP bit and SleepOnExit of Cortex System Control Register. */
 247:USB_DEVICE/Target/usbd_conf.c ****     SCB->SCR |= (uint32_t)((uint32_t)(SCB_SCR_SLEEPDEEP_Msk | SCB_SCR_SLEEPONEXIT_Msk));
 479              		.loc 1 247 5 is_stmt 1 view .LVU102
 480              		.loc 1 247 14 is_stmt 0 view .LVU103
 481 001e 034A     		ldr	r2, .L31
 482 0020 1369     		ldr	r3, [r2, #16]
 483 0022 43F00603 		orr	r3, r3, #6
 484 0026 1361     		str	r3, [r2, #16]
 485              	.L28:
 248:USB_DEVICE/Target/usbd_conf.c ****   }
 249:USB_DEVICE/Target/usbd_conf.c ****   /* USER CODE END 2 */
 250:USB_DEVICE/Target/usbd_conf.c **** }
 486              		.loc 1 250 1 view .LVU104
 487 0028 10BD     		pop	{r4, pc}
 488              	.LVL40:
 489              	.L32:
 490              		.loc 1 250 1 view .LVU105
 491 002a 00BF     		.align	2
 492              	.L31:
 493 002c 00ED00E0 		.word	-536810240
 494              		.cfi_endproc
 495              	.LFE145:
 497              		.section	.text.HAL_PCD_ResumeCallback,"ax",%progbits
 498              		.align	1
 499              		.global	HAL_PCD_ResumeCallback
 500              		.syntax unified
 501              		.thumb
 502              		.thumb_func
 503              		.fpu fpv4-sp-d16
 505              	HAL_PCD_ResumeCallback:
 506              	.LVL41:
 507              	.LFB146:
 251:USB_DEVICE/Target/usbd_conf.c **** 
 252:USB_DEVICE/Target/usbd_conf.c **** /**
 253:USB_DEVICE/Target/usbd_conf.c ****   * @brief  Resume callback.
 254:USB_DEVICE/Target/usbd_conf.c ****   * When Low power mode is enabled the debug cannot be used (IAR, Keil doesn't support it)
 255:USB_DEVICE/Target/usbd_conf.c ****   * @param  hpcd: PCD handle
 256:USB_DEVICE/Target/usbd_conf.c ****   * @retval None
 257:USB_DEVICE/Target/usbd_conf.c ****   */
 258:USB_DEVICE/Target/usbd_conf.c **** #if (USE_HAL_PCD_REGISTER_CALLBACKS == 1U)
 259:USB_DEVICE/Target/usbd_conf.c **** static void PCD_ResumeCallback(PCD_HandleTypeDef *hpcd)
 260:USB_DEVICE/Target/usbd_conf.c **** #else
 261:USB_DEVICE/Target/usbd_conf.c **** void HAL_PCD_ResumeCallback(PCD_HandleTypeDef *hpcd)
 262:USB_DEVICE/Target/usbd_conf.c **** #endif /* USE_HAL_PCD_REGISTER_CALLBACKS */
 263:USB_DEVICE/Target/usbd_conf.c **** {
 508              		.loc 1 263 1 is_stmt 1 view -0
 509              		.cfi_startproc
ARM GAS  /tmp/ccCaeJ1V.s 			page 15


 510              		@ args = 0, pretend = 0, frame = 0
 511              		@ frame_needed = 0, uses_anonymous_args = 0
 512              		.loc 1 263 1 is_stmt 0 view .LVU107
 513 0000 08B5     		push	{r3, lr}
 514              	.LCFI11:
 515              		.cfi_def_cfa_offset 8
 516              		.cfi_offset 3, -8
 517              		.cfi_offset 14, -4
 264:USB_DEVICE/Target/usbd_conf.c ****   /* USER CODE BEGIN 3 */
 265:USB_DEVICE/Target/usbd_conf.c **** 
 266:USB_DEVICE/Target/usbd_conf.c ****   /* USER CODE END 3 */
 267:USB_DEVICE/Target/usbd_conf.c ****   USBD_LL_Resume((USBD_HandleTypeDef*)hpcd->pData);
 518              		.loc 1 267 3 is_stmt 1 view .LVU108
 519 0002 D0F8E004 		ldr	r0, [r0, #1248]
 520              	.LVL42:
 521              		.loc 1 267 3 is_stmt 0 view .LVU109
 522 0006 FFF7FEFF 		bl	USBD_LL_Resume
 523              	.LVL43:
 268:USB_DEVICE/Target/usbd_conf.c **** }
 524              		.loc 1 268 1 view .LVU110
 525 000a 08BD     		pop	{r3, pc}
 526              		.cfi_endproc
 527              	.LFE146:
 529              		.section	.text.HAL_PCD_ISOOUTIncompleteCallback,"ax",%progbits
 530              		.align	1
 531              		.global	HAL_PCD_ISOOUTIncompleteCallback
 532              		.syntax unified
 533              		.thumb
 534              		.thumb_func
 535              		.fpu fpv4-sp-d16
 537              	HAL_PCD_ISOOUTIncompleteCallback:
 538              	.LVL44:
 539              	.LFB147:
 269:USB_DEVICE/Target/usbd_conf.c **** 
 270:USB_DEVICE/Target/usbd_conf.c **** /**
 271:USB_DEVICE/Target/usbd_conf.c ****   * @brief  ISOOUTIncomplete callback.
 272:USB_DEVICE/Target/usbd_conf.c ****   * @param  hpcd: PCD handle
 273:USB_DEVICE/Target/usbd_conf.c ****   * @param  epnum: Endpoint number
 274:USB_DEVICE/Target/usbd_conf.c ****   * @retval None
 275:USB_DEVICE/Target/usbd_conf.c ****   */
 276:USB_DEVICE/Target/usbd_conf.c **** #if (USE_HAL_PCD_REGISTER_CALLBACKS == 1U)
 277:USB_DEVICE/Target/usbd_conf.c **** static void PCD_ISOOUTIncompleteCallback(PCD_HandleTypeDef *hpcd, uint8_t epnum)
 278:USB_DEVICE/Target/usbd_conf.c **** #else
 279:USB_DEVICE/Target/usbd_conf.c **** void HAL_PCD_ISOOUTIncompleteCallback(PCD_HandleTypeDef *hpcd, uint8_t epnum)
 280:USB_DEVICE/Target/usbd_conf.c **** #endif /* USE_HAL_PCD_REGISTER_CALLBACKS */
 281:USB_DEVICE/Target/usbd_conf.c **** {
 540              		.loc 1 281 1 is_stmt 1 view -0
 541              		.cfi_startproc
 542              		@ args = 0, pretend = 0, frame = 0
 543              		@ frame_needed = 0, uses_anonymous_args = 0
 544              		.loc 1 281 1 is_stmt 0 view .LVU112
 545 0000 08B5     		push	{r3, lr}
 546              	.LCFI12:
 547              		.cfi_def_cfa_offset 8
 548              		.cfi_offset 3, -8
 549              		.cfi_offset 14, -4
 282:USB_DEVICE/Target/usbd_conf.c ****   USBD_LL_IsoOUTIncomplete((USBD_HandleTypeDef*)hpcd->pData, epnum);
ARM GAS  /tmp/ccCaeJ1V.s 			page 16


 550              		.loc 1 282 3 is_stmt 1 view .LVU113
 551 0002 D0F8E004 		ldr	r0, [r0, #1248]
 552              	.LVL45:
 553              		.loc 1 282 3 is_stmt 0 view .LVU114
 554 0006 FFF7FEFF 		bl	USBD_LL_IsoOUTIncomplete
 555              	.LVL46:
 283:USB_DEVICE/Target/usbd_conf.c **** }
 556              		.loc 1 283 1 view .LVU115
 557 000a 08BD     		pop	{r3, pc}
 558              		.cfi_endproc
 559              	.LFE147:
 561              		.section	.text.HAL_PCD_ISOINIncompleteCallback,"ax",%progbits
 562              		.align	1
 563              		.global	HAL_PCD_ISOINIncompleteCallback
 564              		.syntax unified
 565              		.thumb
 566              		.thumb_func
 567              		.fpu fpv4-sp-d16
 569              	HAL_PCD_ISOINIncompleteCallback:
 570              	.LVL47:
 571              	.LFB148:
 284:USB_DEVICE/Target/usbd_conf.c **** 
 285:USB_DEVICE/Target/usbd_conf.c **** /**
 286:USB_DEVICE/Target/usbd_conf.c ****   * @brief  ISOINIncomplete callback.
 287:USB_DEVICE/Target/usbd_conf.c ****   * @param  hpcd: PCD handle
 288:USB_DEVICE/Target/usbd_conf.c ****   * @param  epnum: Endpoint number
 289:USB_DEVICE/Target/usbd_conf.c ****   * @retval None
 290:USB_DEVICE/Target/usbd_conf.c ****   */
 291:USB_DEVICE/Target/usbd_conf.c **** #if (USE_HAL_PCD_REGISTER_CALLBACKS == 1U)
 292:USB_DEVICE/Target/usbd_conf.c **** static void PCD_ISOINIncompleteCallback(PCD_HandleTypeDef *hpcd, uint8_t epnum)
 293:USB_DEVICE/Target/usbd_conf.c **** #else
 294:USB_DEVICE/Target/usbd_conf.c **** void HAL_PCD_ISOINIncompleteCallback(PCD_HandleTypeDef *hpcd, uint8_t epnum)
 295:USB_DEVICE/Target/usbd_conf.c **** #endif /* USE_HAL_PCD_REGISTER_CALLBACKS */
 296:USB_DEVICE/Target/usbd_conf.c **** {
 572              		.loc 1 296 1 is_stmt 1 view -0
 573              		.cfi_startproc
 574              		@ args = 0, pretend = 0, frame = 0
 575              		@ frame_needed = 0, uses_anonymous_args = 0
 576              		.loc 1 296 1 is_stmt 0 view .LVU117
 577 0000 08B5     		push	{r3, lr}
 578              	.LCFI13:
 579              		.cfi_def_cfa_offset 8
 580              		.cfi_offset 3, -8
 581              		.cfi_offset 14, -4
 297:USB_DEVICE/Target/usbd_conf.c ****   USBD_LL_IsoINIncomplete((USBD_HandleTypeDef*)hpcd->pData, epnum);
 582              		.loc 1 297 3 is_stmt 1 view .LVU118
 583 0002 D0F8E004 		ldr	r0, [r0, #1248]
 584              	.LVL48:
 585              		.loc 1 297 3 is_stmt 0 view .LVU119
 586 0006 FFF7FEFF 		bl	USBD_LL_IsoINIncomplete
 587              	.LVL49:
 298:USB_DEVICE/Target/usbd_conf.c **** }
 588              		.loc 1 298 1 view .LVU120
 589 000a 08BD     		pop	{r3, pc}
 590              		.cfi_endproc
 591              	.LFE148:
 593              		.section	.text.HAL_PCD_ConnectCallback,"ax",%progbits
ARM GAS  /tmp/ccCaeJ1V.s 			page 17


 594              		.align	1
 595              		.global	HAL_PCD_ConnectCallback
 596              		.syntax unified
 597              		.thumb
 598              		.thumb_func
 599              		.fpu fpv4-sp-d16
 601              	HAL_PCD_ConnectCallback:
 602              	.LVL50:
 603              	.LFB149:
 299:USB_DEVICE/Target/usbd_conf.c **** 
 300:USB_DEVICE/Target/usbd_conf.c **** /**
 301:USB_DEVICE/Target/usbd_conf.c ****   * @brief  Connect callback.
 302:USB_DEVICE/Target/usbd_conf.c ****   * @param  hpcd: PCD handle
 303:USB_DEVICE/Target/usbd_conf.c ****   * @retval None
 304:USB_DEVICE/Target/usbd_conf.c ****   */
 305:USB_DEVICE/Target/usbd_conf.c **** #if (USE_HAL_PCD_REGISTER_CALLBACKS == 1U)
 306:USB_DEVICE/Target/usbd_conf.c **** static void PCD_ConnectCallback(PCD_HandleTypeDef *hpcd)
 307:USB_DEVICE/Target/usbd_conf.c **** #else
 308:USB_DEVICE/Target/usbd_conf.c **** void HAL_PCD_ConnectCallback(PCD_HandleTypeDef *hpcd)
 309:USB_DEVICE/Target/usbd_conf.c **** #endif /* USE_HAL_PCD_REGISTER_CALLBACKS */
 310:USB_DEVICE/Target/usbd_conf.c **** {
 604              		.loc 1 310 1 is_stmt 1 view -0
 605              		.cfi_startproc
 606              		@ args = 0, pretend = 0, frame = 0
 607              		@ frame_needed = 0, uses_anonymous_args = 0
 608              		.loc 1 310 1 is_stmt 0 view .LVU122
 609 0000 08B5     		push	{r3, lr}
 610              	.LCFI14:
 611              		.cfi_def_cfa_offset 8
 612              		.cfi_offset 3, -8
 613              		.cfi_offset 14, -4
 311:USB_DEVICE/Target/usbd_conf.c ****   USBD_LL_DevConnected((USBD_HandleTypeDef*)hpcd->pData);
 614              		.loc 1 311 3 is_stmt 1 view .LVU123
 615 0002 D0F8E004 		ldr	r0, [r0, #1248]
 616              	.LVL51:
 617              		.loc 1 311 3 is_stmt 0 view .LVU124
 618 0006 FFF7FEFF 		bl	USBD_LL_DevConnected
 619              	.LVL52:
 312:USB_DEVICE/Target/usbd_conf.c **** }
 620              		.loc 1 312 1 view .LVU125
 621 000a 08BD     		pop	{r3, pc}
 622              		.cfi_endproc
 623              	.LFE149:
 625              		.section	.text.HAL_PCD_DisconnectCallback,"ax",%progbits
 626              		.align	1
 627              		.global	HAL_PCD_DisconnectCallback
 628              		.syntax unified
 629              		.thumb
 630              		.thumb_func
 631              		.fpu fpv4-sp-d16
 633              	HAL_PCD_DisconnectCallback:
 634              	.LVL53:
 635              	.LFB150:
 313:USB_DEVICE/Target/usbd_conf.c **** 
 314:USB_DEVICE/Target/usbd_conf.c **** /**
 315:USB_DEVICE/Target/usbd_conf.c ****   * @brief  Disconnect callback.
 316:USB_DEVICE/Target/usbd_conf.c ****   * @param  hpcd: PCD handle
ARM GAS  /tmp/ccCaeJ1V.s 			page 18


 317:USB_DEVICE/Target/usbd_conf.c ****   * @retval None
 318:USB_DEVICE/Target/usbd_conf.c ****   */
 319:USB_DEVICE/Target/usbd_conf.c **** #if (USE_HAL_PCD_REGISTER_CALLBACKS == 1U)
 320:USB_DEVICE/Target/usbd_conf.c **** static void PCD_DisconnectCallback(PCD_HandleTypeDef *hpcd)
 321:USB_DEVICE/Target/usbd_conf.c **** #else
 322:USB_DEVICE/Target/usbd_conf.c **** void HAL_PCD_DisconnectCallback(PCD_HandleTypeDef *hpcd)
 323:USB_DEVICE/Target/usbd_conf.c **** #endif /* USE_HAL_PCD_REGISTER_CALLBACKS */
 324:USB_DEVICE/Target/usbd_conf.c **** {
 636              		.loc 1 324 1 is_stmt 1 view -0
 637              		.cfi_startproc
 638              		@ args = 0, pretend = 0, frame = 0
 639              		@ frame_needed = 0, uses_anonymous_args = 0
 640              		.loc 1 324 1 is_stmt 0 view .LVU127
 641 0000 08B5     		push	{r3, lr}
 642              	.LCFI15:
 643              		.cfi_def_cfa_offset 8
 644              		.cfi_offset 3, -8
 645              		.cfi_offset 14, -4
 325:USB_DEVICE/Target/usbd_conf.c ****   USBD_LL_DevDisconnected((USBD_HandleTypeDef*)hpcd->pData);
 646              		.loc 1 325 3 is_stmt 1 view .LVU128
 647 0002 D0F8E004 		ldr	r0, [r0, #1248]
 648              	.LVL54:
 649              		.loc 1 325 3 is_stmt 0 view .LVU129
 650 0006 FFF7FEFF 		bl	USBD_LL_DevDisconnected
 651              	.LVL55:
 326:USB_DEVICE/Target/usbd_conf.c **** }
 652              		.loc 1 326 1 view .LVU130
 653 000a 08BD     		pop	{r3, pc}
 654              		.cfi_endproc
 655              	.LFE150:
 657              		.section	.text.USBD_LL_Init,"ax",%progbits
 658              		.align	1
 659              		.global	USBD_LL_Init
 660              		.syntax unified
 661              		.thumb
 662              		.thumb_func
 663              		.fpu fpv4-sp-d16
 665              	USBD_LL_Init:
 666              	.LVL56:
 667              	.LFB151:
 327:USB_DEVICE/Target/usbd_conf.c **** 
 328:USB_DEVICE/Target/usbd_conf.c **** /*******************************************************************************
 329:USB_DEVICE/Target/usbd_conf.c ****                        LL Driver Interface (USB Device Library --> PCD)
 330:USB_DEVICE/Target/usbd_conf.c **** *******************************************************************************/
 331:USB_DEVICE/Target/usbd_conf.c **** 
 332:USB_DEVICE/Target/usbd_conf.c **** /**
 333:USB_DEVICE/Target/usbd_conf.c ****   * @brief  Initializes the low level portion of the device driver.
 334:USB_DEVICE/Target/usbd_conf.c ****   * @param  pdev: Device handle
 335:USB_DEVICE/Target/usbd_conf.c ****   * @retval USBD status
 336:USB_DEVICE/Target/usbd_conf.c ****   */
 337:USB_DEVICE/Target/usbd_conf.c **** USBD_StatusTypeDef USBD_LL_Init(USBD_HandleTypeDef *pdev)
 338:USB_DEVICE/Target/usbd_conf.c **** {
 668              		.loc 1 338 1 is_stmt 1 view -0
 669              		.cfi_startproc
 670              		@ args = 0, pretend = 0, frame = 0
 671              		@ frame_needed = 0, uses_anonymous_args = 0
 339:USB_DEVICE/Target/usbd_conf.c ****   /* Init USB Ip. */
ARM GAS  /tmp/ccCaeJ1V.s 			page 19


 340:USB_DEVICE/Target/usbd_conf.c ****   if (pdev->id == DEVICE_FS) {
 672              		.loc 1 340 3 view .LVU132
 673              		.loc 1 340 11 is_stmt 0 view .LVU133
 674 0000 0278     		ldrb	r2, [r0]	@ zero_extendqisi2
 675              		.loc 1 340 6 view .LVU134
 676 0002 0AB1     		cbz	r2, .L50
 341:USB_DEVICE/Target/usbd_conf.c ****   /* Link the driver to the stack. */
 342:USB_DEVICE/Target/usbd_conf.c ****   hpcd_USB_OTG_FS.pData = pdev;
 343:USB_DEVICE/Target/usbd_conf.c ****   pdev->pData = &hpcd_USB_OTG_FS;
 344:USB_DEVICE/Target/usbd_conf.c **** 
 345:USB_DEVICE/Target/usbd_conf.c ****   hpcd_USB_OTG_FS.Instance = USB_OTG_FS;
 346:USB_DEVICE/Target/usbd_conf.c ****   hpcd_USB_OTG_FS.Init.dev_endpoints = 6;
 347:USB_DEVICE/Target/usbd_conf.c ****   hpcd_USB_OTG_FS.Init.speed = PCD_SPEED_FULL;
 348:USB_DEVICE/Target/usbd_conf.c ****   hpcd_USB_OTG_FS.Init.dma_enable = DISABLE;
 349:USB_DEVICE/Target/usbd_conf.c ****   hpcd_USB_OTG_FS.Init.phy_itface = PCD_PHY_EMBEDDED;
 350:USB_DEVICE/Target/usbd_conf.c ****   hpcd_USB_OTG_FS.Init.Sof_enable = DISABLE;
 351:USB_DEVICE/Target/usbd_conf.c ****   hpcd_USB_OTG_FS.Init.low_power_enable = DISABLE;
 352:USB_DEVICE/Target/usbd_conf.c ****   hpcd_USB_OTG_FS.Init.lpm_enable = DISABLE;
 353:USB_DEVICE/Target/usbd_conf.c ****   hpcd_USB_OTG_FS.Init.vbus_sensing_enable = DISABLE;
 354:USB_DEVICE/Target/usbd_conf.c ****   hpcd_USB_OTG_FS.Init.use_dedicated_ep1 = DISABLE;
 355:USB_DEVICE/Target/usbd_conf.c ****   if (HAL_PCD_Init(&hpcd_USB_OTG_FS) != HAL_OK)
 356:USB_DEVICE/Target/usbd_conf.c ****   {
 357:USB_DEVICE/Target/usbd_conf.c ****     Error_Handler( );
 358:USB_DEVICE/Target/usbd_conf.c ****   }
 359:USB_DEVICE/Target/usbd_conf.c **** 
 360:USB_DEVICE/Target/usbd_conf.c **** #if (USE_HAL_PCD_REGISTER_CALLBACKS == 1U)
 361:USB_DEVICE/Target/usbd_conf.c ****   /* Register USB PCD CallBacks */
 362:USB_DEVICE/Target/usbd_conf.c ****   HAL_PCD_RegisterCallback(&hpcd_USB_OTG_FS, HAL_PCD_SOF_CB_ID, PCD_SOFCallback);
 363:USB_DEVICE/Target/usbd_conf.c ****   HAL_PCD_RegisterCallback(&hpcd_USB_OTG_FS, HAL_PCD_SETUPSTAGE_CB_ID, PCD_SetupStageCallback);
 364:USB_DEVICE/Target/usbd_conf.c ****   HAL_PCD_RegisterCallback(&hpcd_USB_OTG_FS, HAL_PCD_RESET_CB_ID, PCD_ResetCallback);
 365:USB_DEVICE/Target/usbd_conf.c ****   HAL_PCD_RegisterCallback(&hpcd_USB_OTG_FS, HAL_PCD_SUSPEND_CB_ID, PCD_SuspendCallback);
 366:USB_DEVICE/Target/usbd_conf.c ****   HAL_PCD_RegisterCallback(&hpcd_USB_OTG_FS, HAL_PCD_RESUME_CB_ID, PCD_ResumeCallback);
 367:USB_DEVICE/Target/usbd_conf.c ****   HAL_PCD_RegisterCallback(&hpcd_USB_OTG_FS, HAL_PCD_CONNECT_CB_ID, PCD_ConnectCallback);
 368:USB_DEVICE/Target/usbd_conf.c ****   HAL_PCD_RegisterCallback(&hpcd_USB_OTG_FS, HAL_PCD_DISCONNECT_CB_ID, PCD_DisconnectCallback);
 369:USB_DEVICE/Target/usbd_conf.c **** 
 370:USB_DEVICE/Target/usbd_conf.c ****   HAL_PCD_RegisterDataOutStageCallback(&hpcd_USB_OTG_FS, PCD_DataOutStageCallback);
 371:USB_DEVICE/Target/usbd_conf.c ****   HAL_PCD_RegisterDataInStageCallback(&hpcd_USB_OTG_FS, PCD_DataInStageCallback);
 372:USB_DEVICE/Target/usbd_conf.c ****   HAL_PCD_RegisterIsoOutIncpltCallback(&hpcd_USB_OTG_FS, PCD_ISOOUTIncompleteCallback);
 373:USB_DEVICE/Target/usbd_conf.c ****   HAL_PCD_RegisterIsoInIncpltCallback(&hpcd_USB_OTG_FS, PCD_ISOINIncompleteCallback);
 374:USB_DEVICE/Target/usbd_conf.c **** #endif /* USE_HAL_PCD_REGISTER_CALLBACKS */
 375:USB_DEVICE/Target/usbd_conf.c ****   HAL_PCDEx_SetRxFiFo(&hpcd_USB_OTG_FS, 0x80);
 376:USB_DEVICE/Target/usbd_conf.c ****   HAL_PCDEx_SetTxFiFo(&hpcd_USB_OTG_FS, 0, 0x40);
 377:USB_DEVICE/Target/usbd_conf.c ****   HAL_PCDEx_SetTxFiFo(&hpcd_USB_OTG_FS, 1, 0x80);
 378:USB_DEVICE/Target/usbd_conf.c ****   }
 379:USB_DEVICE/Target/usbd_conf.c ****   return USBD_OK;
 677              		.loc 1 379 3 is_stmt 1 view .LVU135
 380:USB_DEVICE/Target/usbd_conf.c **** }
 678              		.loc 1 380 1 is_stmt 0 view .LVU136
 679 0004 0020     		movs	r0, #0
 680              	.LVL57:
 681              		.loc 1 380 1 view .LVU137
 682 0006 7047     		bx	lr
 683              	.LVL58:
 684              	.L50:
 338:USB_DEVICE/Target/usbd_conf.c ****   /* Init USB Ip. */
 685              		.loc 1 338 1 view .LVU138
 686 0008 10B5     		push	{r4, lr}
ARM GAS  /tmp/ccCaeJ1V.s 			page 20


 687              	.LCFI16:
 688              		.cfi_def_cfa_offset 8
 689              		.cfi_offset 4, -8
 690              		.cfi_offset 14, -4
 691 000a 0346     		mov	r3, r0
 342:USB_DEVICE/Target/usbd_conf.c ****   pdev->pData = &hpcd_USB_OTG_FS;
 692              		.loc 1 342 3 is_stmt 1 view .LVU139
 342:USB_DEVICE/Target/usbd_conf.c ****   pdev->pData = &hpcd_USB_OTG_FS;
 693              		.loc 1 342 25 is_stmt 0 view .LVU140
 694 000c 1548     		ldr	r0, .L52
 695              	.LVL59:
 342:USB_DEVICE/Target/usbd_conf.c ****   pdev->pData = &hpcd_USB_OTG_FS;
 696              		.loc 1 342 25 view .LVU141
 697 000e C0F8E034 		str	r3, [r0, #1248]
 343:USB_DEVICE/Target/usbd_conf.c **** 
 698              		.loc 1 343 3 is_stmt 1 view .LVU142
 343:USB_DEVICE/Target/usbd_conf.c **** 
 699              		.loc 1 343 15 is_stmt 0 view .LVU143
 700 0012 C3F8C802 		str	r0, [r3, #712]
 345:USB_DEVICE/Target/usbd_conf.c ****   hpcd_USB_OTG_FS.Init.dev_endpoints = 6;
 701              		.loc 1 345 3 is_stmt 1 view .LVU144
 345:USB_DEVICE/Target/usbd_conf.c ****   hpcd_USB_OTG_FS.Init.dev_endpoints = 6;
 702              		.loc 1 345 28 is_stmt 0 view .LVU145
 703 0016 4FF0A043 		mov	r3, #1342177280
 704              	.LVL60:
 345:USB_DEVICE/Target/usbd_conf.c ****   hpcd_USB_OTG_FS.Init.dev_endpoints = 6;
 705              		.loc 1 345 28 view .LVU146
 706 001a 0360     		str	r3, [r0]
 346:USB_DEVICE/Target/usbd_conf.c ****   hpcd_USB_OTG_FS.Init.speed = PCD_SPEED_FULL;
 707              		.loc 1 346 3 is_stmt 1 view .LVU147
 346:USB_DEVICE/Target/usbd_conf.c ****   hpcd_USB_OTG_FS.Init.speed = PCD_SPEED_FULL;
 708              		.loc 1 346 38 is_stmt 0 view .LVU148
 709 001c 0623     		movs	r3, #6
 710 001e 0371     		strb	r3, [r0, #4]
 347:USB_DEVICE/Target/usbd_conf.c ****   hpcd_USB_OTG_FS.Init.dma_enable = DISABLE;
 711              		.loc 1 347 3 is_stmt 1 view .LVU149
 347:USB_DEVICE/Target/usbd_conf.c ****   hpcd_USB_OTG_FS.Init.dma_enable = DISABLE;
 712              		.loc 1 347 30 is_stmt 0 view .LVU150
 713 0020 0222     		movs	r2, #2
 714 0022 C271     		strb	r2, [r0, #7]
 348:USB_DEVICE/Target/usbd_conf.c ****   hpcd_USB_OTG_FS.Init.phy_itface = PCD_PHY_EMBEDDED;
 715              		.loc 1 348 3 is_stmt 1 view .LVU151
 348:USB_DEVICE/Target/usbd_conf.c ****   hpcd_USB_OTG_FS.Init.phy_itface = PCD_PHY_EMBEDDED;
 716              		.loc 1 348 35 is_stmt 0 view .LVU152
 717 0024 0023     		movs	r3, #0
 718 0026 8371     		strb	r3, [r0, #6]
 349:USB_DEVICE/Target/usbd_conf.c ****   hpcd_USB_OTG_FS.Init.Sof_enable = DISABLE;
 719              		.loc 1 349 3 is_stmt 1 view .LVU153
 349:USB_DEVICE/Target/usbd_conf.c ****   hpcd_USB_OTG_FS.Init.Sof_enable = DISABLE;
 720              		.loc 1 349 35 is_stmt 0 view .LVU154
 721 0028 4272     		strb	r2, [r0, #9]
 350:USB_DEVICE/Target/usbd_conf.c ****   hpcd_USB_OTG_FS.Init.low_power_enable = DISABLE;
 722              		.loc 1 350 3 is_stmt 1 view .LVU155
 350:USB_DEVICE/Target/usbd_conf.c ****   hpcd_USB_OTG_FS.Init.low_power_enable = DISABLE;
 723              		.loc 1 350 35 is_stmt 0 view .LVU156
 724 002a 8372     		strb	r3, [r0, #10]
 351:USB_DEVICE/Target/usbd_conf.c ****   hpcd_USB_OTG_FS.Init.lpm_enable = DISABLE;
ARM GAS  /tmp/ccCaeJ1V.s 			page 21


 725              		.loc 1 351 3 is_stmt 1 view .LVU157
 351:USB_DEVICE/Target/usbd_conf.c ****   hpcd_USB_OTG_FS.Init.lpm_enable = DISABLE;
 726              		.loc 1 351 41 is_stmt 0 view .LVU158
 727 002c C372     		strb	r3, [r0, #11]
 352:USB_DEVICE/Target/usbd_conf.c ****   hpcd_USB_OTG_FS.Init.vbus_sensing_enable = DISABLE;
 728              		.loc 1 352 3 is_stmt 1 view .LVU159
 352:USB_DEVICE/Target/usbd_conf.c ****   hpcd_USB_OTG_FS.Init.vbus_sensing_enable = DISABLE;
 729              		.loc 1 352 35 is_stmt 0 view .LVU160
 730 002e 0373     		strb	r3, [r0, #12]
 353:USB_DEVICE/Target/usbd_conf.c ****   hpcd_USB_OTG_FS.Init.use_dedicated_ep1 = DISABLE;
 731              		.loc 1 353 3 is_stmt 1 view .LVU161
 353:USB_DEVICE/Target/usbd_conf.c ****   hpcd_USB_OTG_FS.Init.use_dedicated_ep1 = DISABLE;
 732              		.loc 1 353 44 is_stmt 0 view .LVU162
 733 0030 8373     		strb	r3, [r0, #14]
 354:USB_DEVICE/Target/usbd_conf.c ****   if (HAL_PCD_Init(&hpcd_USB_OTG_FS) != HAL_OK)
 734              		.loc 1 354 3 is_stmt 1 view .LVU163
 354:USB_DEVICE/Target/usbd_conf.c ****   if (HAL_PCD_Init(&hpcd_USB_OTG_FS) != HAL_OK)
 735              		.loc 1 354 42 is_stmt 0 view .LVU164
 736 0032 C373     		strb	r3, [r0, #15]
 355:USB_DEVICE/Target/usbd_conf.c ****   {
 737              		.loc 1 355 3 is_stmt 1 view .LVU165
 355:USB_DEVICE/Target/usbd_conf.c ****   {
 738              		.loc 1 355 7 is_stmt 0 view .LVU166
 739 0034 FFF7FEFF 		bl	HAL_PCD_Init
 740              	.LVL61:
 355:USB_DEVICE/Target/usbd_conf.c ****   {
 741              		.loc 1 355 6 view .LVU167
 742 0038 80B9     		cbnz	r0, .L51
 743              	.L45:
 375:USB_DEVICE/Target/usbd_conf.c ****   HAL_PCDEx_SetTxFiFo(&hpcd_USB_OTG_FS, 0, 0x40);
 744              		.loc 1 375 3 is_stmt 1 view .LVU168
 745 003a 0A4C     		ldr	r4, .L52
 746 003c 8021     		movs	r1, #128
 747 003e 2046     		mov	r0, r4
 748 0040 FFF7FEFF 		bl	HAL_PCDEx_SetRxFiFo
 749              	.LVL62:
 376:USB_DEVICE/Target/usbd_conf.c ****   HAL_PCDEx_SetTxFiFo(&hpcd_USB_OTG_FS, 1, 0x80);
 750              		.loc 1 376 3 view .LVU169
 751 0044 4022     		movs	r2, #64
 752 0046 0021     		movs	r1, #0
 753 0048 2046     		mov	r0, r4
 754 004a FFF7FEFF 		bl	HAL_PCDEx_SetTxFiFo
 755              	.LVL63:
 377:USB_DEVICE/Target/usbd_conf.c ****   }
 756              		.loc 1 377 3 view .LVU170
 757 004e 8022     		movs	r2, #128
 758 0050 0121     		movs	r1, #1
 759 0052 2046     		mov	r0, r4
 760 0054 FFF7FEFF 		bl	HAL_PCDEx_SetTxFiFo
 761              	.LVL64:
 379:USB_DEVICE/Target/usbd_conf.c **** }
 762              		.loc 1 379 3 view .LVU171
 763              		.loc 1 380 1 is_stmt 0 view .LVU172
 764 0058 0020     		movs	r0, #0
 765 005a 10BD     		pop	{r4, pc}
 766              	.L51:
 357:USB_DEVICE/Target/usbd_conf.c ****   }
ARM GAS  /tmp/ccCaeJ1V.s 			page 22


 767              		.loc 1 357 5 is_stmt 1 view .LVU173
 768 005c FFF7FEFF 		bl	Error_Handler
 769              	.LVL65:
 770 0060 EBE7     		b	.L45
 771              	.L53:
 772 0062 00BF     		.align	2
 773              	.L52:
 774 0064 00000000 		.word	hpcd_USB_OTG_FS
 775              		.cfi_endproc
 776              	.LFE151:
 778              		.section	.text.USBD_LL_IsStallEP,"ax",%progbits
 779              		.align	1
 780              		.global	USBD_LL_IsStallEP
 781              		.syntax unified
 782              		.thumb
 783              		.thumb_func
 784              		.fpu fpv4-sp-d16
 786              	USBD_LL_IsStallEP:
 787              	.LVL66:
 788              	.LFB160:
 381:USB_DEVICE/Target/usbd_conf.c **** 
 382:USB_DEVICE/Target/usbd_conf.c **** /**
 383:USB_DEVICE/Target/usbd_conf.c ****   * @brief  De-Initializes the low level portion of the device driver.
 384:USB_DEVICE/Target/usbd_conf.c ****   * @param  pdev: Device handle
 385:USB_DEVICE/Target/usbd_conf.c ****   * @retval USBD status
 386:USB_DEVICE/Target/usbd_conf.c ****   */
 387:USB_DEVICE/Target/usbd_conf.c **** USBD_StatusTypeDef USBD_LL_DeInit(USBD_HandleTypeDef *pdev)
 388:USB_DEVICE/Target/usbd_conf.c **** {
 389:USB_DEVICE/Target/usbd_conf.c ****   HAL_StatusTypeDef hal_status = HAL_OK;
 390:USB_DEVICE/Target/usbd_conf.c ****   USBD_StatusTypeDef usb_status = USBD_OK;
 391:USB_DEVICE/Target/usbd_conf.c **** 
 392:USB_DEVICE/Target/usbd_conf.c ****   hal_status = HAL_PCD_DeInit(pdev->pData);
 393:USB_DEVICE/Target/usbd_conf.c **** 
 394:USB_DEVICE/Target/usbd_conf.c ****   usb_status =  USBD_Get_USB_Status(hal_status);
 395:USB_DEVICE/Target/usbd_conf.c **** 
 396:USB_DEVICE/Target/usbd_conf.c ****   return usb_status;
 397:USB_DEVICE/Target/usbd_conf.c **** }
 398:USB_DEVICE/Target/usbd_conf.c **** 
 399:USB_DEVICE/Target/usbd_conf.c **** /**
 400:USB_DEVICE/Target/usbd_conf.c ****   * @brief  Starts the low level portion of the device driver.
 401:USB_DEVICE/Target/usbd_conf.c ****   * @param  pdev: Device handle
 402:USB_DEVICE/Target/usbd_conf.c ****   * @retval USBD status
 403:USB_DEVICE/Target/usbd_conf.c ****   */
 404:USB_DEVICE/Target/usbd_conf.c **** USBD_StatusTypeDef USBD_LL_Start(USBD_HandleTypeDef *pdev)
 405:USB_DEVICE/Target/usbd_conf.c **** {
 406:USB_DEVICE/Target/usbd_conf.c ****   HAL_StatusTypeDef hal_status = HAL_OK;
 407:USB_DEVICE/Target/usbd_conf.c ****   USBD_StatusTypeDef usb_status = USBD_OK;
 408:USB_DEVICE/Target/usbd_conf.c **** 
 409:USB_DEVICE/Target/usbd_conf.c ****   hal_status = HAL_PCD_Start(pdev->pData);
 410:USB_DEVICE/Target/usbd_conf.c **** 
 411:USB_DEVICE/Target/usbd_conf.c ****   usb_status =  USBD_Get_USB_Status(hal_status);
 412:USB_DEVICE/Target/usbd_conf.c **** 
 413:USB_DEVICE/Target/usbd_conf.c ****   return usb_status;
 414:USB_DEVICE/Target/usbd_conf.c **** }
 415:USB_DEVICE/Target/usbd_conf.c **** 
 416:USB_DEVICE/Target/usbd_conf.c **** /**
 417:USB_DEVICE/Target/usbd_conf.c ****   * @brief  Stops the low level portion of the device driver.
ARM GAS  /tmp/ccCaeJ1V.s 			page 23


 418:USB_DEVICE/Target/usbd_conf.c ****   * @param  pdev: Device handle
 419:USB_DEVICE/Target/usbd_conf.c ****   * @retval USBD status
 420:USB_DEVICE/Target/usbd_conf.c ****   */
 421:USB_DEVICE/Target/usbd_conf.c **** USBD_StatusTypeDef USBD_LL_Stop(USBD_HandleTypeDef *pdev)
 422:USB_DEVICE/Target/usbd_conf.c **** {
 423:USB_DEVICE/Target/usbd_conf.c ****   HAL_StatusTypeDef hal_status = HAL_OK;
 424:USB_DEVICE/Target/usbd_conf.c ****   USBD_StatusTypeDef usb_status = USBD_OK;
 425:USB_DEVICE/Target/usbd_conf.c **** 
 426:USB_DEVICE/Target/usbd_conf.c ****   hal_status = HAL_PCD_Stop(pdev->pData);
 427:USB_DEVICE/Target/usbd_conf.c **** 
 428:USB_DEVICE/Target/usbd_conf.c ****   usb_status =  USBD_Get_USB_Status(hal_status);
 429:USB_DEVICE/Target/usbd_conf.c **** 
 430:USB_DEVICE/Target/usbd_conf.c ****   return usb_status;
 431:USB_DEVICE/Target/usbd_conf.c **** }
 432:USB_DEVICE/Target/usbd_conf.c **** 
 433:USB_DEVICE/Target/usbd_conf.c **** /**
 434:USB_DEVICE/Target/usbd_conf.c ****   * @brief  Opens an endpoint of the low level driver.
 435:USB_DEVICE/Target/usbd_conf.c ****   * @param  pdev: Device handle
 436:USB_DEVICE/Target/usbd_conf.c ****   * @param  ep_addr: Endpoint number
 437:USB_DEVICE/Target/usbd_conf.c ****   * @param  ep_type: Endpoint type
 438:USB_DEVICE/Target/usbd_conf.c ****   * @param  ep_mps: Endpoint max packet size
 439:USB_DEVICE/Target/usbd_conf.c ****   * @retval USBD status
 440:USB_DEVICE/Target/usbd_conf.c ****   */
 441:USB_DEVICE/Target/usbd_conf.c **** USBD_StatusTypeDef USBD_LL_OpenEP(USBD_HandleTypeDef *pdev, uint8_t ep_addr, uint8_t ep_type, uint1
 442:USB_DEVICE/Target/usbd_conf.c **** {
 443:USB_DEVICE/Target/usbd_conf.c ****   HAL_StatusTypeDef hal_status = HAL_OK;
 444:USB_DEVICE/Target/usbd_conf.c ****   USBD_StatusTypeDef usb_status = USBD_OK;
 445:USB_DEVICE/Target/usbd_conf.c **** 
 446:USB_DEVICE/Target/usbd_conf.c ****   hal_status = HAL_PCD_EP_Open(pdev->pData, ep_addr, ep_mps, ep_type);
 447:USB_DEVICE/Target/usbd_conf.c **** 
 448:USB_DEVICE/Target/usbd_conf.c ****   usb_status =  USBD_Get_USB_Status(hal_status);
 449:USB_DEVICE/Target/usbd_conf.c **** 
 450:USB_DEVICE/Target/usbd_conf.c ****   return usb_status;
 451:USB_DEVICE/Target/usbd_conf.c **** }
 452:USB_DEVICE/Target/usbd_conf.c **** 
 453:USB_DEVICE/Target/usbd_conf.c **** /**
 454:USB_DEVICE/Target/usbd_conf.c ****   * @brief  Closes an endpoint of the low level driver.
 455:USB_DEVICE/Target/usbd_conf.c ****   * @param  pdev: Device handle
 456:USB_DEVICE/Target/usbd_conf.c ****   * @param  ep_addr: Endpoint number
 457:USB_DEVICE/Target/usbd_conf.c ****   * @retval USBD status
 458:USB_DEVICE/Target/usbd_conf.c ****   */
 459:USB_DEVICE/Target/usbd_conf.c **** USBD_StatusTypeDef USBD_LL_CloseEP(USBD_HandleTypeDef *pdev, uint8_t ep_addr)
 460:USB_DEVICE/Target/usbd_conf.c **** {
 461:USB_DEVICE/Target/usbd_conf.c ****   HAL_StatusTypeDef hal_status = HAL_OK;
 462:USB_DEVICE/Target/usbd_conf.c ****   USBD_StatusTypeDef usb_status = USBD_OK;
 463:USB_DEVICE/Target/usbd_conf.c **** 
 464:USB_DEVICE/Target/usbd_conf.c ****   hal_status = HAL_PCD_EP_Close(pdev->pData, ep_addr);
 465:USB_DEVICE/Target/usbd_conf.c **** 
 466:USB_DEVICE/Target/usbd_conf.c ****   usb_status =  USBD_Get_USB_Status(hal_status);
 467:USB_DEVICE/Target/usbd_conf.c **** 
 468:USB_DEVICE/Target/usbd_conf.c ****   return usb_status;
 469:USB_DEVICE/Target/usbd_conf.c **** }
 470:USB_DEVICE/Target/usbd_conf.c **** 
 471:USB_DEVICE/Target/usbd_conf.c **** /**
 472:USB_DEVICE/Target/usbd_conf.c ****   * @brief  Flushes an endpoint of the Low Level Driver.
 473:USB_DEVICE/Target/usbd_conf.c ****   * @param  pdev: Device handle
 474:USB_DEVICE/Target/usbd_conf.c ****   * @param  ep_addr: Endpoint number
ARM GAS  /tmp/ccCaeJ1V.s 			page 24


 475:USB_DEVICE/Target/usbd_conf.c ****   * @retval USBD status
 476:USB_DEVICE/Target/usbd_conf.c ****   */
 477:USB_DEVICE/Target/usbd_conf.c **** USBD_StatusTypeDef USBD_LL_FlushEP(USBD_HandleTypeDef *pdev, uint8_t ep_addr)
 478:USB_DEVICE/Target/usbd_conf.c **** {
 479:USB_DEVICE/Target/usbd_conf.c ****   HAL_StatusTypeDef hal_status = HAL_OK;
 480:USB_DEVICE/Target/usbd_conf.c ****   USBD_StatusTypeDef usb_status = USBD_OK;
 481:USB_DEVICE/Target/usbd_conf.c **** 
 482:USB_DEVICE/Target/usbd_conf.c ****   hal_status = HAL_PCD_EP_Flush(pdev->pData, ep_addr);
 483:USB_DEVICE/Target/usbd_conf.c **** 
 484:USB_DEVICE/Target/usbd_conf.c ****   usb_status =  USBD_Get_USB_Status(hal_status);
 485:USB_DEVICE/Target/usbd_conf.c **** 
 486:USB_DEVICE/Target/usbd_conf.c ****   return usb_status;
 487:USB_DEVICE/Target/usbd_conf.c **** }
 488:USB_DEVICE/Target/usbd_conf.c **** 
 489:USB_DEVICE/Target/usbd_conf.c **** /**
 490:USB_DEVICE/Target/usbd_conf.c ****   * @brief  Sets a Stall condition on an endpoint of the Low Level Driver.
 491:USB_DEVICE/Target/usbd_conf.c ****   * @param  pdev: Device handle
 492:USB_DEVICE/Target/usbd_conf.c ****   * @param  ep_addr: Endpoint number
 493:USB_DEVICE/Target/usbd_conf.c ****   * @retval USBD status
 494:USB_DEVICE/Target/usbd_conf.c ****   */
 495:USB_DEVICE/Target/usbd_conf.c **** USBD_StatusTypeDef USBD_LL_StallEP(USBD_HandleTypeDef *pdev, uint8_t ep_addr)
 496:USB_DEVICE/Target/usbd_conf.c **** {
 497:USB_DEVICE/Target/usbd_conf.c ****   HAL_StatusTypeDef hal_status = HAL_OK;
 498:USB_DEVICE/Target/usbd_conf.c ****   USBD_StatusTypeDef usb_status = USBD_OK;
 499:USB_DEVICE/Target/usbd_conf.c **** 
 500:USB_DEVICE/Target/usbd_conf.c ****   hal_status = HAL_PCD_EP_SetStall(pdev->pData, ep_addr);
 501:USB_DEVICE/Target/usbd_conf.c **** 
 502:USB_DEVICE/Target/usbd_conf.c ****   usb_status =  USBD_Get_USB_Status(hal_status);
 503:USB_DEVICE/Target/usbd_conf.c **** 
 504:USB_DEVICE/Target/usbd_conf.c ****   return usb_status;
 505:USB_DEVICE/Target/usbd_conf.c **** }
 506:USB_DEVICE/Target/usbd_conf.c **** 
 507:USB_DEVICE/Target/usbd_conf.c **** /**
 508:USB_DEVICE/Target/usbd_conf.c ****   * @brief  Clears a Stall condition on an endpoint of the Low Level Driver.
 509:USB_DEVICE/Target/usbd_conf.c ****   * @param  pdev: Device handle
 510:USB_DEVICE/Target/usbd_conf.c ****   * @param  ep_addr: Endpoint number
 511:USB_DEVICE/Target/usbd_conf.c ****   * @retval USBD status
 512:USB_DEVICE/Target/usbd_conf.c ****   */
 513:USB_DEVICE/Target/usbd_conf.c **** USBD_StatusTypeDef USBD_LL_ClearStallEP(USBD_HandleTypeDef *pdev, uint8_t ep_addr)
 514:USB_DEVICE/Target/usbd_conf.c **** {
 515:USB_DEVICE/Target/usbd_conf.c ****   HAL_StatusTypeDef hal_status = HAL_OK;
 516:USB_DEVICE/Target/usbd_conf.c ****   USBD_StatusTypeDef usb_status = USBD_OK;
 517:USB_DEVICE/Target/usbd_conf.c **** 
 518:USB_DEVICE/Target/usbd_conf.c ****   hal_status = HAL_PCD_EP_ClrStall(pdev->pData, ep_addr);
 519:USB_DEVICE/Target/usbd_conf.c **** 
 520:USB_DEVICE/Target/usbd_conf.c ****   usb_status =  USBD_Get_USB_Status(hal_status);
 521:USB_DEVICE/Target/usbd_conf.c **** 
 522:USB_DEVICE/Target/usbd_conf.c ****   return usb_status;
 523:USB_DEVICE/Target/usbd_conf.c **** }
 524:USB_DEVICE/Target/usbd_conf.c **** 
 525:USB_DEVICE/Target/usbd_conf.c **** /**
 526:USB_DEVICE/Target/usbd_conf.c ****   * @brief  Returns Stall condition.
 527:USB_DEVICE/Target/usbd_conf.c ****   * @param  pdev: Device handle
 528:USB_DEVICE/Target/usbd_conf.c ****   * @param  ep_addr: Endpoint number
 529:USB_DEVICE/Target/usbd_conf.c ****   * @retval Stall (1: Yes, 0: No)
 530:USB_DEVICE/Target/usbd_conf.c ****   */
 531:USB_DEVICE/Target/usbd_conf.c **** uint8_t USBD_LL_IsStallEP(USBD_HandleTypeDef *pdev, uint8_t ep_addr)
ARM GAS  /tmp/ccCaeJ1V.s 			page 25


 532:USB_DEVICE/Target/usbd_conf.c **** {
 789              		.loc 1 532 1 view -0
 790              		.cfi_startproc
 791              		@ args = 0, pretend = 0, frame = 0
 792              		@ frame_needed = 0, uses_anonymous_args = 0
 793              		@ link register save eliminated.
 533:USB_DEVICE/Target/usbd_conf.c ****   PCD_HandleTypeDef *hpcd = (PCD_HandleTypeDef*) pdev->pData;
 794              		.loc 1 533 3 view .LVU175
 795              		.loc 1 533 22 is_stmt 0 view .LVU176
 796 0000 D0F8C832 		ldr	r3, [r0, #712]
 797              	.LVL67:
 534:USB_DEVICE/Target/usbd_conf.c **** 
 535:USB_DEVICE/Target/usbd_conf.c ****   if((ep_addr & 0x80) == 0x80)
 798              		.loc 1 535 3 is_stmt 1 view .LVU177
 799              		.loc 1 535 5 is_stmt 0 view .LVU178
 800 0004 11F0800F 		tst	r1, #128
 801 0008 08D1     		bne	.L57
 536:USB_DEVICE/Target/usbd_conf.c ****   {
 537:USB_DEVICE/Target/usbd_conf.c ****     return hpcd->IN_ep[ep_addr & 0x7F].is_stall;
 538:USB_DEVICE/Target/usbd_conf.c ****   }
 539:USB_DEVICE/Target/usbd_conf.c ****   else
 540:USB_DEVICE/Target/usbd_conf.c ****   {
 541:USB_DEVICE/Target/usbd_conf.c ****     return hpcd->OUT_ep[ep_addr & 0x7F].is_stall;
 802              		.loc 1 541 5 is_stmt 1 view .LVU179
 803              		.loc 1 541 33 is_stmt 0 view .LVU180
 804 000a 01F07F01 		and	r1, r1, #127
 805              	.LVL68:
 806              		.loc 1 541 40 view .LVU181
 807 000e 01EBC101 		add	r1, r1, r1, lsl #3
 808 0012 03EB8101 		add	r1, r3, r1, lsl #2
 809 0016 91F85602 		ldrb	r0, [r1, #598]	@ zero_extendqisi2
 810              	.LVL69:
 542:USB_DEVICE/Target/usbd_conf.c ****   }
 543:USB_DEVICE/Target/usbd_conf.c **** }
 811              		.loc 1 543 1 view .LVU182
 812 001a 7047     		bx	lr
 813              	.LVL70:
 814              	.L57:
 537:USB_DEVICE/Target/usbd_conf.c ****   }
 815              		.loc 1 537 5 is_stmt 1 view .LVU183
 537:USB_DEVICE/Target/usbd_conf.c ****   }
 816              		.loc 1 537 32 is_stmt 0 view .LVU184
 817 001c 01F07F01 		and	r1, r1, #127
 818              	.LVL71:
 537:USB_DEVICE/Target/usbd_conf.c ****   }
 819              		.loc 1 537 39 view .LVU185
 820 0020 01EBC101 		add	r1, r1, r1, lsl #3
 821 0024 03EB8101 		add	r1, r3, r1, lsl #2
 822 0028 887D     		ldrb	r0, [r1, #22]	@ zero_extendqisi2
 823              	.LVL72:
 537:USB_DEVICE/Target/usbd_conf.c ****   }
 824              		.loc 1 537 39 view .LVU186
 825 002a 7047     		bx	lr
 826              		.cfi_endproc
 827              	.LFE160:
 829              		.section	.text.USBD_LL_GetRxDataSize,"ax",%progbits
 830              		.align	1
ARM GAS  /tmp/ccCaeJ1V.s 			page 26


 831              		.global	USBD_LL_GetRxDataSize
 832              		.syntax unified
 833              		.thumb
 834              		.thumb_func
 835              		.fpu fpv4-sp-d16
 837              	USBD_LL_GetRxDataSize:
 838              	.LVL73:
 839              	.LFB164:
 544:USB_DEVICE/Target/usbd_conf.c **** 
 545:USB_DEVICE/Target/usbd_conf.c **** /**
 546:USB_DEVICE/Target/usbd_conf.c ****   * @brief  Assigns a USB address to the device.
 547:USB_DEVICE/Target/usbd_conf.c ****   * @param  pdev: Device handle
 548:USB_DEVICE/Target/usbd_conf.c ****   * @param  dev_addr: Device address
 549:USB_DEVICE/Target/usbd_conf.c ****   * @retval USBD status
 550:USB_DEVICE/Target/usbd_conf.c ****   */
 551:USB_DEVICE/Target/usbd_conf.c **** USBD_StatusTypeDef USBD_LL_SetUSBAddress(USBD_HandleTypeDef *pdev, uint8_t dev_addr)
 552:USB_DEVICE/Target/usbd_conf.c **** {
 553:USB_DEVICE/Target/usbd_conf.c ****   HAL_StatusTypeDef hal_status = HAL_OK;
 554:USB_DEVICE/Target/usbd_conf.c ****   USBD_StatusTypeDef usb_status = USBD_OK;
 555:USB_DEVICE/Target/usbd_conf.c **** 
 556:USB_DEVICE/Target/usbd_conf.c ****   hal_status = HAL_PCD_SetAddress(pdev->pData, dev_addr);
 557:USB_DEVICE/Target/usbd_conf.c **** 
 558:USB_DEVICE/Target/usbd_conf.c ****   usb_status =  USBD_Get_USB_Status(hal_status);
 559:USB_DEVICE/Target/usbd_conf.c **** 
 560:USB_DEVICE/Target/usbd_conf.c ****   return usb_status;
 561:USB_DEVICE/Target/usbd_conf.c **** }
 562:USB_DEVICE/Target/usbd_conf.c **** 
 563:USB_DEVICE/Target/usbd_conf.c **** /**
 564:USB_DEVICE/Target/usbd_conf.c ****   * @brief  Transmits data over an endpoint.
 565:USB_DEVICE/Target/usbd_conf.c ****   * @param  pdev: Device handle
 566:USB_DEVICE/Target/usbd_conf.c ****   * @param  ep_addr: Endpoint number
 567:USB_DEVICE/Target/usbd_conf.c ****   * @param  pbuf: Pointer to data to be sent
 568:USB_DEVICE/Target/usbd_conf.c ****   * @param  size: Data size
 569:USB_DEVICE/Target/usbd_conf.c ****   * @retval USBD status
 570:USB_DEVICE/Target/usbd_conf.c ****   */
 571:USB_DEVICE/Target/usbd_conf.c **** USBD_StatusTypeDef USBD_LL_Transmit(USBD_HandleTypeDef *pdev, uint8_t ep_addr, uint8_t *pbuf, uint3
 572:USB_DEVICE/Target/usbd_conf.c **** {
 573:USB_DEVICE/Target/usbd_conf.c ****   HAL_StatusTypeDef hal_status = HAL_OK;
 574:USB_DEVICE/Target/usbd_conf.c ****   USBD_StatusTypeDef usb_status = USBD_OK;
 575:USB_DEVICE/Target/usbd_conf.c **** 
 576:USB_DEVICE/Target/usbd_conf.c ****   hal_status = HAL_PCD_EP_Transmit(pdev->pData, ep_addr, pbuf, size);
 577:USB_DEVICE/Target/usbd_conf.c **** 
 578:USB_DEVICE/Target/usbd_conf.c ****   usb_status =  USBD_Get_USB_Status(hal_status);
 579:USB_DEVICE/Target/usbd_conf.c **** 
 580:USB_DEVICE/Target/usbd_conf.c ****   return usb_status;
 581:USB_DEVICE/Target/usbd_conf.c **** }
 582:USB_DEVICE/Target/usbd_conf.c **** 
 583:USB_DEVICE/Target/usbd_conf.c **** /**
 584:USB_DEVICE/Target/usbd_conf.c ****   * @brief  Prepares an endpoint for reception.
 585:USB_DEVICE/Target/usbd_conf.c ****   * @param  pdev: Device handle
 586:USB_DEVICE/Target/usbd_conf.c ****   * @param  ep_addr: Endpoint number
 587:USB_DEVICE/Target/usbd_conf.c ****   * @param  pbuf: Pointer to data to be received
 588:USB_DEVICE/Target/usbd_conf.c ****   * @param  size: Data size
 589:USB_DEVICE/Target/usbd_conf.c ****   * @retval USBD status
 590:USB_DEVICE/Target/usbd_conf.c ****   */
 591:USB_DEVICE/Target/usbd_conf.c **** USBD_StatusTypeDef USBD_LL_PrepareReceive(USBD_HandleTypeDef *pdev, uint8_t ep_addr, uint8_t *pbuf,
 592:USB_DEVICE/Target/usbd_conf.c **** {
ARM GAS  /tmp/ccCaeJ1V.s 			page 27


 593:USB_DEVICE/Target/usbd_conf.c ****   HAL_StatusTypeDef hal_status = HAL_OK;
 594:USB_DEVICE/Target/usbd_conf.c ****   USBD_StatusTypeDef usb_status = USBD_OK;
 595:USB_DEVICE/Target/usbd_conf.c **** 
 596:USB_DEVICE/Target/usbd_conf.c ****   hal_status = HAL_PCD_EP_Receive(pdev->pData, ep_addr, pbuf, size);
 597:USB_DEVICE/Target/usbd_conf.c **** 
 598:USB_DEVICE/Target/usbd_conf.c ****   usb_status =  USBD_Get_USB_Status(hal_status);
 599:USB_DEVICE/Target/usbd_conf.c **** 
 600:USB_DEVICE/Target/usbd_conf.c ****   return usb_status;
 601:USB_DEVICE/Target/usbd_conf.c **** }
 602:USB_DEVICE/Target/usbd_conf.c **** 
 603:USB_DEVICE/Target/usbd_conf.c **** /**
 604:USB_DEVICE/Target/usbd_conf.c ****   * @brief  Returns the last transferred packet size.
 605:USB_DEVICE/Target/usbd_conf.c ****   * @param  pdev: Device handle
 606:USB_DEVICE/Target/usbd_conf.c ****   * @param  ep_addr: Endpoint number
 607:USB_DEVICE/Target/usbd_conf.c ****   * @retval Received Data Size
 608:USB_DEVICE/Target/usbd_conf.c ****   */
 609:USB_DEVICE/Target/usbd_conf.c **** uint32_t USBD_LL_GetRxDataSize(USBD_HandleTypeDef *pdev, uint8_t ep_addr)
 610:USB_DEVICE/Target/usbd_conf.c **** {
 840              		.loc 1 610 1 is_stmt 1 view -0
 841              		.cfi_startproc
 842              		@ args = 0, pretend = 0, frame = 0
 843              		@ frame_needed = 0, uses_anonymous_args = 0
 844              		.loc 1 610 1 is_stmt 0 view .LVU188
 845 0000 08B5     		push	{r3, lr}
 846              	.LCFI17:
 847              		.cfi_def_cfa_offset 8
 848              		.cfi_offset 3, -8
 849              		.cfi_offset 14, -4
 611:USB_DEVICE/Target/usbd_conf.c ****   return HAL_PCD_EP_GetRxCount((PCD_HandleTypeDef*) pdev->pData, ep_addr);
 850              		.loc 1 611 3 is_stmt 1 view .LVU189
 851              		.loc 1 611 10 is_stmt 0 view .LVU190
 852 0002 D0F8C802 		ldr	r0, [r0, #712]
 853              	.LVL74:
 854              		.loc 1 611 10 view .LVU191
 855 0006 FFF7FEFF 		bl	HAL_PCD_EP_GetRxCount
 856              	.LVL75:
 612:USB_DEVICE/Target/usbd_conf.c **** }
 857              		.loc 1 612 1 view .LVU192
 858 000a 08BD     		pop	{r3, pc}
 859              		.cfi_endproc
 860              	.LFE164:
 862              		.section	.text.HAL_PCDEx_LPM_Callback,"ax",%progbits
 863              		.align	1
 864              		.global	HAL_PCDEx_LPM_Callback
 865              		.syntax unified
 866              		.thumb
 867              		.thumb_func
 868              		.fpu fpv4-sp-d16
 870              	HAL_PCDEx_LPM_Callback:
 871              	.LVL76:
 872              	.LFB165:
 613:USB_DEVICE/Target/usbd_conf.c **** 
 614:USB_DEVICE/Target/usbd_conf.c **** /**
 615:USB_DEVICE/Target/usbd_conf.c ****   * @brief  Send LPM message to user layer
 616:USB_DEVICE/Target/usbd_conf.c ****   * @param  hpcd: PCD handle
 617:USB_DEVICE/Target/usbd_conf.c ****   * @param  msg: LPM message
 618:USB_DEVICE/Target/usbd_conf.c ****   * @retval None
ARM GAS  /tmp/ccCaeJ1V.s 			page 28


 619:USB_DEVICE/Target/usbd_conf.c ****   */
 620:USB_DEVICE/Target/usbd_conf.c **** void HAL_PCDEx_LPM_Callback(PCD_HandleTypeDef *hpcd, PCD_LPM_MsgTypeDef msg)
 621:USB_DEVICE/Target/usbd_conf.c **** {
 873              		.loc 1 621 1 is_stmt 1 view -0
 874              		.cfi_startproc
 875              		@ args = 0, pretend = 0, frame = 0
 876              		@ frame_needed = 0, uses_anonymous_args = 0
 877              		.loc 1 621 1 is_stmt 0 view .LVU194
 878 0000 10B5     		push	{r4, lr}
 879              	.LCFI18:
 880              		.cfi_def_cfa_offset 8
 881              		.cfi_offset 4, -8
 882              		.cfi_offset 14, -4
 883 0002 0446     		mov	r4, r0
 622:USB_DEVICE/Target/usbd_conf.c ****   switch (msg)
 884              		.loc 1 622 3 is_stmt 1 view .LVU195
 885 0004 11B1     		cbz	r1, .L61
 886 0006 0129     		cmp	r1, #1
 887 0008 16D0     		beq	.L62
 888              	.LVL77:
 889              	.L60:
 623:USB_DEVICE/Target/usbd_conf.c ****   {
 624:USB_DEVICE/Target/usbd_conf.c ****   case PCD_LPM_L0_ACTIVE:
 625:USB_DEVICE/Target/usbd_conf.c ****     if (hpcd->Init.low_power_enable)
 626:USB_DEVICE/Target/usbd_conf.c ****     {
 627:USB_DEVICE/Target/usbd_conf.c ****       SystemClock_Config();
 628:USB_DEVICE/Target/usbd_conf.c **** 
 629:USB_DEVICE/Target/usbd_conf.c ****       /* Reset SLEEPDEEP bit of Cortex System Control Register. */
 630:USB_DEVICE/Target/usbd_conf.c ****       SCB->SCR &= (uint32_t)~((uint32_t)(SCB_SCR_SLEEPDEEP_Msk | SCB_SCR_SLEEPONEXIT_Msk));
 631:USB_DEVICE/Target/usbd_conf.c ****     }
 632:USB_DEVICE/Target/usbd_conf.c ****     __HAL_PCD_UNGATE_PHYCLOCK(hpcd);
 633:USB_DEVICE/Target/usbd_conf.c ****     USBD_LL_Resume(hpcd->pData);
 634:USB_DEVICE/Target/usbd_conf.c ****     break;
 635:USB_DEVICE/Target/usbd_conf.c **** 
 636:USB_DEVICE/Target/usbd_conf.c ****   case PCD_LPM_L1_ACTIVE:
 637:USB_DEVICE/Target/usbd_conf.c ****     __HAL_PCD_GATE_PHYCLOCK(hpcd);
 638:USB_DEVICE/Target/usbd_conf.c ****     USBD_LL_Suspend(hpcd->pData);
 639:USB_DEVICE/Target/usbd_conf.c **** 
 640:USB_DEVICE/Target/usbd_conf.c ****     /* Enter in STOP mode. */
 641:USB_DEVICE/Target/usbd_conf.c ****     if (hpcd->Init.low_power_enable)
 642:USB_DEVICE/Target/usbd_conf.c ****     {
 643:USB_DEVICE/Target/usbd_conf.c ****       /* Set SLEEPDEEP bit and SleepOnExit of Cortex System Control Register. */
 644:USB_DEVICE/Target/usbd_conf.c ****       SCB->SCR |= (uint32_t)((uint32_t)(SCB_SCR_SLEEPDEEP_Msk | SCB_SCR_SLEEPONEXIT_Msk));
 645:USB_DEVICE/Target/usbd_conf.c ****     }
 646:USB_DEVICE/Target/usbd_conf.c ****     break;
 647:USB_DEVICE/Target/usbd_conf.c ****   }
 648:USB_DEVICE/Target/usbd_conf.c **** }
 890              		.loc 1 648 1 is_stmt 0 view .LVU196
 891 000a 10BD     		pop	{r4, pc}
 892              	.LVL78:
 893              	.L61:
 625:USB_DEVICE/Target/usbd_conf.c ****     {
 894              		.loc 1 625 5 is_stmt 1 view .LVU197
 625:USB_DEVICE/Target/usbd_conf.c ****     {
 895              		.loc 1 625 19 is_stmt 0 view .LVU198
 896 000c C37A     		ldrb	r3, [r0, #11]	@ zero_extendqisi2
 625:USB_DEVICE/Target/usbd_conf.c ****     {
ARM GAS  /tmp/ccCaeJ1V.s 			page 29


 897              		.loc 1 625 8 view .LVU199
 898 000e 5BB9     		cbnz	r3, .L66
 899              	.LVL79:
 900              	.L64:
 632:USB_DEVICE/Target/usbd_conf.c ****     USBD_LL_Resume(hpcd->pData);
 901              		.loc 1 632 5 is_stmt 1 view .LVU200
 902 0010 2268     		ldr	r2, [r4]
 903 0012 D2F8003E 		ldr	r3, [r2, #3584]
 904 0016 23F00103 		bic	r3, r3, #1
 905 001a C2F8003E 		str	r3, [r2, #3584]
 633:USB_DEVICE/Target/usbd_conf.c ****     break;
 906              		.loc 1 633 5 view .LVU201
 907 001e D4F8E004 		ldr	r0, [r4, #1248]
 908 0022 FFF7FEFF 		bl	USBD_LL_Resume
 909              	.LVL80:
 634:USB_DEVICE/Target/usbd_conf.c **** 
 910              		.loc 1 634 5 view .LVU202
 911 0026 F0E7     		b	.L60
 912              	.LVL81:
 913              	.L66:
 627:USB_DEVICE/Target/usbd_conf.c **** 
 914              		.loc 1 627 7 view .LVU203
 915 0028 FFF7FEFF 		bl	SystemClock_Config
 916              	.LVL82:
 630:USB_DEVICE/Target/usbd_conf.c ****     }
 917              		.loc 1 630 7 view .LVU204
 630:USB_DEVICE/Target/usbd_conf.c ****     }
 918              		.loc 1 630 16 is_stmt 0 view .LVU205
 919 002c 0C4A     		ldr	r2, .L67
 920 002e 1369     		ldr	r3, [r2, #16]
 921 0030 23F00603 		bic	r3, r3, #6
 922 0034 1361     		str	r3, [r2, #16]
 923 0036 EBE7     		b	.L64
 924              	.LVL83:
 925              	.L62:
 637:USB_DEVICE/Target/usbd_conf.c ****     USBD_LL_Suspend(hpcd->pData);
 926              		.loc 1 637 5 is_stmt 1 view .LVU206
 927 0038 0268     		ldr	r2, [r0]
 928 003a D2F8003E 		ldr	r3, [r2, #3584]
 929 003e 43F00103 		orr	r3, r3, #1
 930 0042 C2F8003E 		str	r3, [r2, #3584]
 638:USB_DEVICE/Target/usbd_conf.c **** 
 931              		.loc 1 638 5 view .LVU207
 932 0046 D0F8E004 		ldr	r0, [r0, #1248]
 933              	.LVL84:
 638:USB_DEVICE/Target/usbd_conf.c **** 
 934              		.loc 1 638 5 is_stmt 0 view .LVU208
 935 004a FFF7FEFF 		bl	USBD_LL_Suspend
 936              	.LVL85:
 641:USB_DEVICE/Target/usbd_conf.c ****     {
 937              		.loc 1 641 5 is_stmt 1 view .LVU209
 641:USB_DEVICE/Target/usbd_conf.c ****     {
 938              		.loc 1 641 19 is_stmt 0 view .LVU210
 939 004e E37A     		ldrb	r3, [r4, #11]	@ zero_extendqisi2
 641:USB_DEVICE/Target/usbd_conf.c ****     {
 940              		.loc 1 641 8 view .LVU211
 941 0050 002B     		cmp	r3, #0
ARM GAS  /tmp/ccCaeJ1V.s 			page 30


 942 0052 DAD0     		beq	.L60
 644:USB_DEVICE/Target/usbd_conf.c ****     }
 943              		.loc 1 644 7 is_stmt 1 view .LVU212
 644:USB_DEVICE/Target/usbd_conf.c ****     }
 944              		.loc 1 644 16 is_stmt 0 view .LVU213
 945 0054 024A     		ldr	r2, .L67
 946 0056 1369     		ldr	r3, [r2, #16]
 947 0058 43F00603 		orr	r3, r3, #6
 948 005c 1361     		str	r3, [r2, #16]
 949              		.loc 1 648 1 view .LVU214
 950 005e D4E7     		b	.L60
 951              	.L68:
 952              		.align	2
 953              	.L67:
 954 0060 00ED00E0 		.word	-536810240
 955              		.cfi_endproc
 956              	.LFE165:
 958              		.section	.text.USBD_static_malloc,"ax",%progbits
 959              		.align	1
 960              		.global	USBD_static_malloc
 961              		.syntax unified
 962              		.thumb
 963              		.thumb_func
 964              		.fpu fpv4-sp-d16
 966              	USBD_static_malloc:
 967              	.LVL86:
 968              	.LFB166:
 649:USB_DEVICE/Target/usbd_conf.c **** 
 650:USB_DEVICE/Target/usbd_conf.c **** #ifdef USBD_HS_TESTMODE_ENABLE
 651:USB_DEVICE/Target/usbd_conf.c **** /**
 652:USB_DEVICE/Target/usbd_conf.c ****   * @brief  Set High speed Test mode.
 653:USB_DEVICE/Target/usbd_conf.c ****   * @param  pdev: Device handle
 654:USB_DEVICE/Target/usbd_conf.c ****   * @param  testmode: test mode
 655:USB_DEVICE/Target/usbd_conf.c ****   * @retval USBD Status
 656:USB_DEVICE/Target/usbd_conf.c ****   */
 657:USB_DEVICE/Target/usbd_conf.c **** USBD_StatusTypeDef USBD_LL_SetTestMode(USBD_HandleTypeDef *pdev, uint8_t testmode)
 658:USB_DEVICE/Target/usbd_conf.c **** {
 659:USB_DEVICE/Target/usbd_conf.c ****   UNUSED(pdev);
 660:USB_DEVICE/Target/usbd_conf.c ****   UNUSED(testmode);
 661:USB_DEVICE/Target/usbd_conf.c **** 
 662:USB_DEVICE/Target/usbd_conf.c ****   return USBD_OK;
 663:USB_DEVICE/Target/usbd_conf.c **** }
 664:USB_DEVICE/Target/usbd_conf.c **** #endif /* USBD_HS_TESTMODE_ENABLE */
 665:USB_DEVICE/Target/usbd_conf.c **** 
 666:USB_DEVICE/Target/usbd_conf.c **** /**
 667:USB_DEVICE/Target/usbd_conf.c ****   * @brief  Static single allocation.
 668:USB_DEVICE/Target/usbd_conf.c ****   * @param  size: Size of allocated memory
 669:USB_DEVICE/Target/usbd_conf.c ****   * @retval None
 670:USB_DEVICE/Target/usbd_conf.c ****   */
 671:USB_DEVICE/Target/usbd_conf.c **** void *USBD_static_malloc(uint32_t size)
 672:USB_DEVICE/Target/usbd_conf.c **** {
 969              		.loc 1 672 1 is_stmt 1 view -0
 970              		.cfi_startproc
 971              		@ args = 0, pretend = 0, frame = 0
 972              		@ frame_needed = 0, uses_anonymous_args = 0
 973              		@ link register save eliminated.
 673:USB_DEVICE/Target/usbd_conf.c ****   static uint32_t mem[(sizeof(USBD_CDC_HandleTypeDef)/4)+1];/* On 32-bit boundary */
ARM GAS  /tmp/ccCaeJ1V.s 			page 31


 974              		.loc 1 673 3 view .LVU216
 674:USB_DEVICE/Target/usbd_conf.c ****   return mem;
 975              		.loc 1 674 3 view .LVU217
 675:USB_DEVICE/Target/usbd_conf.c **** }
 976              		.loc 1 675 1 is_stmt 0 view .LVU218
 977 0000 0048     		ldr	r0, .L70
 978              	.LVL87:
 979              		.loc 1 675 1 view .LVU219
 980 0002 7047     		bx	lr
 981              	.L71:
 982              		.align	2
 983              	.L70:
 984 0004 00000000 		.word	.LANCHOR0
 985              		.cfi_endproc
 986              	.LFE166:
 988              		.section	.text.USBD_static_free,"ax",%progbits
 989              		.align	1
 990              		.global	USBD_static_free
 991              		.syntax unified
 992              		.thumb
 993              		.thumb_func
 994              		.fpu fpv4-sp-d16
 996              	USBD_static_free:
 997              	.LVL88:
 998              	.LFB167:
 676:USB_DEVICE/Target/usbd_conf.c **** 
 677:USB_DEVICE/Target/usbd_conf.c **** /**
 678:USB_DEVICE/Target/usbd_conf.c ****   * @brief  Dummy memory free
 679:USB_DEVICE/Target/usbd_conf.c ****   * @param  p: Pointer to allocated  memory address
 680:USB_DEVICE/Target/usbd_conf.c ****   * @retval None
 681:USB_DEVICE/Target/usbd_conf.c ****   */
 682:USB_DEVICE/Target/usbd_conf.c **** void USBD_static_free(void *p)
 683:USB_DEVICE/Target/usbd_conf.c **** {
 999              		.loc 1 683 1 is_stmt 1 view -0
 1000              		.cfi_startproc
 1001              		@ args = 0, pretend = 0, frame = 0
 1002              		@ frame_needed = 0, uses_anonymous_args = 0
 1003              		@ link register save eliminated.
 684:USB_DEVICE/Target/usbd_conf.c **** 
 685:USB_DEVICE/Target/usbd_conf.c **** }
 1004              		.loc 1 685 1 view .LVU221
 1005 0000 7047     		bx	lr
 1006              		.cfi_endproc
 1007              	.LFE167:
 1009              		.section	.text.USBD_LL_Delay,"ax",%progbits
 1010              		.align	1
 1011              		.global	USBD_LL_Delay
 1012              		.syntax unified
 1013              		.thumb
 1014              		.thumb_func
 1015              		.fpu fpv4-sp-d16
 1017              	USBD_LL_Delay:
 1018              	.LVL89:
 1019              	.LFB168:
 686:USB_DEVICE/Target/usbd_conf.c **** 
 687:USB_DEVICE/Target/usbd_conf.c **** /**
 688:USB_DEVICE/Target/usbd_conf.c ****   * @brief  Delays routine for the USB Device Library.
ARM GAS  /tmp/ccCaeJ1V.s 			page 32


 689:USB_DEVICE/Target/usbd_conf.c ****   * @param  Delay: Delay in ms
 690:USB_DEVICE/Target/usbd_conf.c ****   * @retval None
 691:USB_DEVICE/Target/usbd_conf.c ****   */
 692:USB_DEVICE/Target/usbd_conf.c **** void USBD_LL_Delay(uint32_t Delay)
 693:USB_DEVICE/Target/usbd_conf.c **** {
 1020              		.loc 1 693 1 view -0
 1021              		.cfi_startproc
 1022              		@ args = 0, pretend = 0, frame = 0
 1023              		@ frame_needed = 0, uses_anonymous_args = 0
 1024              		.loc 1 693 1 is_stmt 0 view .LVU223
 1025 0000 08B5     		push	{r3, lr}
 1026              	.LCFI19:
 1027              		.cfi_def_cfa_offset 8
 1028              		.cfi_offset 3, -8
 1029              		.cfi_offset 14, -4
 694:USB_DEVICE/Target/usbd_conf.c ****   HAL_Delay(Delay);
 1030              		.loc 1 694 3 is_stmt 1 view .LVU224
 1031 0002 FFF7FEFF 		bl	HAL_Delay
 1032              	.LVL90:
 695:USB_DEVICE/Target/usbd_conf.c **** }
 1033              		.loc 1 695 1 is_stmt 0 view .LVU225
 1034 0006 08BD     		pop	{r3, pc}
 1035              		.cfi_endproc
 1036              	.LFE168:
 1038              		.section	.text.USBD_Get_USB_Status,"ax",%progbits
 1039              		.align	1
 1040              		.global	USBD_Get_USB_Status
 1041              		.syntax unified
 1042              		.thumb
 1043              		.thumb_func
 1044              		.fpu fpv4-sp-d16
 1046              	USBD_Get_USB_Status:
 1047              	.LVL91:
 1048              	.LFB169:
 696:USB_DEVICE/Target/usbd_conf.c **** 
 697:USB_DEVICE/Target/usbd_conf.c **** /**
 698:USB_DEVICE/Target/usbd_conf.c ****   * @brief  Returns the USB status depending on the HAL status:
 699:USB_DEVICE/Target/usbd_conf.c ****   * @param  hal_status: HAL status
 700:USB_DEVICE/Target/usbd_conf.c ****   * @retval USB status
 701:USB_DEVICE/Target/usbd_conf.c ****   */
 702:USB_DEVICE/Target/usbd_conf.c **** USBD_StatusTypeDef USBD_Get_USB_Status(HAL_StatusTypeDef hal_status)
 703:USB_DEVICE/Target/usbd_conf.c **** {
 1049              		.loc 1 703 1 is_stmt 1 view -0
 1050              		.cfi_startproc
 1051              		@ args = 0, pretend = 0, frame = 0
 1052              		@ frame_needed = 0, uses_anonymous_args = 0
 1053              		@ link register save eliminated.
 704:USB_DEVICE/Target/usbd_conf.c ****   USBD_StatusTypeDef usb_status = USBD_OK;
 1054              		.loc 1 704 3 view .LVU227
 705:USB_DEVICE/Target/usbd_conf.c **** 
 706:USB_DEVICE/Target/usbd_conf.c ****   switch (hal_status)
 1055              		.loc 1 706 3 view .LVU228
 1056 0000 0328     		cmp	r0, #3
 1057 0002 05D8     		bhi	.L81
 1058 0004 DFE800F0 		tbb	[pc, r0]
 1059              	.L78:
 1060 0008 05       		.byte	(.L76-.L78)/2
ARM GAS  /tmp/ccCaeJ1V.s 			page 33


 1061 0009 04       		.byte	(.L81-.L78)/2
 1062 000a 02       		.byte	(.L79-.L78)/2
 1063 000b 05       		.byte	(.L76-.L78)/2
 1064              		.p2align 1
 1065              	.L79:
 707:USB_DEVICE/Target/usbd_conf.c ****   {
 708:USB_DEVICE/Target/usbd_conf.c ****     case HAL_OK :
 709:USB_DEVICE/Target/usbd_conf.c ****       usb_status = USBD_OK;
 710:USB_DEVICE/Target/usbd_conf.c ****     break;
 711:USB_DEVICE/Target/usbd_conf.c ****     case HAL_ERROR :
 712:USB_DEVICE/Target/usbd_conf.c ****       usb_status = USBD_FAIL;
 713:USB_DEVICE/Target/usbd_conf.c ****     break;
 714:USB_DEVICE/Target/usbd_conf.c ****     case HAL_BUSY :
 715:USB_DEVICE/Target/usbd_conf.c ****       usb_status = USBD_BUSY;
 1066              		.loc 1 715 7 view .LVU229
 1067              	.LVL92:
 716:USB_DEVICE/Target/usbd_conf.c ****     break;
 1068              		.loc 1 716 5 view .LVU230
 715:USB_DEVICE/Target/usbd_conf.c ****     break;
 1069              		.loc 1 715 18 is_stmt 0 view .LVU231
 1070 000c 0120     		movs	r0, #1
 1071              	.LVL93:
 1072              		.loc 1 716 5 view .LVU232
 1073 000e 7047     		bx	lr
 1074              	.LVL94:
 1075              	.L81:
 712:USB_DEVICE/Target/usbd_conf.c ****     break;
 1076              		.loc 1 712 18 view .LVU233
 1077 0010 0320     		movs	r0, #3
 1078              	.LVL95:
 1079              	.L76:
 717:USB_DEVICE/Target/usbd_conf.c ****     case HAL_TIMEOUT :
 718:USB_DEVICE/Target/usbd_conf.c ****       usb_status = USBD_FAIL;
 719:USB_DEVICE/Target/usbd_conf.c ****     break;
 720:USB_DEVICE/Target/usbd_conf.c ****     default :
 721:USB_DEVICE/Target/usbd_conf.c ****       usb_status = USBD_FAIL;
 722:USB_DEVICE/Target/usbd_conf.c ****     break;
 723:USB_DEVICE/Target/usbd_conf.c ****   }
 724:USB_DEVICE/Target/usbd_conf.c ****   return usb_status;
 1080              		.loc 1 724 3 is_stmt 1 view .LVU234
 725:USB_DEVICE/Target/usbd_conf.c **** }
 1081              		.loc 1 725 1 is_stmt 0 view .LVU235
 1082 0012 7047     		bx	lr
 1083              		.cfi_endproc
 1084              	.LFE169:
 1086              		.section	.text.USBD_LL_DeInit,"ax",%progbits
 1087              		.align	1
 1088              		.global	USBD_LL_DeInit
 1089              		.syntax unified
 1090              		.thumb
 1091              		.thumb_func
 1092              		.fpu fpv4-sp-d16
 1094              	USBD_LL_DeInit:
 1095              	.LVL96:
 1096              	.LFB152:
 388:USB_DEVICE/Target/usbd_conf.c ****   HAL_StatusTypeDef hal_status = HAL_OK;
 1097              		.loc 1 388 1 is_stmt 1 view -0
ARM GAS  /tmp/ccCaeJ1V.s 			page 34


 1098              		.cfi_startproc
 1099              		@ args = 0, pretend = 0, frame = 0
 1100              		@ frame_needed = 0, uses_anonymous_args = 0
 388:USB_DEVICE/Target/usbd_conf.c ****   HAL_StatusTypeDef hal_status = HAL_OK;
 1101              		.loc 1 388 1 is_stmt 0 view .LVU237
 1102 0000 08B5     		push	{r3, lr}
 1103              	.LCFI20:
 1104              		.cfi_def_cfa_offset 8
 1105              		.cfi_offset 3, -8
 1106              		.cfi_offset 14, -4
 389:USB_DEVICE/Target/usbd_conf.c ****   USBD_StatusTypeDef usb_status = USBD_OK;
 1107              		.loc 1 389 3 is_stmt 1 view .LVU238
 1108              	.LVL97:
 390:USB_DEVICE/Target/usbd_conf.c **** 
 1109              		.loc 1 390 3 view .LVU239
 392:USB_DEVICE/Target/usbd_conf.c **** 
 1110              		.loc 1 392 3 view .LVU240
 392:USB_DEVICE/Target/usbd_conf.c **** 
 1111              		.loc 1 392 16 is_stmt 0 view .LVU241
 1112 0002 D0F8C802 		ldr	r0, [r0, #712]
 1113              	.LVL98:
 392:USB_DEVICE/Target/usbd_conf.c **** 
 1114              		.loc 1 392 16 view .LVU242
 1115 0006 FFF7FEFF 		bl	HAL_PCD_DeInit
 1116              	.LVL99:
 394:USB_DEVICE/Target/usbd_conf.c **** 
 1117              		.loc 1 394 3 is_stmt 1 view .LVU243
 394:USB_DEVICE/Target/usbd_conf.c **** 
 1118              		.loc 1 394 17 is_stmt 0 view .LVU244
 1119 000a FFF7FEFF 		bl	USBD_Get_USB_Status
 1120              	.LVL100:
 396:USB_DEVICE/Target/usbd_conf.c **** }
 1121              		.loc 1 396 3 is_stmt 1 view .LVU245
 397:USB_DEVICE/Target/usbd_conf.c **** 
 1122              		.loc 1 397 1 is_stmt 0 view .LVU246
 1123 000e 08BD     		pop	{r3, pc}
 1124              		.cfi_endproc
 1125              	.LFE152:
 1127              		.section	.text.USBD_LL_Start,"ax",%progbits
 1128              		.align	1
 1129              		.global	USBD_LL_Start
 1130              		.syntax unified
 1131              		.thumb
 1132              		.thumb_func
 1133              		.fpu fpv4-sp-d16
 1135              	USBD_LL_Start:
 1136              	.LVL101:
 1137              	.LFB153:
 405:USB_DEVICE/Target/usbd_conf.c ****   HAL_StatusTypeDef hal_status = HAL_OK;
 1138              		.loc 1 405 1 is_stmt 1 view -0
 1139              		.cfi_startproc
 1140              		@ args = 0, pretend = 0, frame = 0
 1141              		@ frame_needed = 0, uses_anonymous_args = 0
 405:USB_DEVICE/Target/usbd_conf.c ****   HAL_StatusTypeDef hal_status = HAL_OK;
 1142              		.loc 1 405 1 is_stmt 0 view .LVU248
 1143 0000 08B5     		push	{r3, lr}
 1144              	.LCFI21:
ARM GAS  /tmp/ccCaeJ1V.s 			page 35


 1145              		.cfi_def_cfa_offset 8
 1146              		.cfi_offset 3, -8
 1147              		.cfi_offset 14, -4
 406:USB_DEVICE/Target/usbd_conf.c ****   USBD_StatusTypeDef usb_status = USBD_OK;
 1148              		.loc 1 406 3 is_stmt 1 view .LVU249
 1149              	.LVL102:
 407:USB_DEVICE/Target/usbd_conf.c **** 
 1150              		.loc 1 407 3 view .LVU250
 409:USB_DEVICE/Target/usbd_conf.c **** 
 1151              		.loc 1 409 3 view .LVU251
 409:USB_DEVICE/Target/usbd_conf.c **** 
 1152              		.loc 1 409 16 is_stmt 0 view .LVU252
 1153 0002 D0F8C802 		ldr	r0, [r0, #712]
 1154              	.LVL103:
 409:USB_DEVICE/Target/usbd_conf.c **** 
 1155              		.loc 1 409 16 view .LVU253
 1156 0006 FFF7FEFF 		bl	HAL_PCD_Start
 1157              	.LVL104:
 411:USB_DEVICE/Target/usbd_conf.c **** 
 1158              		.loc 1 411 3 is_stmt 1 view .LVU254
 411:USB_DEVICE/Target/usbd_conf.c **** 
 1159              		.loc 1 411 17 is_stmt 0 view .LVU255
 1160 000a FFF7FEFF 		bl	USBD_Get_USB_Status
 1161              	.LVL105:
 413:USB_DEVICE/Target/usbd_conf.c **** }
 1162              		.loc 1 413 3 is_stmt 1 view .LVU256
 414:USB_DEVICE/Target/usbd_conf.c **** 
 1163              		.loc 1 414 1 is_stmt 0 view .LVU257
 1164 000e 08BD     		pop	{r3, pc}
 1165              		.cfi_endproc
 1166              	.LFE153:
 1168              		.section	.text.USBD_LL_Stop,"ax",%progbits
 1169              		.align	1
 1170              		.global	USBD_LL_Stop
 1171              		.syntax unified
 1172              		.thumb
 1173              		.thumb_func
 1174              		.fpu fpv4-sp-d16
 1176              	USBD_LL_Stop:
 1177              	.LVL106:
 1178              	.LFB154:
 422:USB_DEVICE/Target/usbd_conf.c ****   HAL_StatusTypeDef hal_status = HAL_OK;
 1179              		.loc 1 422 1 is_stmt 1 view -0
 1180              		.cfi_startproc
 1181              		@ args = 0, pretend = 0, frame = 0
 1182              		@ frame_needed = 0, uses_anonymous_args = 0
 422:USB_DEVICE/Target/usbd_conf.c ****   HAL_StatusTypeDef hal_status = HAL_OK;
 1183              		.loc 1 422 1 is_stmt 0 view .LVU259
 1184 0000 08B5     		push	{r3, lr}
 1185              	.LCFI22:
 1186              		.cfi_def_cfa_offset 8
 1187              		.cfi_offset 3, -8
 1188              		.cfi_offset 14, -4
 423:USB_DEVICE/Target/usbd_conf.c ****   USBD_StatusTypeDef usb_status = USBD_OK;
 1189              		.loc 1 423 3 is_stmt 1 view .LVU260
 1190              	.LVL107:
 424:USB_DEVICE/Target/usbd_conf.c **** 
ARM GAS  /tmp/ccCaeJ1V.s 			page 36


 1191              		.loc 1 424 3 view .LVU261
 426:USB_DEVICE/Target/usbd_conf.c **** 
 1192              		.loc 1 426 3 view .LVU262
 426:USB_DEVICE/Target/usbd_conf.c **** 
 1193              		.loc 1 426 16 is_stmt 0 view .LVU263
 1194 0002 D0F8C802 		ldr	r0, [r0, #712]
 1195              	.LVL108:
 426:USB_DEVICE/Target/usbd_conf.c **** 
 1196              		.loc 1 426 16 view .LVU264
 1197 0006 FFF7FEFF 		bl	HAL_PCD_Stop
 1198              	.LVL109:
 428:USB_DEVICE/Target/usbd_conf.c **** 
 1199              		.loc 1 428 3 is_stmt 1 view .LVU265
 428:USB_DEVICE/Target/usbd_conf.c **** 
 1200              		.loc 1 428 17 is_stmt 0 view .LVU266
 1201 000a FFF7FEFF 		bl	USBD_Get_USB_Status
 1202              	.LVL110:
 430:USB_DEVICE/Target/usbd_conf.c **** }
 1203              		.loc 1 430 3 is_stmt 1 view .LVU267
 431:USB_DEVICE/Target/usbd_conf.c **** 
 1204              		.loc 1 431 1 is_stmt 0 view .LVU268
 1205 000e 08BD     		pop	{r3, pc}
 1206              		.cfi_endproc
 1207              	.LFE154:
 1209              		.section	.text.USBD_LL_OpenEP,"ax",%progbits
 1210              		.align	1
 1211              		.global	USBD_LL_OpenEP
 1212              		.syntax unified
 1213              		.thumb
 1214              		.thumb_func
 1215              		.fpu fpv4-sp-d16
 1217              	USBD_LL_OpenEP:
 1218              	.LVL111:
 1219              	.LFB155:
 442:USB_DEVICE/Target/usbd_conf.c ****   HAL_StatusTypeDef hal_status = HAL_OK;
 1220              		.loc 1 442 1 is_stmt 1 view -0
 1221              		.cfi_startproc
 1222              		@ args = 0, pretend = 0, frame = 0
 1223              		@ frame_needed = 0, uses_anonymous_args = 0
 442:USB_DEVICE/Target/usbd_conf.c ****   HAL_StatusTypeDef hal_status = HAL_OK;
 1224              		.loc 1 442 1 is_stmt 0 view .LVU270
 1225 0000 10B5     		push	{r4, lr}
 1226              	.LCFI23:
 1227              		.cfi_def_cfa_offset 8
 1228              		.cfi_offset 4, -8
 1229              		.cfi_offset 14, -4
 1230 0002 1446     		mov	r4, r2
 1231 0004 1A46     		mov	r2, r3
 1232              	.LVL112:
 443:USB_DEVICE/Target/usbd_conf.c ****   USBD_StatusTypeDef usb_status = USBD_OK;
 1233              		.loc 1 443 3 is_stmt 1 view .LVU271
 444:USB_DEVICE/Target/usbd_conf.c **** 
 1234              		.loc 1 444 3 view .LVU272
 446:USB_DEVICE/Target/usbd_conf.c **** 
 1235              		.loc 1 446 3 view .LVU273
 446:USB_DEVICE/Target/usbd_conf.c **** 
 1236              		.loc 1 446 16 is_stmt 0 view .LVU274
ARM GAS  /tmp/ccCaeJ1V.s 			page 37


 1237 0006 2346     		mov	r3, r4
 1238              	.LVL113:
 446:USB_DEVICE/Target/usbd_conf.c **** 
 1239              		.loc 1 446 16 view .LVU275
 1240 0008 D0F8C802 		ldr	r0, [r0, #712]
 1241              	.LVL114:
 446:USB_DEVICE/Target/usbd_conf.c **** 
 1242              		.loc 1 446 16 view .LVU276
 1243 000c FFF7FEFF 		bl	HAL_PCD_EP_Open
 1244              	.LVL115:
 448:USB_DEVICE/Target/usbd_conf.c **** 
 1245              		.loc 1 448 3 is_stmt 1 view .LVU277
 448:USB_DEVICE/Target/usbd_conf.c **** 
 1246              		.loc 1 448 17 is_stmt 0 view .LVU278
 1247 0010 FFF7FEFF 		bl	USBD_Get_USB_Status
 1248              	.LVL116:
 450:USB_DEVICE/Target/usbd_conf.c **** }
 1249              		.loc 1 450 3 is_stmt 1 view .LVU279
 451:USB_DEVICE/Target/usbd_conf.c **** 
 1250              		.loc 1 451 1 is_stmt 0 view .LVU280
 1251 0014 10BD     		pop	{r4, pc}
 1252              		.cfi_endproc
 1253              	.LFE155:
 1255              		.section	.text.USBD_LL_CloseEP,"ax",%progbits
 1256              		.align	1
 1257              		.global	USBD_LL_CloseEP
 1258              		.syntax unified
 1259              		.thumb
 1260              		.thumb_func
 1261              		.fpu fpv4-sp-d16
 1263              	USBD_LL_CloseEP:
 1264              	.LVL117:
 1265              	.LFB156:
 460:USB_DEVICE/Target/usbd_conf.c ****   HAL_StatusTypeDef hal_status = HAL_OK;
 1266              		.loc 1 460 1 is_stmt 1 view -0
 1267              		.cfi_startproc
 1268              		@ args = 0, pretend = 0, frame = 0
 1269              		@ frame_needed = 0, uses_anonymous_args = 0
 460:USB_DEVICE/Target/usbd_conf.c ****   HAL_StatusTypeDef hal_status = HAL_OK;
 1270              		.loc 1 460 1 is_stmt 0 view .LVU282
 1271 0000 08B5     		push	{r3, lr}
 1272              	.LCFI24:
 1273              		.cfi_def_cfa_offset 8
 1274              		.cfi_offset 3, -8
 1275              		.cfi_offset 14, -4
 461:USB_DEVICE/Target/usbd_conf.c ****   USBD_StatusTypeDef usb_status = USBD_OK;
 1276              		.loc 1 461 3 is_stmt 1 view .LVU283
 1277              	.LVL118:
 462:USB_DEVICE/Target/usbd_conf.c **** 
 1278              		.loc 1 462 3 view .LVU284
 464:USB_DEVICE/Target/usbd_conf.c **** 
 1279              		.loc 1 464 3 view .LVU285
 464:USB_DEVICE/Target/usbd_conf.c **** 
 1280              		.loc 1 464 16 is_stmt 0 view .LVU286
 1281 0002 D0F8C802 		ldr	r0, [r0, #712]
 1282              	.LVL119:
 464:USB_DEVICE/Target/usbd_conf.c **** 
ARM GAS  /tmp/ccCaeJ1V.s 			page 38


 1283              		.loc 1 464 16 view .LVU287
 1284 0006 FFF7FEFF 		bl	HAL_PCD_EP_Close
 1285              	.LVL120:
 466:USB_DEVICE/Target/usbd_conf.c **** 
 1286              		.loc 1 466 3 is_stmt 1 view .LVU288
 466:USB_DEVICE/Target/usbd_conf.c **** 
 1287              		.loc 1 466 17 is_stmt 0 view .LVU289
 1288 000a FFF7FEFF 		bl	USBD_Get_USB_Status
 1289              	.LVL121:
 468:USB_DEVICE/Target/usbd_conf.c **** }
 1290              		.loc 1 468 3 is_stmt 1 view .LVU290
 469:USB_DEVICE/Target/usbd_conf.c **** 
 1291              		.loc 1 469 1 is_stmt 0 view .LVU291
 1292 000e 08BD     		pop	{r3, pc}
 1293              		.cfi_endproc
 1294              	.LFE156:
 1296              		.section	.text.USBD_LL_FlushEP,"ax",%progbits
 1297              		.align	1
 1298              		.global	USBD_LL_FlushEP
 1299              		.syntax unified
 1300              		.thumb
 1301              		.thumb_func
 1302              		.fpu fpv4-sp-d16
 1304              	USBD_LL_FlushEP:
 1305              	.LVL122:
 1306              	.LFB157:
 478:USB_DEVICE/Target/usbd_conf.c ****   HAL_StatusTypeDef hal_status = HAL_OK;
 1307              		.loc 1 478 1 is_stmt 1 view -0
 1308              		.cfi_startproc
 1309              		@ args = 0, pretend = 0, frame = 0
 1310              		@ frame_needed = 0, uses_anonymous_args = 0
 478:USB_DEVICE/Target/usbd_conf.c ****   HAL_StatusTypeDef hal_status = HAL_OK;
 1311              		.loc 1 478 1 is_stmt 0 view .LVU293
 1312 0000 08B5     		push	{r3, lr}
 1313              	.LCFI25:
 1314              		.cfi_def_cfa_offset 8
 1315              		.cfi_offset 3, -8
 1316              		.cfi_offset 14, -4
 479:USB_DEVICE/Target/usbd_conf.c ****   USBD_StatusTypeDef usb_status = USBD_OK;
 1317              		.loc 1 479 3 is_stmt 1 view .LVU294
 1318              	.LVL123:
 480:USB_DEVICE/Target/usbd_conf.c **** 
 1319              		.loc 1 480 3 view .LVU295
 482:USB_DEVICE/Target/usbd_conf.c **** 
 1320              		.loc 1 482 3 view .LVU296
 482:USB_DEVICE/Target/usbd_conf.c **** 
 1321              		.loc 1 482 16 is_stmt 0 view .LVU297
 1322 0002 D0F8C802 		ldr	r0, [r0, #712]
 1323              	.LVL124:
 482:USB_DEVICE/Target/usbd_conf.c **** 
 1324              		.loc 1 482 16 view .LVU298
 1325 0006 FFF7FEFF 		bl	HAL_PCD_EP_Flush
 1326              	.LVL125:
 484:USB_DEVICE/Target/usbd_conf.c **** 
 1327              		.loc 1 484 3 is_stmt 1 view .LVU299
 484:USB_DEVICE/Target/usbd_conf.c **** 
 1328              		.loc 1 484 17 is_stmt 0 view .LVU300
ARM GAS  /tmp/ccCaeJ1V.s 			page 39


 1329 000a FFF7FEFF 		bl	USBD_Get_USB_Status
 1330              	.LVL126:
 486:USB_DEVICE/Target/usbd_conf.c **** }
 1331              		.loc 1 486 3 is_stmt 1 view .LVU301
 487:USB_DEVICE/Target/usbd_conf.c **** 
 1332              		.loc 1 487 1 is_stmt 0 view .LVU302
 1333 000e 08BD     		pop	{r3, pc}
 1334              		.cfi_endproc
 1335              	.LFE157:
 1337              		.section	.text.USBD_LL_StallEP,"ax",%progbits
 1338              		.align	1
 1339              		.global	USBD_LL_StallEP
 1340              		.syntax unified
 1341              		.thumb
 1342              		.thumb_func
 1343              		.fpu fpv4-sp-d16
 1345              	USBD_LL_StallEP:
 1346              	.LVL127:
 1347              	.LFB158:
 496:USB_DEVICE/Target/usbd_conf.c ****   HAL_StatusTypeDef hal_status = HAL_OK;
 1348              		.loc 1 496 1 is_stmt 1 view -0
 1349              		.cfi_startproc
 1350              		@ args = 0, pretend = 0, frame = 0
 1351              		@ frame_needed = 0, uses_anonymous_args = 0
 496:USB_DEVICE/Target/usbd_conf.c ****   HAL_StatusTypeDef hal_status = HAL_OK;
 1352              		.loc 1 496 1 is_stmt 0 view .LVU304
 1353 0000 08B5     		push	{r3, lr}
 1354              	.LCFI26:
 1355              		.cfi_def_cfa_offset 8
 1356              		.cfi_offset 3, -8
 1357              		.cfi_offset 14, -4
 497:USB_DEVICE/Target/usbd_conf.c ****   USBD_StatusTypeDef usb_status = USBD_OK;
 1358              		.loc 1 497 3 is_stmt 1 view .LVU305
 1359              	.LVL128:
 498:USB_DEVICE/Target/usbd_conf.c **** 
 1360              		.loc 1 498 3 view .LVU306
 500:USB_DEVICE/Target/usbd_conf.c **** 
 1361              		.loc 1 500 3 view .LVU307
 500:USB_DEVICE/Target/usbd_conf.c **** 
 1362              		.loc 1 500 16 is_stmt 0 view .LVU308
 1363 0002 D0F8C802 		ldr	r0, [r0, #712]
 1364              	.LVL129:
 500:USB_DEVICE/Target/usbd_conf.c **** 
 1365              		.loc 1 500 16 view .LVU309
 1366 0006 FFF7FEFF 		bl	HAL_PCD_EP_SetStall
 1367              	.LVL130:
 502:USB_DEVICE/Target/usbd_conf.c **** 
 1368              		.loc 1 502 3 is_stmt 1 view .LVU310
 502:USB_DEVICE/Target/usbd_conf.c **** 
 1369              		.loc 1 502 17 is_stmt 0 view .LVU311
 1370 000a FFF7FEFF 		bl	USBD_Get_USB_Status
 1371              	.LVL131:
 504:USB_DEVICE/Target/usbd_conf.c **** }
 1372              		.loc 1 504 3 is_stmt 1 view .LVU312
 505:USB_DEVICE/Target/usbd_conf.c **** 
 1373              		.loc 1 505 1 is_stmt 0 view .LVU313
 1374 000e 08BD     		pop	{r3, pc}
ARM GAS  /tmp/ccCaeJ1V.s 			page 40


 1375              		.cfi_endproc
 1376              	.LFE158:
 1378              		.section	.text.USBD_LL_ClearStallEP,"ax",%progbits
 1379              		.align	1
 1380              		.global	USBD_LL_ClearStallEP
 1381              		.syntax unified
 1382              		.thumb
 1383              		.thumb_func
 1384              		.fpu fpv4-sp-d16
 1386              	USBD_LL_ClearStallEP:
 1387              	.LVL132:
 1388              	.LFB159:
 514:USB_DEVICE/Target/usbd_conf.c ****   HAL_StatusTypeDef hal_status = HAL_OK;
 1389              		.loc 1 514 1 is_stmt 1 view -0
 1390              		.cfi_startproc
 1391              		@ args = 0, pretend = 0, frame = 0
 1392              		@ frame_needed = 0, uses_anonymous_args = 0
 514:USB_DEVICE/Target/usbd_conf.c ****   HAL_StatusTypeDef hal_status = HAL_OK;
 1393              		.loc 1 514 1 is_stmt 0 view .LVU315
 1394 0000 08B5     		push	{r3, lr}
 1395              	.LCFI27:
 1396              		.cfi_def_cfa_offset 8
 1397              		.cfi_offset 3, -8
 1398              		.cfi_offset 14, -4
 515:USB_DEVICE/Target/usbd_conf.c ****   USBD_StatusTypeDef usb_status = USBD_OK;
 1399              		.loc 1 515 3 is_stmt 1 view .LVU316
 1400              	.LVL133:
 516:USB_DEVICE/Target/usbd_conf.c **** 
 1401              		.loc 1 516 3 view .LVU317
 518:USB_DEVICE/Target/usbd_conf.c **** 
 1402              		.loc 1 518 3 view .LVU318
 518:USB_DEVICE/Target/usbd_conf.c **** 
 1403              		.loc 1 518 16 is_stmt 0 view .LVU319
 1404 0002 D0F8C802 		ldr	r0, [r0, #712]
 1405              	.LVL134:
 518:USB_DEVICE/Target/usbd_conf.c **** 
 1406              		.loc 1 518 16 view .LVU320
 1407 0006 FFF7FEFF 		bl	HAL_PCD_EP_ClrStall
 1408              	.LVL135:
 520:USB_DEVICE/Target/usbd_conf.c **** 
 1409              		.loc 1 520 3 is_stmt 1 view .LVU321
 520:USB_DEVICE/Target/usbd_conf.c **** 
 1410              		.loc 1 520 17 is_stmt 0 view .LVU322
 1411 000a FFF7FEFF 		bl	USBD_Get_USB_Status
 1412              	.LVL136:
 522:USB_DEVICE/Target/usbd_conf.c **** }
 1413              		.loc 1 522 3 is_stmt 1 view .LVU323
 523:USB_DEVICE/Target/usbd_conf.c **** 
 1414              		.loc 1 523 1 is_stmt 0 view .LVU324
 1415 000e 08BD     		pop	{r3, pc}
 1416              		.cfi_endproc
 1417              	.LFE159:
 1419              		.section	.text.USBD_LL_SetUSBAddress,"ax",%progbits
 1420              		.align	1
 1421              		.global	USBD_LL_SetUSBAddress
 1422              		.syntax unified
 1423              		.thumb
ARM GAS  /tmp/ccCaeJ1V.s 			page 41


 1424              		.thumb_func
 1425              		.fpu fpv4-sp-d16
 1427              	USBD_LL_SetUSBAddress:
 1428              	.LVL137:
 1429              	.LFB161:
 552:USB_DEVICE/Target/usbd_conf.c ****   HAL_StatusTypeDef hal_status = HAL_OK;
 1430              		.loc 1 552 1 is_stmt 1 view -0
 1431              		.cfi_startproc
 1432              		@ args = 0, pretend = 0, frame = 0
 1433              		@ frame_needed = 0, uses_anonymous_args = 0
 552:USB_DEVICE/Target/usbd_conf.c ****   HAL_StatusTypeDef hal_status = HAL_OK;
 1434              		.loc 1 552 1 is_stmt 0 view .LVU326
 1435 0000 08B5     		push	{r3, lr}
 1436              	.LCFI28:
 1437              		.cfi_def_cfa_offset 8
 1438              		.cfi_offset 3, -8
 1439              		.cfi_offset 14, -4
 553:USB_DEVICE/Target/usbd_conf.c ****   USBD_StatusTypeDef usb_status = USBD_OK;
 1440              		.loc 1 553 3 is_stmt 1 view .LVU327
 1441              	.LVL138:
 554:USB_DEVICE/Target/usbd_conf.c **** 
 1442              		.loc 1 554 3 view .LVU328
 556:USB_DEVICE/Target/usbd_conf.c **** 
 1443              		.loc 1 556 3 view .LVU329
 556:USB_DEVICE/Target/usbd_conf.c **** 
 1444              		.loc 1 556 16 is_stmt 0 view .LVU330
 1445 0002 D0F8C802 		ldr	r0, [r0, #712]
 1446              	.LVL139:
 556:USB_DEVICE/Target/usbd_conf.c **** 
 1447              		.loc 1 556 16 view .LVU331
 1448 0006 FFF7FEFF 		bl	HAL_PCD_SetAddress
 1449              	.LVL140:
 558:USB_DEVICE/Target/usbd_conf.c **** 
 1450              		.loc 1 558 3 is_stmt 1 view .LVU332
 558:USB_DEVICE/Target/usbd_conf.c **** 
 1451              		.loc 1 558 17 is_stmt 0 view .LVU333
 1452 000a FFF7FEFF 		bl	USBD_Get_USB_Status
 1453              	.LVL141:
 560:USB_DEVICE/Target/usbd_conf.c **** }
 1454              		.loc 1 560 3 is_stmt 1 view .LVU334
 561:USB_DEVICE/Target/usbd_conf.c **** 
 1455              		.loc 1 561 1 is_stmt 0 view .LVU335
 1456 000e 08BD     		pop	{r3, pc}
 1457              		.cfi_endproc
 1458              	.LFE161:
 1460              		.section	.text.USBD_LL_Transmit,"ax",%progbits
 1461              		.align	1
 1462              		.global	USBD_LL_Transmit
 1463              		.syntax unified
 1464              		.thumb
 1465              		.thumb_func
 1466              		.fpu fpv4-sp-d16
 1468              	USBD_LL_Transmit:
 1469              	.LVL142:
 1470              	.LFB162:
 572:USB_DEVICE/Target/usbd_conf.c ****   HAL_StatusTypeDef hal_status = HAL_OK;
 1471              		.loc 1 572 1 is_stmt 1 view -0
ARM GAS  /tmp/ccCaeJ1V.s 			page 42


 1472              		.cfi_startproc
 1473              		@ args = 0, pretend = 0, frame = 0
 1474              		@ frame_needed = 0, uses_anonymous_args = 0
 572:USB_DEVICE/Target/usbd_conf.c ****   HAL_StatusTypeDef hal_status = HAL_OK;
 1475              		.loc 1 572 1 is_stmt 0 view .LVU337
 1476 0000 08B5     		push	{r3, lr}
 1477              	.LCFI29:
 1478              		.cfi_def_cfa_offset 8
 1479              		.cfi_offset 3, -8
 1480              		.cfi_offset 14, -4
 573:USB_DEVICE/Target/usbd_conf.c ****   USBD_StatusTypeDef usb_status = USBD_OK;
 1481              		.loc 1 573 3 is_stmt 1 view .LVU338
 1482              	.LVL143:
 574:USB_DEVICE/Target/usbd_conf.c **** 
 1483              		.loc 1 574 3 view .LVU339
 576:USB_DEVICE/Target/usbd_conf.c **** 
 1484              		.loc 1 576 3 view .LVU340
 576:USB_DEVICE/Target/usbd_conf.c **** 
 1485              		.loc 1 576 16 is_stmt 0 view .LVU341
 1486 0002 D0F8C802 		ldr	r0, [r0, #712]
 1487              	.LVL144:
 576:USB_DEVICE/Target/usbd_conf.c **** 
 1488              		.loc 1 576 16 view .LVU342
 1489 0006 FFF7FEFF 		bl	HAL_PCD_EP_Transmit
 1490              	.LVL145:
 578:USB_DEVICE/Target/usbd_conf.c **** 
 1491              		.loc 1 578 3 is_stmt 1 view .LVU343
 578:USB_DEVICE/Target/usbd_conf.c **** 
 1492              		.loc 1 578 17 is_stmt 0 view .LVU344
 1493 000a FFF7FEFF 		bl	USBD_Get_USB_Status
 1494              	.LVL146:
 580:USB_DEVICE/Target/usbd_conf.c **** }
 1495              		.loc 1 580 3 is_stmt 1 view .LVU345
 581:USB_DEVICE/Target/usbd_conf.c **** 
 1496              		.loc 1 581 1 is_stmt 0 view .LVU346
 1497 000e 08BD     		pop	{r3, pc}
 1498              		.cfi_endproc
 1499              	.LFE162:
 1501              		.section	.text.USBD_LL_PrepareReceive,"ax",%progbits
 1502              		.align	1
 1503              		.global	USBD_LL_PrepareReceive
 1504              		.syntax unified
 1505              		.thumb
 1506              		.thumb_func
 1507              		.fpu fpv4-sp-d16
 1509              	USBD_LL_PrepareReceive:
 1510              	.LVL147:
 1511              	.LFB163:
 592:USB_DEVICE/Target/usbd_conf.c ****   HAL_StatusTypeDef hal_status = HAL_OK;
 1512              		.loc 1 592 1 is_stmt 1 view -0
 1513              		.cfi_startproc
 1514              		@ args = 0, pretend = 0, frame = 0
 1515              		@ frame_needed = 0, uses_anonymous_args = 0
 592:USB_DEVICE/Target/usbd_conf.c ****   HAL_StatusTypeDef hal_status = HAL_OK;
 1516              		.loc 1 592 1 is_stmt 0 view .LVU348
 1517 0000 08B5     		push	{r3, lr}
 1518              	.LCFI30:
ARM GAS  /tmp/ccCaeJ1V.s 			page 43


 1519              		.cfi_def_cfa_offset 8
 1520              		.cfi_offset 3, -8
 1521              		.cfi_offset 14, -4
 593:USB_DEVICE/Target/usbd_conf.c ****   USBD_StatusTypeDef usb_status = USBD_OK;
 1522              		.loc 1 593 3 is_stmt 1 view .LVU349
 1523              	.LVL148:
 594:USB_DEVICE/Target/usbd_conf.c **** 
 1524              		.loc 1 594 3 view .LVU350
 596:USB_DEVICE/Target/usbd_conf.c **** 
 1525              		.loc 1 596 3 view .LVU351
 596:USB_DEVICE/Target/usbd_conf.c **** 
 1526              		.loc 1 596 16 is_stmt 0 view .LVU352
 1527 0002 D0F8C802 		ldr	r0, [r0, #712]
 1528              	.LVL149:
 596:USB_DEVICE/Target/usbd_conf.c **** 
 1529              		.loc 1 596 16 view .LVU353
 1530 0006 FFF7FEFF 		bl	HAL_PCD_EP_Receive
 1531              	.LVL150:
 598:USB_DEVICE/Target/usbd_conf.c **** 
 1532              		.loc 1 598 3 is_stmt 1 view .LVU354
 598:USB_DEVICE/Target/usbd_conf.c **** 
 1533              		.loc 1 598 17 is_stmt 0 view .LVU355
 1534 000a FFF7FEFF 		bl	USBD_Get_USB_Status
 1535              	.LVL151:
 600:USB_DEVICE/Target/usbd_conf.c **** }
 1536              		.loc 1 600 3 is_stmt 1 view .LVU356
 601:USB_DEVICE/Target/usbd_conf.c **** 
 1537              		.loc 1 601 1 is_stmt 0 view .LVU357
 1538 000e 08BD     		pop	{r3, pc}
 1539              		.cfi_endproc
 1540              	.LFE163:
 1542              		.comm	hpcd_USB_OTG_FS,1252,4
 1543              		.section	.bss.mem.10645,"aw",%nobits
 1544              		.align	2
 1545              		.set	.LANCHOR0,. + 0
 1548              	mem.10645:
 1549 0000 00000000 		.space	544
 1549      00000000 
 1549      00000000 
 1549      00000000 
 1549      00000000 
 1550              		.text
 1551              	.Letext0:
 1552              		.file 2 "/usr/lib/gcc/arm-none-eabi/9.2.1/include/stdint.h"
 1553              		.file 3 "Drivers/CMSIS/Include/core_cm4.h"
 1554              		.file 4 "Drivers/CMSIS/Device/ST/STM32F4xx/Include/system_stm32f4xx.h"
 1555              		.file 5 "Drivers/CMSIS/Device/ST/STM32F4xx/Include/stm32f446xx.h"
 1556              		.file 6 "Drivers/CMSIS/Device/ST/STM32F4xx/Include/stm32f4xx.h"
 1557              		.file 7 "Drivers/STM32F4xx_HAL_Driver/Inc/stm32f4xx_hal_def.h"
 1558              		.file 8 "Drivers/STM32F4xx_HAL_Driver/Inc/stm32f4xx_hal_rcc_ex.h"
 1559              		.file 9 "Drivers/STM32F4xx_HAL_Driver/Inc/stm32f4xx_hal_gpio.h"
 1560              		.file 10 "Drivers/STM32F4xx_HAL_Driver/Inc/stm32f4xx_ll_usb.h"
 1561              		.file 11 "Drivers/STM32F4xx_HAL_Driver/Inc/stm32f4xx_hal_pcd.h"
 1562              		.file 12 "Drivers/STM32F4xx_HAL_Driver/Inc/stm32f4xx_hal.h"
 1563              		.file 13 "/usr/lib/gcc/arm-none-eabi/9.2.1/include/stddef.h"
 1564              		.file 14 "/usr/include/newlib/sys/_types.h"
 1565              		.file 15 "/usr/include/newlib/sys/reent.h"
ARM GAS  /tmp/ccCaeJ1V.s 			page 44


 1566              		.file 16 "/usr/include/newlib/sys/lock.h"
 1567              		.file 17 "/usr/include/newlib/stdlib.h"
 1568              		.file 18 "Middlewares/ST/STM32_USB_Device_Library/Core/Inc/usbd_def.h"
 1569              		.file 19 "Middlewares/ST/STM32_USB_Device_Library/Class/CDC/Inc/usbd_cdc.h"
 1570              		.file 20 "Middlewares/ST/STM32_USB_Device_Library/Core/Inc/usbd_core.h"
 1571              		.file 21 "Drivers/STM32F4xx_HAL_Driver/Inc/stm32f4xx_hal_pcd_ex.h"
 1572              		.file 22 "Drivers/STM32F4xx_HAL_Driver/Inc/stm32f4xx_hal_cortex.h"
 1573              		.file 23 "<built-in>"
ARM GAS  /tmp/ccCaeJ1V.s 			page 45

